ARM GAS  /tmp/ccKppKJD.s 			page 1


   1              		.cpu cortex-m3
   2              		.eabi_attribute 20, 1
   3              		.eabi_attribute 21, 1
   4              		.eabi_attribute 23, 3
   5              		.eabi_attribute 24, 1
   6              		.eabi_attribute 25, 1
   7              		.eabi_attribute 26, 1
   8              		.eabi_attribute 30, 1
   9              		.eabi_attribute 34, 1
  10              		.eabi_attribute 18, 4
  11              		.file	"LTC6811.c"
  12              		.text
  13              	.Ltext0:
  14              		.cfi_sections	.debug_frame
  15              		.section	.text.initPECTable,"ax",%progbits
  16              		.align	1
  17              		.global	initPECTable
  18              		.arch armv7-m
  19              		.syntax unified
  20              		.thumb
  21              		.thumb_func
  22              		.fpu softvfp
  24              	initPECTable:
  25              	.LFB66:
  26              		.file 1 "Src/LTC6811.c"
   1:Src/LTC6811.c **** /*
   2:Src/LTC6811.c **** 	LTC6811 Command Functions
   3:Src/LTC6811.c **** 	Matt Vlasaty and ya boi Evan Chen
   4:Src/LTC6811.c **** 	April 18th, 2019
   5:Src/LTC6811.c **** 	
   6:Src/LTC6811.c **** 	General Functions
   7:Src/LTC6811.c **** 		sendBroadcastCommand: void sendBroadcastCommand(CommandCodeTypedef command);
   8:Src/LTC6811.c **** 			- sends specified write-only command to every LTC in the chain (ex: ADCV)
   9:Src/LTC6811.c **** 			- CommandCodeTypedef enum contains every command code used
  10:Src/LTC6811.c **** 		sendAddressCommand: void sendAddressCommand(CommandCodeTypedef command, uint8_t address);
  11:Src/LTC6811.c **** 			- sends specified write-only command to LTC with specified address
  12:Src/LTC6811.c **** 		readRegister: bool readRegister(CommandCodeTypedef command, uint8_t address, uint16_t *data);
  13:Src/LTC6811.c **** 			- reads register specified in command from specified board
  14:Src/LTC6811.c **** 			- ex: ReadCellVoltageRegisterGroup1to3, ReadAuxiliaryGroupA, ReadConfigurationRegisterGroup
  15:Src/LTC6811.c **** 			- returns true if received PEC matches calculated PEC
  16:Src/LTC6811.c **** 		
  17:Src/LTC6811.c **** 	Configuration Functions
  18:Src/LTC6811.c **** 		writeConfig: void writeConfig(BMSconfigStructTypedef cfg, uint8_t total_ic);
  19:Src/LTC6811.c **** 			- writes configuration data from BMSconfig struct into LTC configuration register
  20:Src/LTC6811.c **** 			- BMSconfig struct includes ADCMode, UV, OV, and discharge enable for each cell
  21:Src/LTC6811.c **** 			- currently assumes that addresses are in order and start from 0 (i.e. 0, 1, 2, 3, ...) 
  22:Src/LTC6811.c **** 		readConfig: bool readConfig(uint8_t address, uint8_t cfg[6]);
  23:Src/LTC6811.c **** 			- uses general readRegister function to check current state of LTC configuration register
  24:Src/LTC6811.c **** 			- this is mostly for testing purposes
  25:Src/LTC6811.c **** 			- returns true if received PEC matches calculated PEC (same as readRegister)
  26:Src/LTC6811.c **** 	
  27:Src/LTC6811.c **** 	Set Cell Discharge Functions
  28:Src/LTC6811.c **** 		void setDischarge(bool ctd[12], BMSconfigStructTypedef *cfg, uint8_t total_ic);
  29:Src/LTC6811.c **** 			 - not tested
  30:Src/LTC6811.c **** 			 - Enables discharging on the requested cells.
  31:Src/LTC6811.c **** 			 - Parameters:
  32:Src/LTC6811.c **** 				> The cells to discharge (ctd) are stored in bool ctd[12]. True = discharge. Else don't dischar
ARM GAS  /tmp/ccKppKJD.s 			page 2


  33:Src/LTC6811.c **** 				  Note that the used cells may not be contiguous in order. For Apollo used cells are 1, 2, 3, 4
  34:Src/LTC6811.c **** 				  **Subtract one from the cell number to get the corresponding array index.**
  35:Src/LTC6811.c **** 				> BMSconfigStructTypedef cfg is the original config struct used when initializing configuration
  36:Src/LTC6811.c **** 				  Should be the same variable as the first writeConfig parameter in main.
  37:Src/LTC6811.c **** 				> uint8_t total_ic is the number of ICs connected. Should be the same variable as the first wri
  38:Src/LTC6811.c **** 
  39:Src/LTC6811.c **** 	Cell Voltage Functions
  40:Src/LTC6811.c **** 		readCellVoltage: bool readCellVoltage(uint8_t address, uint16_t cellVoltage[12]);
  41:Src/LTC6811.c **** 			- sends ADCV command that begins conversion for every cell to specified LTC
  42:Src/LTC6811.c **** 			- reads all cell voltage registers using general readRegister function
  43:Src/LTC6811.c **** 			- used cell inputs (1, 2, 3, 4, 7, 8, 9, 10) must be chosen from cellVoltage[12] later
  44:Src/LTC6811.c **** 			- returns true if received PEC matches calculated PEC (same as readRegister)
  45:Src/LTC6811.c **** 		readAllCellVoltages: bool readAllCellVoltages(uint16_t cellVoltage[12][12]);
  46:Src/LTC6811.c **** 			- not tested
  47:Src/LTC6811.c **** 			- stores cell voltage for every cell on every board into 2D array
  48:Src/LTC6811.c **** 			- returns false if any readCellVoltage returns false
  49:Src/LTC6811.c **** 	
  50:Src/LTC6811.c **** 	Cell Temperature Functions
  51:Src/LTC6811.c **** 		readCellTemp: bool readCellTemp(uint8_t address, uint16_t cellTemp[4]);
  52:Src/LTC6811.c **** 			- not tested
  53:Src/LTC6811.c **** 			- initiates ADC conversion for GPIO inputs connected to temperature sensors
  54:Src/LTC6811.c **** 			- reads auxiliary register groups using general readRegister function
  55:Src/LTC6811.c **** 			- converts measured voltage into temperature (need to confirm that the conversion is correct for
  56:Src/LTC6811.c **** 			- the function that checks for faults will need to compare to temperature thresholds (not voltag
  57:Src/LTC6811.c **** 		readAllCellTemps: bool readAllCellTemps(uint16_t cellTemp[12][4]);
  58:Src/LTC6811.c **** 			- not tested
  59:Src/LTC6811.c **** 			- stores cell temperature for every cell on every board into 2D array
  60:Src/LTC6811.c **** 			- returns false if any readCellTemp returns false
  61:Src/LTC6811.c **** 	
  62:Src/LTC6811.c **** 	Cell Connection Functions
  63:Src/LTC6811.c **** 		checkCellConnection: bool checkCellConnection(uint16_t cellVoltage[12], bool cellConnection[12]);
  64:Src/LTC6811.c **** 			- not tested
  65:Src/LTC6811.c **** 			- needs previously obtained cell voltage measurements
  66:Src/LTC6811.c **** 			- initiates ADOW command with PUP = 0 to source 100uA while measuring cell voltage
  67:Src/LTC6811.c **** 			- reads cell voltages with readCellVoltage function
  68:Src/LTC6811.c **** 			- compares previously measured values to open wire check values
  69:Src/LTC6811.c **** 			- if there is a significant drop in voltage (should be configurable), cell is disconnected
  70:Src/LTC6811.c **** 			- stores 1 into cellConnection if cell is connected
  71:Src/LTC6811.c **** 			- stores 0 into cellConnection if cell is disconnected
  72:Src/LTC6811.c **** 			- returns false if any cell is disconnected
  73:Src/LTC6811.c **** 		checkAllCellConnections: needs to be added
  74:Src/LTC6811.c **** 	
  75:Src/LTC6811.c **** 	PEC Functions
  76:Src/LTC6811.c **** 		initPECTable: void initPECTable(void);
  77:Src/LTC6811.c **** 			- taken from LTC6811 datasheet
  78:Src/LTC6811.c **** 			- generates PEC look-up table
  79:Src/LTC6811.c **** 			- should be called on start-up
  80:Src/LTC6811.c **** 		calculatePEC: uint16_t calculatePEC(uint8_t len, uint8_t *data);
  81:Src/LTC6811.c **** 			- taken from LTC6811 datasheet
  82:Src/LTC6811.c **** 			- used when sending command to calculate necessary PEC bytes to follow command bytes
  83:Src/LTC6811.c **** 			- used when receiving data to compare received PEC with the PEC that should have been received b
  84:Src/LTC6811.c **** 			- returns uint16_t PEC value
  85:Src/LTC6811.c **** 			
  86:Src/LTC6811.c **** 	TODO:
  87:Src/LTC6811.c **** 		- test readCellTemp, setDischarge and checkCellConnection with BMS slave board
  88:Src/LTC6811.c **** 		- resolve issue with writeConfig not changing every bit in the first register group
  89:Src/LTC6811.c **** 		- test functions used to read from every board
ARM GAS  /tmp/ccKppKJD.s 			page 3


  90:Src/LTC6811.c **** 		- minor changes (using more user-defined constants, changing return values)
  91:Src/LTC6811.c **** */
  92:Src/LTC6811.c **** 
  93:Src/LTC6811.c **** 
  94:Src/LTC6811.c **** #include "LTC6811.h"
  95:Src/LTC6811.c **** 
  96:Src/LTC6811.c **** uint16_t pec15Table[256];
  97:Src/LTC6811.c **** uint16_t CRC15_POLY = 0x4599;
  98:Src/LTC6811.c **** 
  99:Src/LTC6811.c **** void initPECTable(void) {
  27              		.loc 1 99 25 view -0
  28              		.cfi_startproc
  29              		@ args = 0, pretend = 0, frame = 0
  30              		@ frame_needed = 0, uses_anonymous_args = 0
  31              		@ link register save eliminated.
 100:Src/LTC6811.c **** 	
 101:Src/LTC6811.c **** 	uint16_t remainder;
  32              		.loc 1 101 2 view .LVU1
 102:Src/LTC6811.c **** 	
 103:Src/LTC6811.c **** 	for (int i = 0; i < 256; i++) {
  33              		.loc 1 103 2 view .LVU2
  34              	.LBB2:
  35              		.loc 1 103 7 view .LVU3
  36              	.LVL0:
  37              		.loc 1 103 11 is_stmt 0 view .LVU4
  38 0000 0020     		movs	r0, #0
  39              		.loc 1 103 2 view .LVU5
  40 0002 11E0     		b	.L2
  41              	.LVL1:
  42              	.L4:
  43              	.LBB3:
 104:Src/LTC6811.c **** 		remainder = i << 7;
 105:Src/LTC6811.c **** 		for (int bit = 8; bit > 0; bit--) {
 106:Src/LTC6811.c **** 			if (remainder & 0x4000) {
 107:Src/LTC6811.c **** 				remainder = ((remainder << 1));
 108:Src/LTC6811.c **** 				remainder = (remainder ^ CRC15_POLY);
 109:Src/LTC6811.c **** 			}
 110:Src/LTC6811.c **** 			else {
 111:Src/LTC6811.c **** 				remainder = ((remainder << 1));
  44              		.loc 1 111 5 is_stmt 1 view .LVU6
  45              		.loc 1 111 15 is_stmt 0 view .LVU7
  46 0004 5B00     		lsls	r3, r3, #1
  47              	.LVL2:
  48              		.loc 1 111 15 view .LVU8
  49 0006 9BB2     		uxth	r3, r3
  50              	.LVL3:
  51              	.L5:
 105:Src/LTC6811.c **** 			if (remainder & 0x4000) {
  52              		.loc 1 105 33 discriminator 2 view .LVU9
  53 0008 013A     		subs	r2, r2, #1
  54              	.LVL4:
  55              	.L3:
 105:Src/LTC6811.c **** 			if (remainder & 0x4000) {
  56              		.loc 1 105 3 discriminator 1 view .LVU10
  57 000a 002A     		cmp	r2, #0
  58 000c 08DD     		ble	.L8
 106:Src/LTC6811.c **** 				remainder = ((remainder << 1));
ARM GAS  /tmp/ccKppKJD.s 			page 4


  59              		.loc 1 106 4 is_stmt 1 view .LVU11
 106:Src/LTC6811.c **** 				remainder = ((remainder << 1));
  60              		.loc 1 106 7 is_stmt 0 view .LVU12
  61 000e 13F4804F 		tst	r3, #16384
  62 0012 F7D0     		beq	.L4
 107:Src/LTC6811.c **** 				remainder = (remainder ^ CRC15_POLY);
  63              		.loc 1 107 5 is_stmt 1 view .LVU13
 107:Src/LTC6811.c **** 				remainder = (remainder ^ CRC15_POLY);
  64              		.loc 1 107 15 is_stmt 0 view .LVU14
  65 0014 5B00     		lsls	r3, r3, #1
  66              	.LVL5:
 107:Src/LTC6811.c **** 				remainder = (remainder ^ CRC15_POLY);
  67              		.loc 1 107 15 view .LVU15
  68 0016 9BB2     		uxth	r3, r3
  69              	.LVL6:
 108:Src/LTC6811.c **** 			}
  70              		.loc 1 108 5 is_stmt 1 view .LVU16
 108:Src/LTC6811.c **** 			}
  71              		.loc 1 108 15 is_stmt 0 view .LVU17
  72 0018 0749     		ldr	r1, .L10
  73 001a 0988     		ldrh	r1, [r1]
  74 001c 4B40     		eors	r3, r3, r1
  75              	.LVL7:
 108:Src/LTC6811.c **** 			}
  76              		.loc 1 108 15 view .LVU18
  77 001e F3E7     		b	.L5
  78              	.L8:
 108:Src/LTC6811.c **** 			}
  79              		.loc 1 108 15 view .LVU19
  80              	.LBE3:
 112:Src/LTC6811.c **** 			}
 113:Src/LTC6811.c **** 		}
 114:Src/LTC6811.c **** 		pec15Table[i] = remainder & 0xFFFF;
  81              		.loc 1 114 3 is_stmt 1 discriminator 2 view .LVU20
  82              		.loc 1 114 17 is_stmt 0 discriminator 2 view .LVU21
  83 0020 064A     		ldr	r2, .L10+4
  84              	.LVL8:
  85              		.loc 1 114 17 discriminator 2 view .LVU22
  86 0022 22F81030 		strh	r3, [r2, r0, lsl #1]	@ movhi
 103:Src/LTC6811.c **** 		remainder = i << 7;
  87              		.loc 1 103 28 discriminator 2 view .LVU23
  88 0026 0130     		adds	r0, r0, #1
  89              	.LVL9:
  90              	.L2:
 103:Src/LTC6811.c **** 		remainder = i << 7;
  91              		.loc 1 103 2 discriminator 1 view .LVU24
  92 0028 FF28     		cmp	r0, #255
  93 002a 04DC     		bgt	.L9
 104:Src/LTC6811.c **** 		for (int bit = 8; bit > 0; bit--) {
  94              		.loc 1 104 3 is_stmt 1 view .LVU25
 104:Src/LTC6811.c **** 		for (int bit = 8; bit > 0; bit--) {
  95              		.loc 1 104 17 is_stmt 0 view .LVU26
  96 002c 83B2     		uxth	r3, r0
 104:Src/LTC6811.c **** 		for (int bit = 8; bit > 0; bit--) {
  97              		.loc 1 104 13 view .LVU27
  98 002e DB01     		lsls	r3, r3, #7
  99 0030 9BB2     		uxth	r3, r3
ARM GAS  /tmp/ccKppKJD.s 			page 5


 100              	.LVL10:
 105:Src/LTC6811.c **** 			if (remainder & 0x4000) {
 101              		.loc 1 105 3 is_stmt 1 view .LVU28
 102              	.LBB4:
 105:Src/LTC6811.c **** 			if (remainder & 0x4000) {
 103              		.loc 1 105 8 view .LVU29
 105:Src/LTC6811.c **** 			if (remainder & 0x4000) {
 104              		.loc 1 105 12 is_stmt 0 view .LVU30
 105 0032 0822     		movs	r2, #8
 105:Src/LTC6811.c **** 			if (remainder & 0x4000) {
 106              		.loc 1 105 3 view .LVU31
 107 0034 E9E7     		b	.L3
 108              	.LVL11:
 109              	.L9:
 105:Src/LTC6811.c **** 			if (remainder & 0x4000) {
 110              		.loc 1 105 3 view .LVU32
 111              	.LBE4:
 112              	.LBE2:
 115:Src/LTC6811.c **** 	}
 116:Src/LTC6811.c **** };
 113              		.loc 1 116 1 view .LVU33
 114 0036 7047     		bx	lr
 115              	.L11:
 116              		.align	2
 117              	.L10:
 118 0038 00000000 		.word	.LANCHOR0
 119 003c 00000000 		.word	pec15Table
 120              		.cfi_endproc
 121              	.LFE66:
 123              		.section	.text.calculatePEC,"ax",%progbits
 124              		.align	1
 125              		.global	calculatePEC
 126              		.syntax unified
 127              		.thumb
 128              		.thumb_func
 129              		.fpu softvfp
 131              	calculatePEC:
 132              	.LVL12:
 133              	.LFB78:
 117:Src/LTC6811.c ****  
 118:Src/LTC6811.c **** void writeConfig(BMSconfigStructTypedef cfg, uint8_t total_ic) {
 119:Src/LTC6811.c **** 	
 120:Src/LTC6811.c **** 	/*uint8_t TxBuffer[12] = {0x11, 0x22, 0x33, 0x44, 0x55, 0x66, 0x77, 0x88, 0x99, 0xAA, 0xBB, 0xCC};
 121:Src/LTC6811.c **** 	uint8_t RxBuffer[12];
 122:Src/LTC6811.c **** 	
 123:Src/LTC6811.c **** 	if (cfg.ADCModeOption == 0) HAL_GPIO_TogglePin(GPIOC, GPIO_PIN_13);
 124:Src/LTC6811.c **** 	
 125:Src/LTC6811.c **** 	if (SPIWriteRead(TxBuffer, RxBuffer, 12) == 1) HAL_GPIO_TogglePin(GPIOC, GPIO_PIN_13);*/
 126:Src/LTC6811.c **** 	
 127:Src/LTC6811.c **** 	uint8_t config[6];
 128:Src/LTC6811.c **** 	uint8_t *cmd;
 129:Src/LTC6811.c **** 	uint8_t cmd_len = 12;
 130:Src/LTC6811.c **** 	uint16_t PEC_return;
 131:Src/LTC6811.c **** 	
 132:Src/LTC6811.c **** 	cmd = (uint8_t *)malloc(cmd_len*sizeof(uint8_t));
 133:Src/LTC6811.c **** 	
 134:Src/LTC6811.c **** 	config[0] = 0xFF;
ARM GAS  /tmp/ccKppKJD.s 			page 6


 135:Src/LTC6811.c **** 	config[1] = 0xFF;
 136:Src/LTC6811.c **** 	//config[0] = (uint8_t) (cfg.GPIO5PulldownOff << 7) | (cfg.GPIO4PulldownOff << 6) | (cfg.GPIO3Pull
 137:Src/LTC6811.c **** 	//config[1] = (uint8_t) (cfg.UndervoltageComparisonVoltage & 0xFF);
 138:Src/LTC6811.c **** 	config[2] = (uint8_t) ((cfg.OvervoltageComparisonVoltage << 4) & 0xF0) | ((cfg.UndervoltageCompari
 139:Src/LTC6811.c **** 	config[3] = (uint8_t) ((cfg.OvervoltageComparisonVoltage >> 4) & 0xFF);
 140:Src/LTC6811.c **** 	config[4] = (uint8_t) (cfg.DischargeCell8 << 7) | (cfg.DischargeCell7 << 6) | (cfg.DischargeCell6 
 141:Src/LTC6811.c **** 	config[5] = (uint8_t) ((cfg.DischargeTimeoutValue << 4) & 0xF0) | (cfg.DischargeCell12 << 3) | (cf
 142:Src/LTC6811.c **** 	
 143:Src/LTC6811.c **** 	for (uint8_t current_ic = 0; current_ic <= total_ic-1; current_ic++) {
 144:Src/LTC6811.c **** 	
 145:Src/LTC6811.c **** 		cmd[0] = (uint8_t) (0x80 | ((current_ic << 3) & 0x78) | ((WriteConfigurationRegisterGroup >> 8) &
 146:Src/LTC6811.c **** 		cmd[1] = (uint8_t) (WriteConfigurationRegisterGroup & 0xFF);
 147:Src/LTC6811.c **** 		
 148:Src/LTC6811.c **** 		PEC_return = calculatePEC(2, cmd);
 149:Src/LTC6811.c **** 		
 150:Src/LTC6811.c **** 		cmd[2] = (PEC_return >> 8) & 0xFF;
 151:Src/LTC6811.c **** 		cmd[3] = PEC_return & 0xFF;
 152:Src/LTC6811.c **** 	
 153:Src/LTC6811.c **** 		cmd[4] = config[0];
 154:Src/LTC6811.c **** 		cmd[5] = config[1];
 155:Src/LTC6811.c **** 		cmd[6] = config[2];
 156:Src/LTC6811.c **** 		cmd[7] = config[3];
 157:Src/LTC6811.c **** 		cmd[8] = config[4];
 158:Src/LTC6811.c **** 		cmd[9] = config[5];
 159:Src/LTC6811.c **** 		
 160:Src/LTC6811.c **** 		PEC_return = calculatePEC(6, cmd + 4);
 161:Src/LTC6811.c **** 	
 162:Src/LTC6811.c **** 		cmd[10] = (PEC_return >> 8) & 0xFF;
 163:Src/LTC6811.c **** 		cmd[11] = PEC_return & 0xFF;
 164:Src/LTC6811.c **** 		
 165:Src/LTC6811.c **** 		SPIWrite(cmd, cmd_len);
 166:Src/LTC6811.c **** 		
 167:Src/LTC6811.c **** 		//HAL_Delay(100);
 168:Src/LTC6811.c **** 	}
 169:Src/LTC6811.c **** 	
 170:Src/LTC6811.c **** 	free(cmd);
 171:Src/LTC6811.c **** 	
 172:Src/LTC6811.c **** };
 173:Src/LTC6811.c **** 
 174:Src/LTC6811.c **** /*
 175:Src/LTC6811.c ****  - Enables discharging on the requested cells.
 176:Src/LTC6811.c ****  - Parameters:
 177:Src/LTC6811.c **** 	> The cells to discharge (ctd) are stored in bool ctd[12]. True = discharge. Else don't discharge.
 178:Src/LTC6811.c **** 	  Note that the used cells may not be contiguous in order. For Apollo 18-19, used cells are 1, 2, 
 179:Src/LTC6811.c **** 	> BMSconfigStructTypedef cfg is the original config struct used when initializing configuration re
 180:Src/LTC6811.c **** 	  Should be the same variable as the first writeConfig parameter in main.
 181:Src/LTC6811.c **** 	> uint8_t total_ic is the number of ICs connected. Should be the same variable as the first writeC
 182:Src/LTC6811.c **** */
 183:Src/LTC6811.c **** void setDischarge(bool ctd[12], BMSconfigStructTypedef *cfg, uint8_t total_ic) {
 184:Src/LTC6811.c **** 	if (ctd[0] == true) { cfg->DischargeCell1 = 1; }
 185:Src/LTC6811.c **** 	else				{ cfg->DischargeCell1 = 0; }
 186:Src/LTC6811.c **** 	
 187:Src/LTC6811.c **** 	if (ctd[1] == true) { cfg->DischargeCell2 = 1; }
 188:Src/LTC6811.c **** 	else				{ cfg->DischargeCell2 = 0; }
 189:Src/LTC6811.c **** 
 190:Src/LTC6811.c **** 	if (ctd[2] == true) { cfg->DischargeCell3 = 1; }
 191:Src/LTC6811.c **** 	else				{ cfg->DischargeCell3 = 0; }
ARM GAS  /tmp/ccKppKJD.s 			page 7


 192:Src/LTC6811.c **** 	
 193:Src/LTC6811.c **** 	if (ctd[3] == true) { cfg->DischargeCell4 = 1; }
 194:Src/LTC6811.c **** 	else				{ cfg->DischargeCell4 = 0; }
 195:Src/LTC6811.c **** 	
 196:Src/LTC6811.c **** 	if (ctd[4] == true) { cfg->DischargeCell5 = 1; }
 197:Src/LTC6811.c **** 	else				{ cfg->DischargeCell5 = 0; }
 198:Src/LTC6811.c **** 
 199:Src/LTC6811.c **** 	if (ctd[5] == true) { cfg->DischargeCell6 = 1; }
 200:Src/LTC6811.c **** 	else				{ cfg->DischargeCell6 = 0; }
 201:Src/LTC6811.c **** 
 202:Src/LTC6811.c **** 	if (ctd[6] == true) { cfg->DischargeCell7 = 1; }
 203:Src/LTC6811.c **** 	else				{ cfg->DischargeCell7 = 0; }
 204:Src/LTC6811.c **** 	
 205:Src/LTC6811.c **** 	if (ctd[7] == true) { cfg->DischargeCell8 = 1; }
 206:Src/LTC6811.c **** 	else				{ cfg->DischargeCell8 = 0; }
 207:Src/LTC6811.c **** 
 208:Src/LTC6811.c **** 	if (ctd[8] == true) { cfg->DischargeCell9 = 1; }
 209:Src/LTC6811.c **** 	else				{ cfg->DischargeCell9 = 0; }
 210:Src/LTC6811.c **** 
 211:Src/LTC6811.c **** 	if (ctd[9] == true) { cfg->DischargeCell10 = 1; }
 212:Src/LTC6811.c **** 	else				{ cfg->DischargeCell10 = 0; }
 213:Src/LTC6811.c **** 	
 214:Src/LTC6811.c **** 	if (ctd[10] == true) { cfg->DischargeCell11 = 1; }
 215:Src/LTC6811.c **** 	else				 { cfg->DischargeCell11 = 0; }
 216:Src/LTC6811.c **** 
 217:Src/LTC6811.c **** 	if (ctd[11] == true) { cfg->DischargeCell12 = 1; }
 218:Src/LTC6811.c **** 	else				 { cfg->DischargeCell12 = 0; }
 219:Src/LTC6811.c **** 		
 220:Src/LTC6811.c **** 	writeConfig(*cfg, total_ic);
 221:Src/LTC6811.c **** }
 222:Src/LTC6811.c **** 
 223:Src/LTC6811.c **** bool readCellVoltage(uint8_t address, uint16_t cellVoltage[12]) {
 224:Src/LTC6811.c **** 	
 225:Src/LTC6811.c **** 	bool PEC_check = false;
 226:Src/LTC6811.c **** 	bool dataValid = true;
 227:Src/LTC6811.c **** 	uint16_t *voltage;
 228:Src/LTC6811.c **** 	
 229:Src/LTC6811.c **** 	voltage = (uint16_t *)malloc(12*sizeof(uint16_t));
 230:Src/LTC6811.c **** 	
 231:Src/LTC6811.c **** 	sendAddressCommand(StartCellVoltageADCConversionAll, address); // start conversion for every cell
 232:Src/LTC6811.c **** 
 233:Src/LTC6811.c **** 	HAL_Delay(15); // conversion time is 12.8ms at 422Hz, so wait 15ms
 234:Src/LTC6811.c **** 	
 235:Src/LTC6811.c **** 	PEC_check = readRegister(ReadCellVoltageRegisterGroup1to3, address, voltage);
 236:Src/LTC6811.c **** 	dataValid = dataValid & PEC_check;
 237:Src/LTC6811.c **** 	PEC_check = readRegister(ReadCellVoltageRegisterGroup4to6, address, voltage);
 238:Src/LTC6811.c **** 	dataValid = dataValid & PEC_check;
 239:Src/LTC6811.c **** 	PEC_check = readRegister(ReadCellVoltageRegisterGroup7to9, address, voltage);
 240:Src/LTC6811.c **** 	dataValid = dataValid & PEC_check;
 241:Src/LTC6811.c **** 	PEC_check = readRegister(ReadCellVoltageRegisterGroup10to12, address, voltage);
 242:Src/LTC6811.c **** 	dataValid = dataValid & PEC_check;
 243:Src/LTC6811.c **** 	
 244:Src/LTC6811.c **** 	for (uint8_t i = 0; i < 12; i++) {
 245:Src/LTC6811.c **** 		cellVoltage[i] = voltage[i];
 246:Src/LTC6811.c **** 	}
 247:Src/LTC6811.c **** 	
 248:Src/LTC6811.c **** 	free(voltage);
ARM GAS  /tmp/ccKppKJD.s 			page 8


 249:Src/LTC6811.c **** 	
 250:Src/LTC6811.c **** 	return(dataValid);
 251:Src/LTC6811.c **** 	
 252:Src/LTC6811.c **** };
 253:Src/LTC6811.c **** 
 254:Src/LTC6811.c **** bool readAllCellVoltages(uint16_t cellVoltage[12][12]) {
 255:Src/LTC6811.c **** 	
 256:Src/LTC6811.c **** 	uint16_t boardVoltage[12];
 257:Src/LTC6811.c **** 	
 258:Src/LTC6811.c **** 	for (uint8_t i = 0; i < 12; i++) {
 259:Src/LTC6811.c **** 		
 260:Src/LTC6811.c **** 		readCellVoltage(i, boardVoltage);
 261:Src/LTC6811.c **** 		for (uint8_t j = 0; i < 12; i++) {
 262:Src/LTC6811.c **** 			cellVoltage[i][j] = boardVoltage[j];
 263:Src/LTC6811.c **** 		}
 264:Src/LTC6811.c **** 	}
 265:Src/LTC6811.c **** 	
 266:Src/LTC6811.c **** 	return 0; // should return false if any readCellVoltage returns false
 267:Src/LTC6811.c **** }
 268:Src/LTC6811.c **** 
 269:Src/LTC6811.c **** bool readCellTemp(uint8_t address, uint16_t cellTemp[4]) {
 270:Src/LTC6811.c **** 	
 271:Src/LTC6811.c **** 	bool PEC_check = false;
 272:Src/LTC6811.c **** 	bool dataValid = true;
 273:Src/LTC6811.c **** 	uint16_t *temp;
 274:Src/LTC6811.c **** 	double dummy[4];
 275:Src/LTC6811.c **** 	double conversion[4]; 
 276:Src/LTC6811.c **** 	
 277:Src/LTC6811.c **** 	temp = (uint16_t *)malloc(4*sizeof(uint16_t));
 278:Src/LTC6811.c **** 	
 279:Src/LTC6811.c **** 	sendAddressCommand(StartCellTempVoltageADCConversionAll, address);
 280:Src/LTC6811.c **** 	
 281:Src/LTC6811.c **** 	HAL_Delay(15); // conversion time is 12.8ms at 422Hz, so wait 15ms
 282:Src/LTC6811.c **** 	
 283:Src/LTC6811.c **** 	//readRegister(command, address, *data)
 284:Src/LTC6811.c **** 	PEC_check = readRegister(ReadAuxiliaryGroupA, address, temp);
 285:Src/LTC6811.c **** 	dataValid = dataValid & PEC_check;
 286:Src/LTC6811.c **** 	PEC_check = readRegister(ReadAuxiliaryGroupB, address, temp);
 287:Src/LTC6811.c **** 	dataValid = dataValid & PEC_check;
 288:Src/LTC6811.c **** 	
 289:Src/LTC6811.c **** 	for (uint8_t i = 0; i < 4; i++) {
 290:Src/LTC6811.c **** 		dummy[i] = (float) temp[i] / 10000;
 291:Src/LTC6811.c **** 		conversion[i] = 37735 - 113923 * dummy[i] + 142663 * pow(dummy[i], 2) - 94465 * pow(dummy[i], 3) 
 292:Src/LTC6811.c **** 		cellTemp[i] = (uint16_t) conversion[i];
 293:Src/LTC6811.c **** 		cellTemp[i] = 500 * (cellTemp[i] + 20);
 294:Src/LTC6811.c **** 	}
 295:Src/LTC6811.c **** 	
 296:Src/LTC6811.c **** 	free(temp);
 297:Src/LTC6811.c **** 	
 298:Src/LTC6811.c **** 	return (dataValid);
 299:Src/LTC6811.c **** 	
 300:Src/LTC6811.c **** };
 301:Src/LTC6811.c **** 
 302:Src/LTC6811.c **** bool readAllCellTemps(uint16_t cellTemp[12][4]) {
 303:Src/LTC6811.c **** 	
 304:Src/LTC6811.c **** 	uint16_t boardTemp[4];
 305:Src/LTC6811.c **** 	
ARM GAS  /tmp/ccKppKJD.s 			page 9


 306:Src/LTC6811.c **** 	for (uint8_t i = 0; i < 12; i++) {
 307:Src/LTC6811.c **** 		
 308:Src/LTC6811.c **** 		readCellTemp(i, boardTemp);
 309:Src/LTC6811.c **** 		for (uint8_t j = 0; j < 4; j++) {
 310:Src/LTC6811.c **** 			cellTemp[i][j] = boardTemp[j];
 311:Src/LTC6811.c **** 		}
 312:Src/LTC6811.c **** 	}
 313:Src/LTC6811.c **** 	
 314:Src/LTC6811.c **** 	return 0; // should return false if any readCellTemp returns false
 315:Src/LTC6811.c **** }
 316:Src/LTC6811.c **** 
 317:Src/LTC6811.c **** bool readConfig(uint8_t address, uint8_t cfg[6]) {
 318:Src/LTC6811.c **** 	
 319:Src/LTC6811.c **** 	uint16_t *config;
 320:Src/LTC6811.c **** 	bool dataValid = false;
 321:Src/LTC6811.c **** 	
 322:Src/LTC6811.c **** 	config = (uint16_t *)malloc(3*sizeof(uint16_t));
 323:Src/LTC6811.c **** 	
 324:Src/LTC6811.c **** 	dataValid = readRegister(ReadConfigurationRegisterGroup, address, config);
 325:Src/LTC6811.c **** 	
 326:Src/LTC6811.c **** 	cfg[0] = (uint8_t) ((config[0] >> 8) & 0xFF);
 327:Src/LTC6811.c **** 	cfg[1] = (uint8_t) (config[0] & 0xFF);
 328:Src/LTC6811.c **** 	cfg[2] = (uint8_t) ((config[1] >> 8) & 0xFF);
 329:Src/LTC6811.c **** 	cfg[3] = (uint8_t) (config[1] & 0xFF);
 330:Src/LTC6811.c **** 	cfg[4] = (uint8_t) ((config[2] >> 8) & 0xFF);
 331:Src/LTC6811.c **** 	cfg[5] = (uint8_t) (config[2] & 0xFF);
 332:Src/LTC6811.c **** 	
 333:Src/LTC6811.c **** 	return dataValid;
 334:Src/LTC6811.c **** }
 335:Src/LTC6811.c **** 
 336:Src/LTC6811.c **** bool checkCellConnection(uint16_t cellVoltage[12], bool cellConnection[12]) {
 337:Src/LTC6811.c **** 		
 338:Src/LTC6811.c **** 	uint16_t ADOWvoltage[12];
 339:Src/LTC6811.c **** 	
 340:Src/LTC6811.c **** 	sendBroadcastCommand(StartOpenWireConversionPulldown);
 341:Src/LTC6811.c **** 	sendBroadcastCommand(StartOpenWireConversionPulldown);
 342:Src/LTC6811.c **** 	
 343:Src/LTC6811.c **** 	HAL_Delay(15);
 344:Src/LTC6811.c **** 	
 345:Src/LTC6811.c **** 	readCellVoltage(0, ADOWvoltage);
 346:Src/LTC6811.c **** 	
 347:Src/LTC6811.c **** 	for (uint8_t i = 0; i < 12; i++) {
 348:Src/LTC6811.c **** 		// if voltage fell by > 100mV
 349:Src/LTC6811.c **** 		if ((ADOWvoltage[i] - cellVoltage[i]) > 1000) {
 350:Src/LTC6811.c **** 			cellConnection[i] = 0;
 351:Src/LTC6811.c **** 		}
 352:Src/LTC6811.c **** 		else {
 353:Src/LTC6811.c **** 			cellConnection[i] = 1;
 354:Src/LTC6811.c **** 		}
 355:Src/LTC6811.c **** 	}
 356:Src/LTC6811.c **** 
 357:Src/LTC6811.c **** 	return 0; // should return false if any cell is disconnected 
 358:Src/LTC6811.c **** }
 359:Src/LTC6811.c **** 
 360:Src/LTC6811.c **** bool readRegister(CommandCodeTypedef command, uint8_t address, uint16_t *data) {
 361:Src/LTC6811.c **** 	
 362:Src/LTC6811.c **** 	//send command and address in first two bytes
ARM GAS  /tmp/ccKppKJD.s 			page 10


 363:Src/LTC6811.c **** 	//send PEC in next two bytes
 364:Src/LTC6811.c **** 	//SPI writeread
 365:Src/LTC6811.c **** 	//calculate PEC based off received data bytes
 366:Src/LTC6811.c **** 	//if received PEC matches calculated PEC, return true (data valid)
 367:Src/LTC6811.c **** 	
 368:Src/LTC6811.c **** 	uint8_t cmd[12];
 369:Src/LTC6811.c **** 	uint8_t rx_data[12];
 370:Src/LTC6811.c **** 	uint16_t PEC_return;
 371:Src/LTC6811.c **** 	uint8_t *PEC_send;
 372:Src/LTC6811.c **** 	bool dataValid = true;
 373:Src/LTC6811.c **** 
 374:Src/LTC6811.c **** 	PEC_send = (uint8_t *)malloc(6*sizeof(uint8_t));
 375:Src/LTC6811.c **** 	
 376:Src/LTC6811.c **** 	PEC_send[0] = (uint8_t) (0x80 | ((address << 3) & 0x78) | ((command >> 8) & 0x07));
 377:Src/LTC6811.c **** 	PEC_send[1] = (uint8_t) (command & 0xFF);
 378:Src/LTC6811.c **** 
 379:Src/LTC6811.c **** 	cmd[0] = PEC_send[0];
 380:Src/LTC6811.c **** 	cmd[1] = PEC_send[1];
 381:Src/LTC6811.c **** 	
 382:Src/LTC6811.c **** 	PEC_return = calculatePEC(2, PEC_send);
 383:Src/LTC6811.c **** 	
 384:Src/LTC6811.c **** 	cmd[2] = (PEC_return >> 8) & 0xFF;
 385:Src/LTC6811.c **** 	cmd[3] = PEC_return & 0xFF;
 386:Src/LTC6811.c **** 	
 387:Src/LTC6811.c **** 	cmd[4] = 0;
 388:Src/LTC6811.c **** 	cmd[5] = 0;
 389:Src/LTC6811.c **** 	cmd[6] = 0;
 390:Src/LTC6811.c **** 	cmd[7] = 0;
 391:Src/LTC6811.c **** 	cmd[8] = 0;
 392:Src/LTC6811.c **** 	cmd[9] = 0;
 393:Src/LTC6811.c **** 	cmd[10] = 0;
 394:Src/LTC6811.c **** 	cmd[11] = 0;
 395:Src/LTC6811.c **** 	
 396:Src/LTC6811.c **** 	SPIWriteRead(cmd, rx_data, sizeof(cmd)); // send 4 command bytes, receive 6 cell voltage bytes (4-
 397:Src/LTC6811.c **** 	
 398:Src/LTC6811.c **** 	// calculate PEC based on cell voltage data received
 399:Src/LTC6811.c **** 	PEC_send[0] = rx_data[4]; // cell 1 voltage low bytes
 400:Src/LTC6811.c **** 	PEC_send[1] = rx_data[5]; // cell 1 voltage high bytes
 401:Src/LTC6811.c **** 	PEC_send[2] = rx_data[6]; // cell 2 voltage low bytes
 402:Src/LTC6811.c **** 	PEC_send[3] = rx_data[7]; // cell 2 voltage high bytes
 403:Src/LTC6811.c **** 	PEC_send[4] = rx_data[8]; // cell 3 voltage low bytes
 404:Src/LTC6811.c **** 	PEC_send[5] = rx_data[9]; // cell 3 voltage high bytes
 405:Src/LTC6811.c **** 	
 406:Src/LTC6811.c **** 	PEC_return = calculatePEC(6, PEC_send);
 407:Src/LTC6811.c **** 	
 408:Src/LTC6811.c **** 	// check if received PEC matches calculated PEC
 409:Src/LTC6811.c **** 	if (PEC_return != (((rx_data[10] << 8) & 0xFF00) | (rx_data[11] & 0x00FF))) {
 410:Src/LTC6811.c **** 		dataValid = false;
 411:Src/LTC6811.c **** 	}
 412:Src/LTC6811.c **** 	
 413:Src/LTC6811.c **** 	if (command == ReadCellVoltageRegisterGroup1to3) {
 414:Src/LTC6811.c **** 		
 415:Src/LTC6811.c **** 		data[0] = (uint16_t) ((rx_data[5] << 8) & 0xFF00) | (rx_data[4] & 0x00FF);
 416:Src/LTC6811.c **** 		data[1] = (uint16_t) ((rx_data[7] << 8) & 0xFF00) | (rx_data[6] & 0x00FF);
 417:Src/LTC6811.c **** 		data[2] = (uint16_t) ((rx_data[9] << 8) & 0xFF00) | (rx_data[8] & 0x00FF);
 418:Src/LTC6811.c **** 	}
 419:Src/LTC6811.c **** 
ARM GAS  /tmp/ccKppKJD.s 			page 11


 420:Src/LTC6811.c **** 	if (command == ReadCellVoltageRegisterGroup1to3) {
 421:Src/LTC6811.c **** 		
 422:Src/LTC6811.c **** 		data[3] = (uint16_t) ((rx_data[5] << 8) & 0xFF00) | (rx_data[4] & 0x00FF);
 423:Src/LTC6811.c **** 		data[4] = (uint16_t) ((rx_data[7] << 8) & 0xFF00) | (rx_data[6] & 0x00FF);
 424:Src/LTC6811.c **** 		data[5] = (uint16_t) ((rx_data[9] << 8) & 0xFF00) | (rx_data[8] & 0x00FF);
 425:Src/LTC6811.c **** 	}
 426:Src/LTC6811.c **** 	
 427:Src/LTC6811.c **** 	if (command == ReadCellVoltageRegisterGroup1to3) {
 428:Src/LTC6811.c **** 		
 429:Src/LTC6811.c **** 		data[6] = (uint16_t) ((rx_data[5] << 8) & 0xFF00) | (rx_data[4] & 0x00FF);
 430:Src/LTC6811.c **** 		data[7] = (uint16_t) ((rx_data[7] << 8) & 0xFF00) | (rx_data[6] & 0x00FF);
 431:Src/LTC6811.c **** 		data[8] = (uint16_t) ((rx_data[9] << 8) & 0xFF00) | (rx_data[8] & 0x00FF);
 432:Src/LTC6811.c **** 	}
 433:Src/LTC6811.c **** 	
 434:Src/LTC6811.c **** 	if (command == ReadCellVoltageRegisterGroup1to3) {
 435:Src/LTC6811.c **** 		
 436:Src/LTC6811.c **** 		data[9] = (uint16_t) ((rx_data[5] << 8) & 0xFF00) | (rx_data[4] & 0x00FF);
 437:Src/LTC6811.c **** 		data[10] = (uint16_t) ((rx_data[7] << 8) & 0xFF00) | (rx_data[6] & 0x00FF);
 438:Src/LTC6811.c **** 		data[11] = (uint16_t) ((rx_data[9] << 8) & 0xFF00) | (rx_data[8] & 0x00FF);
 439:Src/LTC6811.c **** 	}
 440:Src/LTC6811.c **** 	
 441:Src/LTC6811.c **** 	if (command == ReadAuxiliaryGroupA) {
 442:Src/LTC6811.c **** 		
 443:Src/LTC6811.c **** 		data[0] = (uint16_t) ((rx_data[5] << 8) & 0xFF00) | (rx_data[4] & 0x00FF);
 444:Src/LTC6811.c **** 		data[1] = (uint16_t) ((rx_data[7] << 8) & 0xFF00) | (rx_data[6] & 0x00FF);
 445:Src/LTC6811.c **** 		data[2] = (uint16_t) ((rx_data[9] << 8) & 0xFF00) | (rx_data[8] & 0x00FF);
 446:Src/LTC6811.c **** 	}
 447:Src/LTC6811.c **** 	
 448:Src/LTC6811.c **** 	if (command == ReadAuxiliaryGroupB) {
 449:Src/LTC6811.c **** 		data[3] = (uint16_t) ((rx_data[5] << 8) & 0xFF00) | (rx_data[4] & 0x00FF);
 450:Src/LTC6811.c **** 	}
 451:Src/LTC6811.c **** 	
 452:Src/LTC6811.c **** 	if (command == ReadConfigurationRegisterGroup) {
 453:Src/LTC6811.c **** 		data[0] = (uint16_t) ((rx_data[4] << 8) & 0xFF00) | (rx_data[5] & 0x00FF);
 454:Src/LTC6811.c **** 		data[1] = (uint16_t) ((rx_data[6] << 8) & 0xFF00) | (rx_data[7] & 0x00FF);
 455:Src/LTC6811.c **** 		data[2] = (uint16_t) ((rx_data[8] << 8) & 0xFF00) | (rx_data[9] & 0x00FF);
 456:Src/LTC6811.c **** 	}
 457:Src/LTC6811.c **** 	
 458:Src/LTC6811.c **** 	return(dataValid);
 459:Src/LTC6811.c **** 	
 460:Src/LTC6811.c **** };
 461:Src/LTC6811.c **** 
 462:Src/LTC6811.c **** void sendBroadcastCommand(CommandCodeTypedef command) {
 463:Src/LTC6811.c **** 	
 464:Src/LTC6811.c **** 	uint8_t cmd[4];
 465:Src/LTC6811.c **** 	uint16_t PEC_return;
 466:Src/LTC6811.c **** 	
 467:Src/LTC6811.c **** 	cmd[0] = (uint8_t) ((command >> 8) & 0x0F);
 468:Src/LTC6811.c **** 	cmd[1] = (uint8_t) (command & 0xFF);
 469:Src/LTC6811.c **** 	
 470:Src/LTC6811.c **** 	PEC_return = calculatePEC(2, (uint8_t *)&(cmd));
 471:Src/LTC6811.c **** 	
 472:Src/LTC6811.c **** 	cmd[2] = (PEC_return >> 8) & 0xFF;
 473:Src/LTC6811.c **** 	cmd[3] = PEC_return & 0xFF;
 474:Src/LTC6811.c **** 	
 475:Src/LTC6811.c **** 	SPIWrite(cmd, 4);
 476:Src/LTC6811.c **** };
ARM GAS  /tmp/ccKppKJD.s 			page 12


 477:Src/LTC6811.c **** 
 478:Src/LTC6811.c **** void sendAddressCommand(CommandCodeTypedef command, uint8_t address) {
 479:Src/LTC6811.c **** 	
 480:Src/LTC6811.c **** 	uint8_t cmd[4];
 481:Src/LTC6811.c **** 	uint16_t PEC_return;
 482:Src/LTC6811.c **** 	uint8_t *msbytes;
 483:Src/LTC6811.c **** 	
 484:Src/LTC6811.c **** 	msbytes = (uint8_t *)malloc(2*sizeof(uint8_t));
 485:Src/LTC6811.c **** 	
 486:Src/LTC6811.c **** 	msbytes[0] = (uint8_t) (0x80 | ((address << 3) & 0x78) | ((command >> 8) & 0x07));
 487:Src/LTC6811.c **** 	msbytes[1] = (uint8_t) (command & 0xFF);
 488:Src/LTC6811.c **** 
 489:Src/LTC6811.c **** 	cmd[0] = msbytes[0];
 490:Src/LTC6811.c **** 	cmd[1] = msbytes[1];
 491:Src/LTC6811.c **** 	
 492:Src/LTC6811.c **** 	PEC_return = calculatePEC(2, msbytes);
 493:Src/LTC6811.c **** 	
 494:Src/LTC6811.c **** 	cmd[2] = (PEC_return >> 8) & 0xFF;
 495:Src/LTC6811.c **** 	cmd[3] = PEC_return & 0xFF;
 496:Src/LTC6811.c **** 	
 497:Src/LTC6811.c **** 	SPIWrite(cmd, 4);
 498:Src/LTC6811.c **** 	
 499:Src/LTC6811.c **** 	free(msbytes);
 500:Src/LTC6811.c **** };
 501:Src/LTC6811.c **** 
 502:Src/LTC6811.c **** uint16_t calculatePEC(uint8_t len, uint8_t *data) {
 134              		.loc 1 502 51 is_stmt 1 view -0
 135              		.cfi_startproc
 136              		@ args = 0, pretend = 0, frame = 0
 137              		@ frame_needed = 0, uses_anonymous_args = 0
 138              		@ link register save eliminated.
 139              		.loc 1 502 51 is_stmt 0 view .LVU35
 140 0000 30B4     		push	{r4, r5}
 141              	.LCFI0:
 142              		.cfi_def_cfa_offset 8
 143              		.cfi_offset 4, -8
 144              		.cfi_offset 5, -4
 503:Src/LTC6811.c **** 	
 504:Src/LTC6811.c **** 	uint16_t remainder, address;
 145              		.loc 1 504 2 is_stmt 1 view .LVU36
 505:Src/LTC6811.c **** 	remainder = 16; //PEC seed
 146              		.loc 1 505 2 view .LVU37
 147              	.LVL13:
 506:Src/LTC6811.c **** 	
 507:Src/LTC6811.c **** 	for (int i = 0; i < len; i++) {
 148              		.loc 1 507 2 view .LVU38
 149              	.LBB5:
 150              		.loc 1 507 7 view .LVU39
 151              		.loc 1 507 11 is_stmt 0 view .LVU40
 152 0002 0024     		movs	r4, #0
 153              	.LBE5:
 505:Src/LTC6811.c **** 	remainder = 16; //PEC seed
 154              		.loc 1 505 12 view .LVU41
 155 0004 1022     		movs	r2, #16
 156              	.LVL14:
 157              	.L13:
 158              	.LBB6:
ARM GAS  /tmp/ccKppKJD.s 			page 13


 159              		.loc 1 507 2 discriminator 1 view .LVU42
 160 0006 A042     		cmp	r0, r4
 161 0008 0BDD     		ble	.L16
 508:Src/LTC6811.c **** 		address = ((remainder >> 7) ^ data[i]) & 0xFF; //calculate PEC table address
 162              		.loc 1 508 3 is_stmt 1 discriminator 3 view .LVU43
 163              		.loc 1 508 37 is_stmt 0 discriminator 3 view .LVU44
 164 000a 0B5D     		ldrb	r3, [r1, r4]	@ zero_extendqisi2
 165              		.loc 1 508 31 discriminator 3 view .LVU45
 166 000c 83EAD213 		eor	r3, r3, r2, lsr #7
 167              		.loc 1 508 11 discriminator 3 view .LVU46
 168 0010 DBB2     		uxtb	r3, r3
 169              	.LVL15:
 509:Src/LTC6811.c **** 		remainder = (remainder << 8) ^ pec15Table[address];
 170              		.loc 1 509 3 is_stmt 1 discriminator 3 view .LVU47
 171              		.loc 1 509 44 is_stmt 0 discriminator 3 view .LVU48
 172 0012 064D     		ldr	r5, .L17
 173 0014 35F91330 		ldrsh	r3, [r5, r3, lsl #1]
 174              	.LVL16:
 175              		.loc 1 509 32 discriminator 3 view .LVU49
 176 0018 83EA0222 		eor	r2, r3, r2, lsl #8
 177              	.LVL17:
 178              		.loc 1 509 13 discriminator 3 view .LVU50
 179 001c 92B2     		uxth	r2, r2
 180              	.LVL18:
 507:Src/LTC6811.c **** 		address = ((remainder >> 7) ^ data[i]) & 0xFF; //calculate PEC table address
 181              		.loc 1 507 28 discriminator 3 view .LVU51
 182 001e 0134     		adds	r4, r4, #1
 183              	.LVL19:
 507:Src/LTC6811.c **** 		address = ((remainder >> 7) ^ data[i]) & 0xFF; //calculate PEC table address
 184              		.loc 1 507 28 discriminator 3 view .LVU52
 185 0020 F1E7     		b	.L13
 186              	.L16:
 507:Src/LTC6811.c **** 		address = ((remainder >> 7) ^ data[i]) & 0xFF; //calculate PEC table address
 187              		.loc 1 507 28 discriminator 3 view .LVU53
 188              	.LBE6:
 510:Src/LTC6811.c **** 	}
 511:Src/LTC6811.c **** 	
 512:Src/LTC6811.c **** 	return (remainder * 2); //The CRC15 has a 0 in the LSB so the final value must be multiplied by 2
 189              		.loc 1 512 2 is_stmt 1 view .LVU54
 190              		.loc 1 512 20 is_stmt 0 view .LVU55
 191 0022 5000     		lsls	r0, r2, #1
 192              	.LVL20:
 193              		.loc 1 512 20 view .LVU56
 194 0024 80B2     		uxth	r0, r0
 513:Src/LTC6811.c **** };
 195              		.loc 1 513 1 view .LVU57
 196 0026 30BC     		pop	{r4, r5}
 197              	.LCFI1:
 198              		.cfi_restore 5
 199              		.cfi_restore 4
 200              		.cfi_def_cfa_offset 0
 201              	.LVL21:
 202              		.loc 1 513 1 view .LVU58
 203 0028 7047     		bx	lr
 204              	.L18:
 205 002a 00BF     		.align	2
 206              	.L17:
ARM GAS  /tmp/ccKppKJD.s 			page 14


 207 002c 00000000 		.word	pec15Table
 208              		.cfi_endproc
 209              	.LFE78:
 211              		.section	.text.writeConfig,"ax",%progbits
 212              		.align	1
 213              		.global	writeConfig
 214              		.syntax unified
 215              		.thumb
 216              		.thumb_func
 217              		.fpu softvfp
 219              	writeConfig:
 220              	.LVL22:
 221              	.LFB67:
 118:Src/LTC6811.c **** 	
 222              		.loc 1 118 64 is_stmt 1 view -0
 223              		.cfi_startproc
 224              		@ args = 32, pretend = 16, frame = 0
 225              		@ frame_needed = 0, uses_anonymous_args = 0
 118:Src/LTC6811.c **** 	
 226              		.loc 1 118 64 is_stmt 0 view .LVU60
 227 0000 84B0     		sub	sp, sp, #16
 228              	.LCFI2:
 229              		.cfi_def_cfa_offset 16
 230 0002 2DE9F047 		push	{r4, r5, r6, r7, r8, r9, r10, lr}
 231              	.LCFI3:
 232              		.cfi_def_cfa_offset 48
 233              		.cfi_offset 4, -48
 234              		.cfi_offset 5, -44
 235              		.cfi_offset 6, -40
 236              		.cfi_offset 7, -36
 237              		.cfi_offset 8, -32
 238              		.cfi_offset 9, -28
 239              		.cfi_offset 10, -24
 240              		.cfi_offset 14, -20
 241 0006 08AC     		add	r4, sp, #32
 242 0008 84E80F00 		stm	r4, {r0, r1, r2, r3}
 243 000c 9DF83CA0 		ldrb	r10, [sp, #60]	@ zero_extendqisi2
 127:Src/LTC6811.c **** 	uint8_t *cmd;
 244              		.loc 1 127 2 is_stmt 1 view .LVU61
 128:Src/LTC6811.c **** 	uint8_t cmd_len = 12;
 245              		.loc 1 128 2 view .LVU62
 129:Src/LTC6811.c **** 	uint16_t PEC_return;
 246              		.loc 1 129 2 view .LVU63
 247              	.LVL23:
 130:Src/LTC6811.c **** 	
 248              		.loc 1 130 2 view .LVU64
 132:Src/LTC6811.c **** 	
 249              		.loc 1 132 2 view .LVU65
 132:Src/LTC6811.c **** 	
 250              		.loc 1 132 19 is_stmt 0 view .LVU66
 251 0010 0C20     		movs	r0, #12
 252 0012 FFF7FEFF 		bl	malloc
 253              	.LVL24:
 254 0016 0446     		mov	r4, r0
 255              	.LVL25:
 134:Src/LTC6811.c **** 	config[1] = 0xFF;
 256              		.loc 1 134 2 is_stmt 1 view .LVU67
ARM GAS  /tmp/ccKppKJD.s 			page 15


 135:Src/LTC6811.c **** 	//config[0] = (uint8_t) (cfg.GPIO5PulldownOff << 7) | (cfg.GPIO4PulldownOff << 6) | (cfg.GPIO3Pull
 257              		.loc 1 135 2 view .LVU68
 138:Src/LTC6811.c **** 	config[3] = (uint8_t) ((cfg.OvervoltageComparisonVoltage >> 4) & 0xFF);
 258              		.loc 1 138 2 view .LVU69
 138:Src/LTC6811.c **** 	config[3] = (uint8_t) ((cfg.OvervoltageComparisonVoltage >> 4) & 0xFF);
 259              		.loc 1 138 29 is_stmt 0 view .LVU70
 260 0018 BDF82A90 		ldrh	r9, [sp, #42]
 138:Src/LTC6811.c **** 	config[3] = (uint8_t) ((cfg.OvervoltageComparisonVoltage >> 4) & 0xFF);
 261              		.loc 1 138 59 view .LVU71
 262 001c 4FEA0918 		lsl	r8, r9, #4
 138:Src/LTC6811.c **** 	config[3] = (uint8_t) ((cfg.OvervoltageComparisonVoltage >> 4) & 0xFF);
 263              		.loc 1 138 14 view .LVU72
 264 0020 4FFA88F8 		sxtb	r8, r8
 138:Src/LTC6811.c **** 	config[3] = (uint8_t) ((cfg.OvervoltageComparisonVoltage >> 4) & 0xFF);
 265              		.loc 1 138 80 view .LVU73
 266 0024 BDF82830 		ldrh	r3, [sp, #40]
 138:Src/LTC6811.c **** 	config[3] = (uint8_t) ((cfg.OvervoltageComparisonVoltage >> 4) & 0xFF);
 267              		.loc 1 138 117 view .LVU74
 268 0028 C3F30323 		ubfx	r3, r3, #8, #4
 138:Src/LTC6811.c **** 	config[3] = (uint8_t) ((cfg.OvervoltageComparisonVoltage >> 4) & 0xFF);
 269              		.loc 1 138 73 view .LVU75
 270 002c 48EA0308 		orr	r8, r8, r3
 271 0030 5FFA88F8 		uxtb	r8, r8
 139:Src/LTC6811.c **** 	config[4] = (uint8_t) (cfg.DischargeCell8 << 7) | (cfg.DischargeCell7 << 6) | (cfg.DischargeCell6 
 272              		.loc 1 139 2 is_stmt 1 view .LVU76
 139:Src/LTC6811.c **** 	config[4] = (uint8_t) (cfg.DischargeCell8 << 7) | (cfg.DischargeCell7 << 6) | (cfg.DischargeCell6 
 273              		.loc 1 139 14 is_stmt 0 view .LVU77
 274 0034 C9F30719 		ubfx	r9, r9, #4, #8
 140:Src/LTC6811.c **** 	config[5] = (uint8_t) ((cfg.DischargeTimeoutValue << 4) & 0xF0) | (cfg.DischargeCell12 << 3) | (cf
 275              		.loc 1 140 2 is_stmt 1 view .LVU78
 140:Src/LTC6811.c **** 	config[5] = (uint8_t) ((cfg.DischargeTimeoutValue << 4) & 0xF0) | (cfg.DischargeCell12 << 3) | (cf
 276              		.loc 1 140 28 is_stmt 0 view .LVU79
 277 0038 9DF83360 		ldrb	r6, [sp, #51]	@ zero_extendqisi2
 140:Src/LTC6811.c **** 	config[5] = (uint8_t) ((cfg.DischargeTimeoutValue << 4) & 0xF0) | (cfg.DischargeCell12 << 3) | (cf
 278              		.loc 1 140 14 view .LVU80
 279 003c F601     		lsls	r6, r6, #7
 280 003e 76B2     		sxtb	r6, r6
 140:Src/LTC6811.c **** 	config[5] = (uint8_t) ((cfg.DischargeTimeoutValue << 4) & 0xF0) | (cfg.DischargeCell12 << 3) | (cf
 281              		.loc 1 140 56 view .LVU81
 282 0040 9DF83230 		ldrb	r3, [sp, #50]	@ zero_extendqisi2
 140:Src/LTC6811.c **** 	config[5] = (uint8_t) ((cfg.DischargeTimeoutValue << 4) & 0xF0) | (cfg.DischargeCell12 << 3) | (cf
 283              		.loc 1 140 50 view .LVU82
 284 0044 46EA8316 		orr	r6, r6, r3, lsl #6
 285 0048 76B2     		sxtb	r6, r6
 140:Src/LTC6811.c **** 	config[5] = (uint8_t) ((cfg.DischargeTimeoutValue << 4) & 0xF0) | (cfg.DischargeCell12 << 3) | (cf
 286              		.loc 1 140 84 view .LVU83
 287 004a 9DF83130 		ldrb	r3, [sp, #49]	@ zero_extendqisi2
 140:Src/LTC6811.c **** 	config[5] = (uint8_t) ((cfg.DischargeTimeoutValue << 4) & 0xF0) | (cfg.DischargeCell12 << 3) | (cf
 288              		.loc 1 140 78 view .LVU84
 289 004e 46EA4316 		orr	r6, r6, r3, lsl #5
 290 0052 76B2     		sxtb	r6, r6
 140:Src/LTC6811.c **** 	config[5] = (uint8_t) ((cfg.DischargeTimeoutValue << 4) & 0xF0) | (cfg.DischargeCell12 << 3) | (cf
 291              		.loc 1 140 112 view .LVU85
 292 0054 9DF83030 		ldrb	r3, [sp, #48]	@ zero_extendqisi2
 140:Src/LTC6811.c **** 	config[5] = (uint8_t) ((cfg.DischargeTimeoutValue << 4) & 0xF0) | (cfg.DischargeCell12 << 3) | (cf
 293              		.loc 1 140 106 view .LVU86
 294 0058 46EA0316 		orr	r6, r6, r3, lsl #4
ARM GAS  /tmp/ccKppKJD.s 			page 16


 295 005c 76B2     		sxtb	r6, r6
 140:Src/LTC6811.c **** 	config[5] = (uint8_t) ((cfg.DischargeTimeoutValue << 4) & 0xF0) | (cfg.DischargeCell12 << 3) | (cf
 296              		.loc 1 140 140 view .LVU87
 297 005e 9DF82F30 		ldrb	r3, [sp, #47]	@ zero_extendqisi2
 140:Src/LTC6811.c **** 	config[5] = (uint8_t) ((cfg.DischargeTimeoutValue << 4) & 0xF0) | (cfg.DischargeCell12 << 3) | (cf
 298              		.loc 1 140 134 view .LVU88
 299 0062 46EAC306 		orr	r6, r6, r3, lsl #3
 300 0066 76B2     		sxtb	r6, r6
 140:Src/LTC6811.c **** 	config[5] = (uint8_t) ((cfg.DischargeTimeoutValue << 4) & 0xF0) | (cfg.DischargeCell12 << 3) | (cf
 301              		.loc 1 140 168 view .LVU89
 302 0068 9DF82E30 		ldrb	r3, [sp, #46]	@ zero_extendqisi2
 140:Src/LTC6811.c **** 	config[5] = (uint8_t) ((cfg.DischargeTimeoutValue << 4) & 0xF0) | (cfg.DischargeCell12 << 3) | (cf
 303              		.loc 1 140 162 view .LVU90
 304 006c 46EA8306 		orr	r6, r6, r3, lsl #2
 305 0070 76B2     		sxtb	r6, r6
 140:Src/LTC6811.c **** 	config[5] = (uint8_t) ((cfg.DischargeTimeoutValue << 4) & 0xF0) | (cfg.DischargeCell12 << 3) | (cf
 306              		.loc 1 140 196 view .LVU91
 307 0072 9DF82D30 		ldrb	r3, [sp, #45]	@ zero_extendqisi2
 140:Src/LTC6811.c **** 	config[5] = (uint8_t) ((cfg.DischargeTimeoutValue << 4) & 0xF0) | (cfg.DischargeCell12 << 3) | (cf
 308              		.loc 1 140 190 view .LVU92
 309 0076 46EA4306 		orr	r6, r6, r3, lsl #1
 310 007a 76B2     		sxtb	r6, r6
 140:Src/LTC6811.c **** 	config[5] = (uint8_t) ((cfg.DischargeTimeoutValue << 4) & 0xF0) | (cfg.DischargeCell12 << 3) | (cf
 311              		.loc 1 140 224 view .LVU93
 312 007c 9DF92C30 		ldrsb	r3, [sp, #44]
 140:Src/LTC6811.c **** 	config[5] = (uint8_t) ((cfg.DischargeTimeoutValue << 4) & 0xF0) | (cfg.DischargeCell12 << 3) | (cf
 313              		.loc 1 140 218 view .LVU94
 314 0080 1E43     		orrs	r6, r6, r3
 315 0082 F6B2     		uxtb	r6, r6
 141:Src/LTC6811.c **** 	
 316              		.loc 1 141 2 is_stmt 1 view .LVU95
 141:Src/LTC6811.c **** 	
 317              		.loc 1 141 29 is_stmt 0 view .LVU96
 318 0084 9DF83870 		ldrb	r7, [sp, #56]	@ zero_extendqisi2
 141:Src/LTC6811.c **** 	
 319              		.loc 1 141 52 view .LVU97
 320 0088 3F01     		lsls	r7, r7, #4
 141:Src/LTC6811.c **** 	
 321              		.loc 1 141 14 view .LVU98
 322 008a 7FB2     		sxtb	r7, r7
 141:Src/LTC6811.c **** 	
 323              		.loc 1 141 72 view .LVU99
 324 008c 9DF83730 		ldrb	r3, [sp, #55]	@ zero_extendqisi2
 141:Src/LTC6811.c **** 	
 325              		.loc 1 141 66 view .LVU100
 326 0090 47EAC307 		orr	r7, r7, r3, lsl #3
 327 0094 7FB2     		sxtb	r7, r7
 141:Src/LTC6811.c **** 	
 328              		.loc 1 141 101 view .LVU101
 329 0096 9DF83630 		ldrb	r3, [sp, #54]	@ zero_extendqisi2
 141:Src/LTC6811.c **** 	
 330              		.loc 1 141 95 view .LVU102
 331 009a 47EA8307 		orr	r7, r7, r3, lsl #2
 332 009e 7FB2     		sxtb	r7, r7
 141:Src/LTC6811.c **** 	
 333              		.loc 1 141 130 view .LVU103
 334 00a0 9DF83530 		ldrb	r3, [sp, #53]	@ zero_extendqisi2
ARM GAS  /tmp/ccKppKJD.s 			page 17


 141:Src/LTC6811.c **** 	
 335              		.loc 1 141 124 view .LVU104
 336 00a4 47EA4307 		orr	r7, r7, r3, lsl #1
 337 00a8 7FB2     		sxtb	r7, r7
 141:Src/LTC6811.c **** 	
 338              		.loc 1 141 159 view .LVU105
 339 00aa 9DF93430 		ldrsb	r3, [sp, #52]
 141:Src/LTC6811.c **** 	
 340              		.loc 1 141 153 view .LVU106
 341 00ae 1F43     		orrs	r7, r7, r3
 342 00b0 FFB2     		uxtb	r7, r7
 143:Src/LTC6811.c **** 	
 343              		.loc 1 143 2 is_stmt 1 view .LVU107
 344              	.LBB7:
 143:Src/LTC6811.c **** 	
 345              		.loc 1 143 7 view .LVU108
 346              	.LVL26:
 143:Src/LTC6811.c **** 	
 347              		.loc 1 143 15 is_stmt 0 view .LVU109
 348 00b2 0025     		movs	r5, #0
 349              	.LVL27:
 350              	.L20:
 143:Src/LTC6811.c **** 	
 351              		.loc 1 143 2 discriminator 1 view .LVU110
 352 00b4 5545     		cmp	r5, r10
 353 00b6 25D2     		bcs	.L23
 145:Src/LTC6811.c **** 		cmd[1] = (uint8_t) (WriteConfigurationRegisterGroup & 0xFF);
 354              		.loc 1 145 3 is_stmt 1 discriminator 3 view .LVU111
 145:Src/LTC6811.c **** 		cmd[1] = (uint8_t) (WriteConfigurationRegisterGroup & 0xFF);
 355              		.loc 1 145 43 is_stmt 0 discriminator 3 view .LVU112
 356 00b8 EB00     		lsls	r3, r5, #3
 145:Src/LTC6811.c **** 		cmd[1] = (uint8_t) (WriteConfigurationRegisterGroup & 0xFF);
 357              		.loc 1 145 49 discriminator 3 view .LVU113
 358 00ba 03F07803 		and	r3, r3, #120
 145:Src/LTC6811.c **** 		cmd[1] = (uint8_t) (WriteConfigurationRegisterGroup & 0xFF);
 359              		.loc 1 145 12 discriminator 3 view .LVU114
 360 00be 43F08003 		orr	r3, r3, #128
 145:Src/LTC6811.c **** 		cmd[1] = (uint8_t) (WriteConfigurationRegisterGroup & 0xFF);
 361              		.loc 1 145 10 discriminator 3 view .LVU115
 362 00c2 2370     		strb	r3, [r4]
 146:Src/LTC6811.c **** 		
 363              		.loc 1 146 3 is_stmt 1 discriminator 3 view .LVU116
 146:Src/LTC6811.c **** 		
 364              		.loc 1 146 10 is_stmt 0 discriminator 3 view .LVU117
 365 00c4 0123     		movs	r3, #1
 366 00c6 6370     		strb	r3, [r4, #1]
 148:Src/LTC6811.c **** 		
 367              		.loc 1 148 3 is_stmt 1 discriminator 3 view .LVU118
 148:Src/LTC6811.c **** 		
 368              		.loc 1 148 16 is_stmt 0 discriminator 3 view .LVU119
 369 00c8 2146     		mov	r1, r4
 370 00ca 0220     		movs	r0, #2
 371 00cc FFF7FEFF 		bl	calculatePEC
 372              	.LVL28:
 150:Src/LTC6811.c **** 		cmd[3] = PEC_return & 0xFF;
 373              		.loc 1 150 3 is_stmt 1 discriminator 3 view .LVU120
 150:Src/LTC6811.c **** 		cmd[3] = PEC_return & 0xFF;
ARM GAS  /tmp/ccKppKJD.s 			page 18


 374              		.loc 1 150 10 is_stmt 0 discriminator 3 view .LVU121
 375 00d0 030A     		lsrs	r3, r0, #8
 376 00d2 A370     		strb	r3, [r4, #2]
 151:Src/LTC6811.c **** 	
 377              		.loc 1 151 3 is_stmt 1 discriminator 3 view .LVU122
 151:Src/LTC6811.c **** 	
 378              		.loc 1 151 10 is_stmt 0 discriminator 3 view .LVU123
 379 00d4 E070     		strb	r0, [r4, #3]
 153:Src/LTC6811.c **** 		cmd[5] = config[1];
 380              		.loc 1 153 3 is_stmt 1 discriminator 3 view .LVU124
 153:Src/LTC6811.c **** 		cmd[5] = config[1];
 381              		.loc 1 153 10 is_stmt 0 discriminator 3 view .LVU125
 382 00d6 FF23     		movs	r3, #255
 383 00d8 2371     		strb	r3, [r4, #4]
 154:Src/LTC6811.c **** 		cmd[6] = config[2];
 384              		.loc 1 154 3 is_stmt 1 discriminator 3 view .LVU126
 154:Src/LTC6811.c **** 		cmd[6] = config[2];
 385              		.loc 1 154 10 is_stmt 0 discriminator 3 view .LVU127
 386 00da 6371     		strb	r3, [r4, #5]
 155:Src/LTC6811.c **** 		cmd[7] = config[3];
 387              		.loc 1 155 3 is_stmt 1 discriminator 3 view .LVU128
 155:Src/LTC6811.c **** 		cmd[7] = config[3];
 388              		.loc 1 155 10 is_stmt 0 discriminator 3 view .LVU129
 389 00dc 84F80680 		strb	r8, [r4, #6]
 156:Src/LTC6811.c **** 		cmd[8] = config[4];
 390              		.loc 1 156 3 is_stmt 1 discriminator 3 view .LVU130
 156:Src/LTC6811.c **** 		cmd[8] = config[4];
 391              		.loc 1 156 10 is_stmt 0 discriminator 3 view .LVU131
 392 00e0 84F80790 		strb	r9, [r4, #7]
 157:Src/LTC6811.c **** 		cmd[9] = config[5];
 393              		.loc 1 157 3 is_stmt 1 discriminator 3 view .LVU132
 157:Src/LTC6811.c **** 		cmd[9] = config[5];
 394              		.loc 1 157 10 is_stmt 0 discriminator 3 view .LVU133
 395 00e4 2672     		strb	r6, [r4, #8]
 158:Src/LTC6811.c **** 		
 396              		.loc 1 158 3 is_stmt 1 discriminator 3 view .LVU134
 158:Src/LTC6811.c **** 		
 397              		.loc 1 158 10 is_stmt 0 discriminator 3 view .LVU135
 398 00e6 6772     		strb	r7, [r4, #9]
 160:Src/LTC6811.c **** 	
 399              		.loc 1 160 3 is_stmt 1 discriminator 3 view .LVU136
 160:Src/LTC6811.c **** 	
 400              		.loc 1 160 16 is_stmt 0 discriminator 3 view .LVU137
 401 00e8 211D     		adds	r1, r4, #4
 402 00ea 0620     		movs	r0, #6
 403              	.LVL29:
 160:Src/LTC6811.c **** 	
 404              		.loc 1 160 16 discriminator 3 view .LVU138
 405 00ec FFF7FEFF 		bl	calculatePEC
 406              	.LVL30:
 162:Src/LTC6811.c **** 		cmd[11] = PEC_return & 0xFF;
 407              		.loc 1 162 3 is_stmt 1 discriminator 3 view .LVU139
 162:Src/LTC6811.c **** 		cmd[11] = PEC_return & 0xFF;
 408              		.loc 1 162 11 is_stmt 0 discriminator 3 view .LVU140
 409 00f0 030A     		lsrs	r3, r0, #8
 410 00f2 A372     		strb	r3, [r4, #10]
 163:Src/LTC6811.c **** 		
ARM GAS  /tmp/ccKppKJD.s 			page 19


 411              		.loc 1 163 3 is_stmt 1 discriminator 3 view .LVU141
 163:Src/LTC6811.c **** 		
 412              		.loc 1 163 11 is_stmt 0 discriminator 3 view .LVU142
 413 00f4 E072     		strb	r0, [r4, #11]
 165:Src/LTC6811.c **** 		
 414              		.loc 1 165 3 is_stmt 1 discriminator 3 view .LVU143
 415 00f6 0C21     		movs	r1, #12
 416 00f8 2046     		mov	r0, r4
 417              	.LVL31:
 165:Src/LTC6811.c **** 		
 418              		.loc 1 165 3 is_stmt 0 discriminator 3 view .LVU144
 419 00fa FFF7FEFF 		bl	SPIWrite
 420              	.LVL32:
 143:Src/LTC6811.c **** 	
 421              		.loc 1 143 67 discriminator 3 view .LVU145
 422 00fe 0135     		adds	r5, r5, #1
 423              	.LVL33:
 143:Src/LTC6811.c **** 	
 424              		.loc 1 143 67 discriminator 3 view .LVU146
 425 0100 EDB2     		uxtb	r5, r5
 426              	.LVL34:
 143:Src/LTC6811.c **** 	
 427              		.loc 1 143 67 discriminator 3 view .LVU147
 428 0102 D7E7     		b	.L20
 429              	.L23:
 143:Src/LTC6811.c **** 	
 430              		.loc 1 143 67 discriminator 3 view .LVU148
 431              	.LBE7:
 170:Src/LTC6811.c **** 	
 432              		.loc 1 170 2 is_stmt 1 view .LVU149
 433 0104 2046     		mov	r0, r4
 434 0106 FFF7FEFF 		bl	free
 435              	.LVL35:
 172:Src/LTC6811.c **** 
 436              		.loc 1 172 1 is_stmt 0 view .LVU150
 437 010a BDE8F047 		pop	{r4, r5, r6, r7, r8, r9, r10, lr}
 438              	.LCFI4:
 439              		.cfi_restore 14
 440              		.cfi_restore 10
 441              		.cfi_restore 9
 442              		.cfi_restore 8
 443              		.cfi_restore 7
 444              		.cfi_restore 6
 445              		.cfi_restore 5
 446              		.cfi_restore 4
 447              		.cfi_def_cfa_offset 16
 448              	.LVL36:
 172:Src/LTC6811.c **** 
 449              		.loc 1 172 1 view .LVU151
 450 010e 04B0     		add	sp, sp, #16
 451              	.LCFI5:
 452              		.cfi_def_cfa_offset 0
 453 0110 7047     		bx	lr
 454              		.cfi_endproc
 455              	.LFE67:
 457              		.section	.text.setDischarge,"ax",%progbits
 458              		.align	1
ARM GAS  /tmp/ccKppKJD.s 			page 20


 459              		.global	setDischarge
 460              		.syntax unified
 461              		.thumb
 462              		.thumb_func
 463              		.fpu softvfp
 465              	setDischarge:
 466              	.LVL37:
 467              	.LFB68:
 183:Src/LTC6811.c **** 	if (ctd[0] == true) { cfg->DischargeCell1 = 1; }
 468              		.loc 1 183 80 is_stmt 1 view -0
 469              		.cfi_startproc
 470              		@ args = 0, pretend = 0, frame = 0
 471              		@ frame_needed = 0, uses_anonymous_args = 0
 183:Src/LTC6811.c **** 	if (ctd[0] == true) { cfg->DischargeCell1 = 1; }
 472              		.loc 1 183 80 is_stmt 0 view .LVU153
 473 0000 10B5     		push	{r4, lr}
 474              	.LCFI6:
 475              		.cfi_def_cfa_offset 8
 476              		.cfi_offset 4, -8
 477              		.cfi_offset 14, -4
 478 0002 84B0     		sub	sp, sp, #16
 479              	.LCFI7:
 480              		.cfi_def_cfa_offset 24
 481 0004 0B46     		mov	r3, r1
 184:Src/LTC6811.c **** 	else				{ cfg->DischargeCell1 = 0; }
 482              		.loc 1 184 2 is_stmt 1 view .LVU154
 184:Src/LTC6811.c **** 	else				{ cfg->DischargeCell1 = 0; }
 483              		.loc 1 184 9 is_stmt 0 view .LVU155
 484 0006 0178     		ldrb	r1, [r0]	@ zero_extendqisi2
 485              	.LVL38:
 184:Src/LTC6811.c **** 	else				{ cfg->DischargeCell1 = 0; }
 486              		.loc 1 184 5 view .LVU156
 487 0008 0029     		cmp	r1, #0
 488 000a 42D0     		beq	.L25
 184:Src/LTC6811.c **** 	else				{ cfg->DischargeCell1 = 0; }
 489              		.loc 1 184 24 is_stmt 1 discriminator 1 view .LVU157
 184:Src/LTC6811.c **** 	else				{ cfg->DischargeCell1 = 0; }
 490              		.loc 1 184 44 is_stmt 0 discriminator 1 view .LVU158
 491 000c 0121     		movs	r1, #1
 492 000e 1973     		strb	r1, [r3, #12]
 493              	.L26:
 187:Src/LTC6811.c **** 	else				{ cfg->DischargeCell2 = 0; }
 494              		.loc 1 187 2 is_stmt 1 view .LVU159
 187:Src/LTC6811.c **** 	else				{ cfg->DischargeCell2 = 0; }
 495              		.loc 1 187 9 is_stmt 0 view .LVU160
 496 0010 4178     		ldrb	r1, [r0, #1]	@ zero_extendqisi2
 187:Src/LTC6811.c **** 	else				{ cfg->DischargeCell2 = 0; }
 497              		.loc 1 187 5 view .LVU161
 498 0012 0029     		cmp	r1, #0
 499 0014 40D0     		beq	.L27
 187:Src/LTC6811.c **** 	else				{ cfg->DischargeCell2 = 0; }
 500              		.loc 1 187 24 is_stmt 1 discriminator 1 view .LVU162
 187:Src/LTC6811.c **** 	else				{ cfg->DischargeCell2 = 0; }
 501              		.loc 1 187 44 is_stmt 0 discriminator 1 view .LVU163
 502 0016 0121     		movs	r1, #1
 503 0018 5973     		strb	r1, [r3, #13]
 504              	.L28:
ARM GAS  /tmp/ccKppKJD.s 			page 21


 190:Src/LTC6811.c **** 	else				{ cfg->DischargeCell3 = 0; }
 505              		.loc 1 190 2 is_stmt 1 view .LVU164
 190:Src/LTC6811.c **** 	else				{ cfg->DischargeCell3 = 0; }
 506              		.loc 1 190 9 is_stmt 0 view .LVU165
 507 001a 8178     		ldrb	r1, [r0, #2]	@ zero_extendqisi2
 190:Src/LTC6811.c **** 	else				{ cfg->DischargeCell3 = 0; }
 508              		.loc 1 190 5 view .LVU166
 509 001c 0029     		cmp	r1, #0
 510 001e 3ED0     		beq	.L29
 190:Src/LTC6811.c **** 	else				{ cfg->DischargeCell3 = 0; }
 511              		.loc 1 190 24 is_stmt 1 discriminator 1 view .LVU167
 190:Src/LTC6811.c **** 	else				{ cfg->DischargeCell3 = 0; }
 512              		.loc 1 190 44 is_stmt 0 discriminator 1 view .LVU168
 513 0020 0121     		movs	r1, #1
 514 0022 9973     		strb	r1, [r3, #14]
 515              	.L30:
 193:Src/LTC6811.c **** 	else				{ cfg->DischargeCell4 = 0; }
 516              		.loc 1 193 2 is_stmt 1 view .LVU169
 193:Src/LTC6811.c **** 	else				{ cfg->DischargeCell4 = 0; }
 517              		.loc 1 193 9 is_stmt 0 view .LVU170
 518 0024 C178     		ldrb	r1, [r0, #3]	@ zero_extendqisi2
 193:Src/LTC6811.c **** 	else				{ cfg->DischargeCell4 = 0; }
 519              		.loc 1 193 5 view .LVU171
 520 0026 0029     		cmp	r1, #0
 521 0028 3CD0     		beq	.L31
 193:Src/LTC6811.c **** 	else				{ cfg->DischargeCell4 = 0; }
 522              		.loc 1 193 24 is_stmt 1 discriminator 1 view .LVU172
 193:Src/LTC6811.c **** 	else				{ cfg->DischargeCell4 = 0; }
 523              		.loc 1 193 44 is_stmt 0 discriminator 1 view .LVU173
 524 002a 0121     		movs	r1, #1
 525 002c D973     		strb	r1, [r3, #15]
 526              	.L32:
 196:Src/LTC6811.c **** 	else				{ cfg->DischargeCell5 = 0; }
 527              		.loc 1 196 2 is_stmt 1 view .LVU174
 196:Src/LTC6811.c **** 	else				{ cfg->DischargeCell5 = 0; }
 528              		.loc 1 196 9 is_stmt 0 view .LVU175
 529 002e 0179     		ldrb	r1, [r0, #4]	@ zero_extendqisi2
 196:Src/LTC6811.c **** 	else				{ cfg->DischargeCell5 = 0; }
 530              		.loc 1 196 5 view .LVU176
 531 0030 0029     		cmp	r1, #0
 532 0032 3AD0     		beq	.L33
 196:Src/LTC6811.c **** 	else				{ cfg->DischargeCell5 = 0; }
 533              		.loc 1 196 24 is_stmt 1 discriminator 1 view .LVU177
 196:Src/LTC6811.c **** 	else				{ cfg->DischargeCell5 = 0; }
 534              		.loc 1 196 44 is_stmt 0 discriminator 1 view .LVU178
 535 0034 0121     		movs	r1, #1
 536 0036 1974     		strb	r1, [r3, #16]
 537              	.L34:
 199:Src/LTC6811.c **** 	else				{ cfg->DischargeCell6 = 0; }
 538              		.loc 1 199 2 is_stmt 1 view .LVU179
 199:Src/LTC6811.c **** 	else				{ cfg->DischargeCell6 = 0; }
 539              		.loc 1 199 9 is_stmt 0 view .LVU180
 540 0038 4179     		ldrb	r1, [r0, #5]	@ zero_extendqisi2
 199:Src/LTC6811.c **** 	else				{ cfg->DischargeCell6 = 0; }
 541              		.loc 1 199 5 view .LVU181
 542 003a 0029     		cmp	r1, #0
 543 003c 38D0     		beq	.L35
ARM GAS  /tmp/ccKppKJD.s 			page 22


 199:Src/LTC6811.c **** 	else				{ cfg->DischargeCell6 = 0; }
 544              		.loc 1 199 24 is_stmt 1 discriminator 1 view .LVU182
 199:Src/LTC6811.c **** 	else				{ cfg->DischargeCell6 = 0; }
 545              		.loc 1 199 44 is_stmt 0 discriminator 1 view .LVU183
 546 003e 0121     		movs	r1, #1
 547 0040 5974     		strb	r1, [r3, #17]
 548              	.L36:
 202:Src/LTC6811.c **** 	else				{ cfg->DischargeCell7 = 0; }
 549              		.loc 1 202 2 is_stmt 1 view .LVU184
 202:Src/LTC6811.c **** 	else				{ cfg->DischargeCell7 = 0; }
 550              		.loc 1 202 9 is_stmt 0 view .LVU185
 551 0042 8179     		ldrb	r1, [r0, #6]	@ zero_extendqisi2
 202:Src/LTC6811.c **** 	else				{ cfg->DischargeCell7 = 0; }
 552              		.loc 1 202 5 view .LVU186
 553 0044 B9B3     		cbz	r1, .L37
 202:Src/LTC6811.c **** 	else				{ cfg->DischargeCell7 = 0; }
 554              		.loc 1 202 24 is_stmt 1 discriminator 1 view .LVU187
 202:Src/LTC6811.c **** 	else				{ cfg->DischargeCell7 = 0; }
 555              		.loc 1 202 44 is_stmt 0 discriminator 1 view .LVU188
 556 0046 0121     		movs	r1, #1
 557 0048 9974     		strb	r1, [r3, #18]
 558              	.L38:
 205:Src/LTC6811.c **** 	else				{ cfg->DischargeCell8 = 0; }
 559              		.loc 1 205 2 is_stmt 1 view .LVU189
 205:Src/LTC6811.c **** 	else				{ cfg->DischargeCell8 = 0; }
 560              		.loc 1 205 9 is_stmt 0 view .LVU190
 561 004a C179     		ldrb	r1, [r0, #7]	@ zero_extendqisi2
 205:Src/LTC6811.c **** 	else				{ cfg->DischargeCell8 = 0; }
 562              		.loc 1 205 5 view .LVU191
 563 004c B1B3     		cbz	r1, .L39
 205:Src/LTC6811.c **** 	else				{ cfg->DischargeCell8 = 0; }
 564              		.loc 1 205 24 is_stmt 1 discriminator 1 view .LVU192
 205:Src/LTC6811.c **** 	else				{ cfg->DischargeCell8 = 0; }
 565              		.loc 1 205 44 is_stmt 0 discriminator 1 view .LVU193
 566 004e 0121     		movs	r1, #1
 567 0050 D974     		strb	r1, [r3, #19]
 568              	.L40:
 208:Src/LTC6811.c **** 	else				{ cfg->DischargeCell9 = 0; }
 569              		.loc 1 208 2 is_stmt 1 view .LVU194
 208:Src/LTC6811.c **** 	else				{ cfg->DischargeCell9 = 0; }
 570              		.loc 1 208 9 is_stmt 0 view .LVU195
 571 0052 017A     		ldrb	r1, [r0, #8]	@ zero_extendqisi2
 208:Src/LTC6811.c **** 	else				{ cfg->DischargeCell9 = 0; }
 572              		.loc 1 208 5 view .LVU196
 573 0054 A9B3     		cbz	r1, .L41
 208:Src/LTC6811.c **** 	else				{ cfg->DischargeCell9 = 0; }
 574              		.loc 1 208 24 is_stmt 1 discriminator 1 view .LVU197
 208:Src/LTC6811.c **** 	else				{ cfg->DischargeCell9 = 0; }
 575              		.loc 1 208 44 is_stmt 0 discriminator 1 view .LVU198
 576 0056 0121     		movs	r1, #1
 577 0058 1975     		strb	r1, [r3, #20]
 578              	.L42:
 211:Src/LTC6811.c **** 	else				{ cfg->DischargeCell10 = 0; }
 579              		.loc 1 211 2 is_stmt 1 view .LVU199
 211:Src/LTC6811.c **** 	else				{ cfg->DischargeCell10 = 0; }
 580              		.loc 1 211 9 is_stmt 0 view .LVU200
 581 005a 417A     		ldrb	r1, [r0, #9]	@ zero_extendqisi2
ARM GAS  /tmp/ccKppKJD.s 			page 23


 211:Src/LTC6811.c **** 	else				{ cfg->DischargeCell10 = 0; }
 582              		.loc 1 211 5 view .LVU201
 583 005c A1B3     		cbz	r1, .L43
 211:Src/LTC6811.c **** 	else				{ cfg->DischargeCell10 = 0; }
 584              		.loc 1 211 24 is_stmt 1 discriminator 1 view .LVU202
 211:Src/LTC6811.c **** 	else				{ cfg->DischargeCell10 = 0; }
 585              		.loc 1 211 45 is_stmt 0 discriminator 1 view .LVU203
 586 005e 0121     		movs	r1, #1
 587 0060 5975     		strb	r1, [r3, #21]
 588              	.L44:
 214:Src/LTC6811.c **** 	else				 { cfg->DischargeCell11 = 0; }
 589              		.loc 1 214 2 is_stmt 1 view .LVU204
 214:Src/LTC6811.c **** 	else				 { cfg->DischargeCell11 = 0; }
 590              		.loc 1 214 9 is_stmt 0 view .LVU205
 591 0062 817A     		ldrb	r1, [r0, #10]	@ zero_extendqisi2
 214:Src/LTC6811.c **** 	else				 { cfg->DischargeCell11 = 0; }
 592              		.loc 1 214 5 view .LVU206
 593 0064 99B3     		cbz	r1, .L45
 214:Src/LTC6811.c **** 	else				 { cfg->DischargeCell11 = 0; }
 594              		.loc 1 214 25 is_stmt 1 discriminator 1 view .LVU207
 214:Src/LTC6811.c **** 	else				 { cfg->DischargeCell11 = 0; }
 595              		.loc 1 214 46 is_stmt 0 discriminator 1 view .LVU208
 596 0066 0121     		movs	r1, #1
 597 0068 9975     		strb	r1, [r3, #22]
 598              	.L46:
 217:Src/LTC6811.c **** 	else				 { cfg->DischargeCell12 = 0; }
 599              		.loc 1 217 2 is_stmt 1 view .LVU209
 217:Src/LTC6811.c **** 	else				 { cfg->DischargeCell12 = 0; }
 600              		.loc 1 217 9 is_stmt 0 view .LVU210
 601 006a C17A     		ldrb	r1, [r0, #11]	@ zero_extendqisi2
 217:Src/LTC6811.c **** 	else				 { cfg->DischargeCell12 = 0; }
 602              		.loc 1 217 5 view .LVU211
 603 006c 91B3     		cbz	r1, .L47
 217:Src/LTC6811.c **** 	else				 { cfg->DischargeCell12 = 0; }
 604              		.loc 1 217 25 is_stmt 1 discriminator 1 view .LVU212
 217:Src/LTC6811.c **** 	else				 { cfg->DischargeCell12 = 0; }
 605              		.loc 1 217 46 is_stmt 0 discriminator 1 view .LVU213
 606 006e 0121     		movs	r1, #1
 607 0070 D975     		strb	r1, [r3, #23]
 608              	.L48:
 220:Src/LTC6811.c **** }
 609              		.loc 1 220 2 is_stmt 1 view .LVU214
 610 0072 0392     		str	r2, [sp, #12]
 611 0074 6C46     		mov	r4, sp
 612 0076 1A46     		mov	r2, r3
 613              	.LVL39:
 220:Src/LTC6811.c **** }
 614              		.loc 1 220 2 is_stmt 0 view .LVU215
 615 0078 52F8100F 		ldr	r0, [r2, #16]!	@ unaligned
 616              	.LVL40:
 220:Src/LTC6811.c **** }
 617              		.loc 1 220 2 view .LVU216
 618 007c 5168     		ldr	r1, [r2, #4]	@ unaligned
 619 007e 9268     		ldr	r2, [r2, #8]	@ unaligned
 620 0080 07C4     		stmia	r4!, {r0, r1, r2}
 621 0082 1868     		ldr	r0, [r3]	@ unaligned
 622 0084 5968     		ldr	r1, [r3, #4]	@ unaligned
ARM GAS  /tmp/ccKppKJD.s 			page 24


 623 0086 9A68     		ldr	r2, [r3, #8]	@ unaligned
 624 0088 DB68     		ldr	r3, [r3, #12]	@ unaligned
 625              	.LVL41:
 220:Src/LTC6811.c **** }
 626              		.loc 1 220 2 view .LVU217
 627 008a FFF7FEFF 		bl	writeConfig
 628              	.LVL42:
 221:Src/LTC6811.c **** 
 629              		.loc 1 221 1 view .LVU218
 630 008e 04B0     		add	sp, sp, #16
 631              	.LCFI8:
 632              		.cfi_remember_state
 633              		.cfi_def_cfa_offset 8
 634              		@ sp needed
 635 0090 10BD     		pop	{r4, pc}
 636              	.LVL43:
 637              	.L25:
 638              	.LCFI9:
 639              		.cfi_restore_state
 185:Src/LTC6811.c **** 	
 640              		.loc 1 185 12 is_stmt 1 view .LVU219
 185:Src/LTC6811.c **** 	
 641              		.loc 1 185 32 is_stmt 0 view .LVU220
 642 0092 0021     		movs	r1, #0
 643 0094 1973     		strb	r1, [r3, #12]
 644 0096 BBE7     		b	.L26
 645              	.L27:
 188:Src/LTC6811.c **** 
 646              		.loc 1 188 12 is_stmt 1 view .LVU221
 188:Src/LTC6811.c **** 
 647              		.loc 1 188 32 is_stmt 0 view .LVU222
 648 0098 0021     		movs	r1, #0
 649 009a 5973     		strb	r1, [r3, #13]
 650 009c BDE7     		b	.L28
 651              	.L29:
 191:Src/LTC6811.c **** 	
 652              		.loc 1 191 12 is_stmt 1 view .LVU223
 191:Src/LTC6811.c **** 	
 653              		.loc 1 191 32 is_stmt 0 view .LVU224
 654 009e 0021     		movs	r1, #0
 655 00a0 9973     		strb	r1, [r3, #14]
 656 00a2 BFE7     		b	.L30
 657              	.L31:
 194:Src/LTC6811.c **** 	
 658              		.loc 1 194 12 is_stmt 1 view .LVU225
 194:Src/LTC6811.c **** 	
 659              		.loc 1 194 32 is_stmt 0 view .LVU226
 660 00a4 0021     		movs	r1, #0
 661 00a6 D973     		strb	r1, [r3, #15]
 662 00a8 C1E7     		b	.L32
 663              	.L33:
 197:Src/LTC6811.c **** 
 664              		.loc 1 197 12 is_stmt 1 view .LVU227
 197:Src/LTC6811.c **** 
 665              		.loc 1 197 32 is_stmt 0 view .LVU228
 666 00aa 0021     		movs	r1, #0
 667 00ac 1974     		strb	r1, [r3, #16]
ARM GAS  /tmp/ccKppKJD.s 			page 25


 668 00ae C3E7     		b	.L34
 669              	.L35:
 200:Src/LTC6811.c **** 
 670              		.loc 1 200 12 is_stmt 1 view .LVU229
 200:Src/LTC6811.c **** 
 671              		.loc 1 200 32 is_stmt 0 view .LVU230
 672 00b0 0021     		movs	r1, #0
 673 00b2 5974     		strb	r1, [r3, #17]
 674 00b4 C5E7     		b	.L36
 675              	.L37:
 203:Src/LTC6811.c **** 	
 676              		.loc 1 203 12 is_stmt 1 view .LVU231
 203:Src/LTC6811.c **** 	
 677              		.loc 1 203 32 is_stmt 0 view .LVU232
 678 00b6 0021     		movs	r1, #0
 679 00b8 9974     		strb	r1, [r3, #18]
 680 00ba C6E7     		b	.L38
 681              	.L39:
 206:Src/LTC6811.c **** 
 682              		.loc 1 206 12 is_stmt 1 view .LVU233
 206:Src/LTC6811.c **** 
 683              		.loc 1 206 32 is_stmt 0 view .LVU234
 684 00bc 0021     		movs	r1, #0
 685 00be D974     		strb	r1, [r3, #19]
 686 00c0 C7E7     		b	.L40
 687              	.L41:
 209:Src/LTC6811.c **** 
 688              		.loc 1 209 12 is_stmt 1 view .LVU235
 209:Src/LTC6811.c **** 
 689              		.loc 1 209 32 is_stmt 0 view .LVU236
 690 00c2 0021     		movs	r1, #0
 691 00c4 1975     		strb	r1, [r3, #20]
 692 00c6 C8E7     		b	.L42
 693              	.L43:
 212:Src/LTC6811.c **** 	
 694              		.loc 1 212 12 is_stmt 1 view .LVU237
 212:Src/LTC6811.c **** 	
 695              		.loc 1 212 33 is_stmt 0 view .LVU238
 696 00c8 0021     		movs	r1, #0
 697 00ca 5975     		strb	r1, [r3, #21]
 698 00cc C9E7     		b	.L44
 699              	.L45:
 215:Src/LTC6811.c **** 
 700              		.loc 1 215 13 is_stmt 1 view .LVU239
 215:Src/LTC6811.c **** 
 701              		.loc 1 215 34 is_stmt 0 view .LVU240
 702 00ce 0021     		movs	r1, #0
 703 00d0 9975     		strb	r1, [r3, #22]
 704 00d2 CAE7     		b	.L46
 705              	.L47:
 218:Src/LTC6811.c **** 		
 706              		.loc 1 218 13 is_stmt 1 view .LVU241
 218:Src/LTC6811.c **** 		
 707              		.loc 1 218 34 is_stmt 0 view .LVU242
 708 00d4 0021     		movs	r1, #0
 709 00d6 D975     		strb	r1, [r3, #23]
 710 00d8 CBE7     		b	.L48
ARM GAS  /tmp/ccKppKJD.s 			page 26


 711              		.cfi_endproc
 712              	.LFE68:
 714              		.section	.text.readRegister,"ax",%progbits
 715              		.align	1
 716              		.global	readRegister
 717              		.syntax unified
 718              		.thumb
 719              		.thumb_func
 720              		.fpu softvfp
 722              	readRegister:
 723              	.LVL44:
 724              	.LFB75:
 360:Src/LTC6811.c **** 	
 725              		.loc 1 360 80 is_stmt 1 view -0
 726              		.cfi_startproc
 727              		@ args = 0, pretend = 0, frame = 24
 728              		@ frame_needed = 0, uses_anonymous_args = 0
 360:Src/LTC6811.c **** 	
 729              		.loc 1 360 80 is_stmt 0 view .LVU244
 730 0000 F0B5     		push	{r4, r5, r6, r7, lr}
 731              	.LCFI10:
 732              		.cfi_def_cfa_offset 20
 733              		.cfi_offset 4, -20
 734              		.cfi_offset 5, -16
 735              		.cfi_offset 6, -12
 736              		.cfi_offset 7, -8
 737              		.cfi_offset 14, -4
 738 0002 87B0     		sub	sp, sp, #28
 739              	.LCFI11:
 740              		.cfi_def_cfa_offset 48
 741 0004 0646     		mov	r6, r0
 742 0006 0C46     		mov	r4, r1
 743 0008 1746     		mov	r7, r2
 368:Src/LTC6811.c **** 	uint8_t rx_data[12];
 744              		.loc 1 368 2 is_stmt 1 view .LVU245
 369:Src/LTC6811.c **** 	uint16_t PEC_return;
 745              		.loc 1 369 2 view .LVU246
 370:Src/LTC6811.c **** 	uint8_t *PEC_send;
 746              		.loc 1 370 2 view .LVU247
 371:Src/LTC6811.c **** 	bool dataValid = true;
 747              		.loc 1 371 2 view .LVU248
 372:Src/LTC6811.c **** 
 748              		.loc 1 372 2 view .LVU249
 749              	.LVL45:
 374:Src/LTC6811.c **** 	
 750              		.loc 1 374 2 view .LVU250
 374:Src/LTC6811.c **** 	
 751              		.loc 1 374 24 is_stmt 0 view .LVU251
 752 000a 0620     		movs	r0, #6
 753              	.LVL46:
 374:Src/LTC6811.c **** 	
 754              		.loc 1 374 24 view .LVU252
 755 000c FFF7FEFF 		bl	malloc
 756              	.LVL47:
 374:Src/LTC6811.c **** 	
 757              		.loc 1 374 24 view .LVU253
 758 0010 0546     		mov	r5, r0
ARM GAS  /tmp/ccKppKJD.s 			page 27


 759              	.LVL48:
 376:Src/LTC6811.c **** 	PEC_send[1] = (uint8_t) (command & 0xFF);
 760              		.loc 1 376 2 is_stmt 1 view .LVU254
 376:Src/LTC6811.c **** 	PEC_send[1] = (uint8_t) (command & 0xFF);
 761              		.loc 1 376 44 is_stmt 0 view .LVU255
 762 0012 E300     		lsls	r3, r4, #3
 376:Src/LTC6811.c **** 	PEC_send[1] = (uint8_t) (command & 0xFF);
 763              		.loc 1 376 50 view .LVU256
 764 0014 03F07803 		and	r3, r3, #120
 376:Src/LTC6811.c **** 	PEC_send[1] = (uint8_t) (command & 0xFF);
 765              		.loc 1 376 32 view .LVU257
 766 0018 63F07F03 		orn	r3, r3, #127
 376:Src/LTC6811.c **** 	PEC_send[1] = (uint8_t) (command & 0xFF);
 767              		.loc 1 376 76 view .LVU258
 768 001c C6F30224 		ubfx	r4, r6, #8, #3
 376:Src/LTC6811.c **** 	PEC_send[1] = (uint8_t) (command & 0xFF);
 769              		.loc 1 376 58 view .LVU259
 770 0020 2343     		orrs	r3, r3, r4
 376:Src/LTC6811.c **** 	PEC_send[1] = (uint8_t) (command & 0xFF);
 771              		.loc 1 376 16 view .LVU260
 772 0022 DBB2     		uxtb	r3, r3
 376:Src/LTC6811.c **** 	PEC_send[1] = (uint8_t) (command & 0xFF);
 773              		.loc 1 376 14 view .LVU261
 774 0024 0370     		strb	r3, [r0]
 377:Src/LTC6811.c **** 
 775              		.loc 1 377 2 is_stmt 1 view .LVU262
 377:Src/LTC6811.c **** 
 776              		.loc 1 377 16 is_stmt 0 view .LVU263
 777 0026 F2B2     		uxtb	r2, r6
 377:Src/LTC6811.c **** 
 778              		.loc 1 377 14 view .LVU264
 779 0028 4270     		strb	r2, [r0, #1]
 379:Src/LTC6811.c **** 	cmd[1] = PEC_send[1];
 780              		.loc 1 379 2 is_stmt 1 view .LVU265
 379:Src/LTC6811.c **** 	cmd[1] = PEC_send[1];
 781              		.loc 1 379 9 is_stmt 0 view .LVU266
 782 002a 8DF80C30 		strb	r3, [sp, #12]
 380:Src/LTC6811.c **** 	
 783              		.loc 1 380 2 is_stmt 1 view .LVU267
 380:Src/LTC6811.c **** 	
 784              		.loc 1 380 9 is_stmt 0 view .LVU268
 785 002e 8DF80D20 		strb	r2, [sp, #13]
 382:Src/LTC6811.c **** 	
 786              		.loc 1 382 2 is_stmt 1 view .LVU269
 382:Src/LTC6811.c **** 	
 787              		.loc 1 382 15 is_stmt 0 view .LVU270
 788 0032 0146     		mov	r1, r0
 789 0034 0220     		movs	r0, #2
 790              	.LVL49:
 382:Src/LTC6811.c **** 	
 791              		.loc 1 382 15 view .LVU271
 792 0036 FFF7FEFF 		bl	calculatePEC
 793              	.LVL50:
 384:Src/LTC6811.c **** 	cmd[3] = PEC_return & 0xFF;
 794              		.loc 1 384 2 is_stmt 1 view .LVU272
 384:Src/LTC6811.c **** 	cmd[3] = PEC_return & 0xFF;
 795              		.loc 1 384 9 is_stmt 0 view .LVU273
ARM GAS  /tmp/ccKppKJD.s 			page 28


 796 003a 030A     		lsrs	r3, r0, #8
 797 003c 8DF80E30 		strb	r3, [sp, #14]
 385:Src/LTC6811.c **** 	
 798              		.loc 1 385 2 is_stmt 1 view .LVU274
 385:Src/LTC6811.c **** 	
 799              		.loc 1 385 9 is_stmt 0 view .LVU275
 800 0040 8DF80F00 		strb	r0, [sp, #15]
 387:Src/LTC6811.c **** 	cmd[5] = 0;
 801              		.loc 1 387 2 is_stmt 1 view .LVU276
 387:Src/LTC6811.c **** 	cmd[5] = 0;
 802              		.loc 1 387 9 is_stmt 0 view .LVU277
 803 0044 0023     		movs	r3, #0
 804 0046 8DF81030 		strb	r3, [sp, #16]
 388:Src/LTC6811.c **** 	cmd[6] = 0;
 805              		.loc 1 388 2 is_stmt 1 view .LVU278
 388:Src/LTC6811.c **** 	cmd[6] = 0;
 806              		.loc 1 388 9 is_stmt 0 view .LVU279
 807 004a 8DF81130 		strb	r3, [sp, #17]
 389:Src/LTC6811.c **** 	cmd[7] = 0;
 808              		.loc 1 389 2 is_stmt 1 view .LVU280
 389:Src/LTC6811.c **** 	cmd[7] = 0;
 809              		.loc 1 389 9 is_stmt 0 view .LVU281
 810 004e 8DF81230 		strb	r3, [sp, #18]
 390:Src/LTC6811.c **** 	cmd[8] = 0;
 811              		.loc 1 390 2 is_stmt 1 view .LVU282
 390:Src/LTC6811.c **** 	cmd[8] = 0;
 812              		.loc 1 390 9 is_stmt 0 view .LVU283
 813 0052 8DF81330 		strb	r3, [sp, #19]
 391:Src/LTC6811.c **** 	cmd[9] = 0;
 814              		.loc 1 391 2 is_stmt 1 view .LVU284
 391:Src/LTC6811.c **** 	cmd[9] = 0;
 815              		.loc 1 391 9 is_stmt 0 view .LVU285
 816 0056 8DF81430 		strb	r3, [sp, #20]
 392:Src/LTC6811.c **** 	cmd[10] = 0;
 817              		.loc 1 392 2 is_stmt 1 view .LVU286
 392:Src/LTC6811.c **** 	cmd[10] = 0;
 818              		.loc 1 392 9 is_stmt 0 view .LVU287
 819 005a 8DF81530 		strb	r3, [sp, #21]
 393:Src/LTC6811.c **** 	cmd[11] = 0;
 820              		.loc 1 393 2 is_stmt 1 view .LVU288
 393:Src/LTC6811.c **** 	cmd[11] = 0;
 821              		.loc 1 393 10 is_stmt 0 view .LVU289
 822 005e 8DF81630 		strb	r3, [sp, #22]
 394:Src/LTC6811.c **** 	
 823              		.loc 1 394 2 is_stmt 1 view .LVU290
 394:Src/LTC6811.c **** 	
 824              		.loc 1 394 10 is_stmt 0 view .LVU291
 825 0062 8DF81730 		strb	r3, [sp, #23]
 396:Src/LTC6811.c **** 	
 826              		.loc 1 396 2 is_stmt 1 view .LVU292
 827 0066 0C22     		movs	r2, #12
 828 0068 6946     		mov	r1, sp
 829 006a 0DEB0200 		add	r0, sp, r2
 830              	.LVL51:
 396:Src/LTC6811.c **** 	
 831              		.loc 1 396 2 is_stmt 0 view .LVU293
 832 006e FFF7FEFF 		bl	SPIWriteRead
ARM GAS  /tmp/ccKppKJD.s 			page 29


 833              	.LVL52:
 399:Src/LTC6811.c **** 	PEC_send[1] = rx_data[5]; // cell 1 voltage high bytes
 834              		.loc 1 399 2 is_stmt 1 view .LVU294
 399:Src/LTC6811.c **** 	PEC_send[1] = rx_data[5]; // cell 1 voltage high bytes
 835              		.loc 1 399 23 is_stmt 0 view .LVU295
 836 0072 9DF80430 		ldrb	r3, [sp, #4]	@ zero_extendqisi2
 399:Src/LTC6811.c **** 	PEC_send[1] = rx_data[5]; // cell 1 voltage high bytes
 837              		.loc 1 399 14 view .LVU296
 838 0076 2B70     		strb	r3, [r5]
 400:Src/LTC6811.c **** 	PEC_send[2] = rx_data[6]; // cell 2 voltage low bytes
 839              		.loc 1 400 2 is_stmt 1 view .LVU297
 400:Src/LTC6811.c **** 	PEC_send[2] = rx_data[6]; // cell 2 voltage low bytes
 840              		.loc 1 400 23 is_stmt 0 view .LVU298
 841 0078 9DF80530 		ldrb	r3, [sp, #5]	@ zero_extendqisi2
 400:Src/LTC6811.c **** 	PEC_send[2] = rx_data[6]; // cell 2 voltage low bytes
 842              		.loc 1 400 14 view .LVU299
 843 007c 6B70     		strb	r3, [r5, #1]
 401:Src/LTC6811.c **** 	PEC_send[3] = rx_data[7]; // cell 2 voltage high bytes
 844              		.loc 1 401 2 is_stmt 1 view .LVU300
 401:Src/LTC6811.c **** 	PEC_send[3] = rx_data[7]; // cell 2 voltage high bytes
 845              		.loc 1 401 23 is_stmt 0 view .LVU301
 846 007e 9DF80630 		ldrb	r3, [sp, #6]	@ zero_extendqisi2
 401:Src/LTC6811.c **** 	PEC_send[3] = rx_data[7]; // cell 2 voltage high bytes
 847              		.loc 1 401 14 view .LVU302
 848 0082 AB70     		strb	r3, [r5, #2]
 402:Src/LTC6811.c **** 	PEC_send[4] = rx_data[8]; // cell 3 voltage low bytes
 849              		.loc 1 402 2 is_stmt 1 view .LVU303
 402:Src/LTC6811.c **** 	PEC_send[4] = rx_data[8]; // cell 3 voltage low bytes
 850              		.loc 1 402 23 is_stmt 0 view .LVU304
 851 0084 9DF80730 		ldrb	r3, [sp, #7]	@ zero_extendqisi2
 402:Src/LTC6811.c **** 	PEC_send[4] = rx_data[8]; // cell 3 voltage low bytes
 852              		.loc 1 402 14 view .LVU305
 853 0088 EB70     		strb	r3, [r5, #3]
 403:Src/LTC6811.c **** 	PEC_send[5] = rx_data[9]; // cell 3 voltage high bytes
 854              		.loc 1 403 2 is_stmt 1 view .LVU306
 403:Src/LTC6811.c **** 	PEC_send[5] = rx_data[9]; // cell 3 voltage high bytes
 855              		.loc 1 403 23 is_stmt 0 view .LVU307
 856 008a 9DF80830 		ldrb	r3, [sp, #8]	@ zero_extendqisi2
 403:Src/LTC6811.c **** 	PEC_send[5] = rx_data[9]; // cell 3 voltage high bytes
 857              		.loc 1 403 14 view .LVU308
 858 008e 2B71     		strb	r3, [r5, #4]
 404:Src/LTC6811.c **** 	
 859              		.loc 1 404 2 is_stmt 1 view .LVU309
 404:Src/LTC6811.c **** 	
 860              		.loc 1 404 23 is_stmt 0 view .LVU310
 861 0090 9DF80930 		ldrb	r3, [sp, #9]	@ zero_extendqisi2
 404:Src/LTC6811.c **** 	
 862              		.loc 1 404 14 view .LVU311
 863 0094 6B71     		strb	r3, [r5, #5]
 406:Src/LTC6811.c **** 	
 864              		.loc 1 406 2 is_stmt 1 view .LVU312
 406:Src/LTC6811.c **** 	
 865              		.loc 1 406 15 is_stmt 0 view .LVU313
 866 0096 2946     		mov	r1, r5
 867 0098 0620     		movs	r0, #6
 868 009a FFF7FEFF 		bl	calculatePEC
 869              	.LVL53:
ARM GAS  /tmp/ccKppKJD.s 			page 30


 409:Src/LTC6811.c **** 		dataValid = false;
 870              		.loc 1 409 2 is_stmt 1 view .LVU314
 409:Src/LTC6811.c **** 		dataValid = false;
 871              		.loc 1 409 30 is_stmt 0 view .LVU315
 872 009e 9DF80A20 		ldrb	r2, [sp, #10]	@ zero_extendqisi2
 409:Src/LTC6811.c **** 		dataValid = false;
 873              		.loc 1 409 61 view .LVU316
 874 00a2 9DF80B30 		ldrb	r3, [sp, #11]	@ zero_extendqisi2
 409:Src/LTC6811.c **** 		dataValid = false;
 875              		.loc 1 409 51 view .LVU317
 876 00a6 43EA0223 		orr	r3, r3, r2, lsl #8
 409:Src/LTC6811.c **** 		dataValid = false;
 877              		.loc 1 409 5 view .LVU318
 878 00aa 9842     		cmp	r0, r3
 879 00ac 12D0     		beq	.L61
 410:Src/LTC6811.c **** 	}
 880              		.loc 1 410 13 view .LVU319
 881 00ae 0020     		movs	r0, #0
 882              	.LVL54:
 883              	.L51:
 413:Src/LTC6811.c **** 		
 884              		.loc 1 413 2 is_stmt 1 view .LVU320
 413:Src/LTC6811.c **** 		
 885              		.loc 1 413 5 is_stmt 0 view .LVU321
 886 00b0 042E     		cmp	r6, #4
 887 00b2 11D0     		beq	.L62
 888              	.L52:
 420:Src/LTC6811.c **** 		
 889              		.loc 1 420 2 is_stmt 1 view .LVU322
 420:Src/LTC6811.c **** 		
 890              		.loc 1 420 5 is_stmt 0 view .LVU323
 891 00b4 042E     		cmp	r6, #4
 892 00b6 28D0     		beq	.L63
 893              	.L53:
 427:Src/LTC6811.c **** 		
 894              		.loc 1 427 2 is_stmt 1 view .LVU324
 427:Src/LTC6811.c **** 		
 895              		.loc 1 427 5 is_stmt 0 view .LVU325
 896 00b8 042E     		cmp	r6, #4
 897 00ba 3FD0     		beq	.L64
 898              	.L54:
 434:Src/LTC6811.c **** 		
 899              		.loc 1 434 2 is_stmt 1 view .LVU326
 434:Src/LTC6811.c **** 		
 900              		.loc 1 434 5 is_stmt 0 view .LVU327
 901 00bc 042E     		cmp	r6, #4
 902 00be 56D0     		beq	.L65
 903              	.L55:
 441:Src/LTC6811.c **** 		
 904              		.loc 1 441 2 is_stmt 1 view .LVU328
 441:Src/LTC6811.c **** 		
 905              		.loc 1 441 5 is_stmt 0 view .LVU329
 906 00c0 0C2E     		cmp	r6, #12
 907 00c2 6DD0     		beq	.L66
 908              	.L56:
 448:Src/LTC6811.c **** 		data[3] = (uint16_t) ((rx_data[5] << 8) & 0xFF00) | (rx_data[4] & 0x00FF);
 909              		.loc 1 448 2 is_stmt 1 view .LVU330
ARM GAS  /tmp/ccKppKJD.s 			page 31


 448:Src/LTC6811.c **** 		data[3] = (uint16_t) ((rx_data[5] << 8) & 0xFF00) | (rx_data[4] & 0x00FF);
 910              		.loc 1 448 5 is_stmt 0 view .LVU331
 911 00c4 0E2E     		cmp	r6, #14
 912 00c6 00F08480 		beq	.L67
 913              	.L57:
 452:Src/LTC6811.c **** 		data[0] = (uint16_t) ((rx_data[4] << 8) & 0xFF00) | (rx_data[5] & 0x00FF);
 914              		.loc 1 452 2 is_stmt 1 view .LVU332
 452:Src/LTC6811.c **** 		data[0] = (uint16_t) ((rx_data[4] << 8) & 0xFF00) | (rx_data[5] & 0x00FF);
 915              		.loc 1 452 5 is_stmt 0 view .LVU333
 916 00ca 022E     		cmp	r6, #2
 917 00cc 00F08A80 		beq	.L68
 918              	.L58:
 458:Src/LTC6811.c **** 	
 919              		.loc 1 458 2 is_stmt 1 view .LVU334
 460:Src/LTC6811.c **** 
 920              		.loc 1 460 1 is_stmt 0 view .LVU335
 921 00d0 07B0     		add	sp, sp, #28
 922              	.LCFI12:
 923              		.cfi_remember_state
 924              		.cfi_def_cfa_offset 20
 925              		@ sp needed
 926 00d2 F0BD     		pop	{r4, r5, r6, r7, pc}
 927              	.LVL55:
 928              	.L61:
 929              	.LCFI13:
 930              		.cfi_restore_state
 372:Src/LTC6811.c **** 
 931              		.loc 1 372 7 view .LVU336
 932 00d4 0120     		movs	r0, #1
 933              	.LVL56:
 372:Src/LTC6811.c **** 
 934              		.loc 1 372 7 view .LVU337
 935 00d6 EBE7     		b	.L51
 936              	.LVL57:
 937              	.L62:
 415:Src/LTC6811.c **** 		data[1] = (uint16_t) ((rx_data[7] << 8) & 0xFF00) | (rx_data[6] & 0x00FF);
 938              		.loc 1 415 3 is_stmt 1 view .LVU338
 415:Src/LTC6811.c **** 		data[1] = (uint16_t) ((rx_data[7] << 8) & 0xFF00) | (rx_data[6] & 0x00FF);
 939              		.loc 1 415 33 is_stmt 0 view .LVU339
 940 00d8 9DF80530 		ldrb	r3, [sp, #5]	@ zero_extendqisi2
 415:Src/LTC6811.c **** 		data[1] = (uint16_t) ((rx_data[7] << 8) & 0xFF00) | (rx_data[6] & 0x00FF);
 941              		.loc 1 415 37 view .LVU340
 942 00dc 1B02     		lsls	r3, r3, #8
 415:Src/LTC6811.c **** 		data[1] = (uint16_t) ((rx_data[7] << 8) & 0xFF00) | (rx_data[6] & 0x00FF);
 943              		.loc 1 415 13 view .LVU341
 944 00de 1BB2     		sxth	r3, r3
 415:Src/LTC6811.c **** 		data[1] = (uint16_t) ((rx_data[7] << 8) & 0xFF00) | (rx_data[6] & 0x00FF);
 945              		.loc 1 415 63 view .LVU342
 946 00e0 9DF80420 		ldrb	r2, [sp, #4]	@ zero_extendqisi2
 415:Src/LTC6811.c **** 		data[1] = (uint16_t) ((rx_data[7] << 8) & 0xFF00) | (rx_data[6] & 0x00FF);
 947              		.loc 1 415 53 view .LVU343
 948 00e4 1343     		orrs	r3, r3, r2
 415:Src/LTC6811.c **** 		data[1] = (uint16_t) ((rx_data[7] << 8) & 0xFF00) | (rx_data[6] & 0x00FF);
 949              		.loc 1 415 11 view .LVU344
 950 00e6 3B80     		strh	r3, [r7]	@ movhi
 416:Src/LTC6811.c **** 		data[2] = (uint16_t) ((rx_data[9] << 8) & 0xFF00) | (rx_data[8] & 0x00FF);
 951              		.loc 1 416 3 is_stmt 1 view .LVU345
ARM GAS  /tmp/ccKppKJD.s 			page 32


 416:Src/LTC6811.c **** 		data[2] = (uint16_t) ((rx_data[9] << 8) & 0xFF00) | (rx_data[8] & 0x00FF);
 952              		.loc 1 416 33 is_stmt 0 view .LVU346
 953 00e8 9DF80730 		ldrb	r3, [sp, #7]	@ zero_extendqisi2
 416:Src/LTC6811.c **** 		data[2] = (uint16_t) ((rx_data[9] << 8) & 0xFF00) | (rx_data[8] & 0x00FF);
 954              		.loc 1 416 37 view .LVU347
 955 00ec 1B02     		lsls	r3, r3, #8
 416:Src/LTC6811.c **** 		data[2] = (uint16_t) ((rx_data[9] << 8) & 0xFF00) | (rx_data[8] & 0x00FF);
 956              		.loc 1 416 13 view .LVU348
 957 00ee 1BB2     		sxth	r3, r3
 416:Src/LTC6811.c **** 		data[2] = (uint16_t) ((rx_data[9] << 8) & 0xFF00) | (rx_data[8] & 0x00FF);
 958              		.loc 1 416 63 view .LVU349
 959 00f0 9DF80620 		ldrb	r2, [sp, #6]	@ zero_extendqisi2
 416:Src/LTC6811.c **** 		data[2] = (uint16_t) ((rx_data[9] << 8) & 0xFF00) | (rx_data[8] & 0x00FF);
 960              		.loc 1 416 53 view .LVU350
 961 00f4 1343     		orrs	r3, r3, r2
 416:Src/LTC6811.c **** 		data[2] = (uint16_t) ((rx_data[9] << 8) & 0xFF00) | (rx_data[8] & 0x00FF);
 962              		.loc 1 416 11 view .LVU351
 963 00f6 7B80     		strh	r3, [r7, #2]	@ movhi
 417:Src/LTC6811.c **** 	}
 964              		.loc 1 417 3 is_stmt 1 view .LVU352
 417:Src/LTC6811.c **** 	}
 965              		.loc 1 417 33 is_stmt 0 view .LVU353
 966 00f8 9DF80930 		ldrb	r3, [sp, #9]	@ zero_extendqisi2
 417:Src/LTC6811.c **** 	}
 967              		.loc 1 417 37 view .LVU354
 968 00fc 1B02     		lsls	r3, r3, #8
 417:Src/LTC6811.c **** 	}
 969              		.loc 1 417 13 view .LVU355
 970 00fe 1BB2     		sxth	r3, r3
 417:Src/LTC6811.c **** 	}
 971              		.loc 1 417 63 view .LVU356
 972 0100 9DF80820 		ldrb	r2, [sp, #8]	@ zero_extendqisi2
 417:Src/LTC6811.c **** 	}
 973              		.loc 1 417 53 view .LVU357
 974 0104 1343     		orrs	r3, r3, r2
 417:Src/LTC6811.c **** 	}
 975              		.loc 1 417 11 view .LVU358
 976 0106 BB80     		strh	r3, [r7, #4]	@ movhi
 977 0108 D4E7     		b	.L52
 978              	.L63:
 422:Src/LTC6811.c **** 		data[4] = (uint16_t) ((rx_data[7] << 8) & 0xFF00) | (rx_data[6] & 0x00FF);
 979              		.loc 1 422 3 is_stmt 1 view .LVU359
 422:Src/LTC6811.c **** 		data[4] = (uint16_t) ((rx_data[7] << 8) & 0xFF00) | (rx_data[6] & 0x00FF);
 980              		.loc 1 422 33 is_stmt 0 view .LVU360
 981 010a 9DF80530 		ldrb	r3, [sp, #5]	@ zero_extendqisi2
 422:Src/LTC6811.c **** 		data[4] = (uint16_t) ((rx_data[7] << 8) & 0xFF00) | (rx_data[6] & 0x00FF);
 982              		.loc 1 422 37 view .LVU361
 983 010e 1B02     		lsls	r3, r3, #8
 422:Src/LTC6811.c **** 		data[4] = (uint16_t) ((rx_data[7] << 8) & 0xFF00) | (rx_data[6] & 0x00FF);
 984              		.loc 1 422 13 view .LVU362
 985 0110 1BB2     		sxth	r3, r3
 422:Src/LTC6811.c **** 		data[4] = (uint16_t) ((rx_data[7] << 8) & 0xFF00) | (rx_data[6] & 0x00FF);
 986              		.loc 1 422 63 view .LVU363
 987 0112 9DF80420 		ldrb	r2, [sp, #4]	@ zero_extendqisi2
 422:Src/LTC6811.c **** 		data[4] = (uint16_t) ((rx_data[7] << 8) & 0xFF00) | (rx_data[6] & 0x00FF);
 988              		.loc 1 422 53 view .LVU364
 989 0116 1343     		orrs	r3, r3, r2
ARM GAS  /tmp/ccKppKJD.s 			page 33


 422:Src/LTC6811.c **** 		data[4] = (uint16_t) ((rx_data[7] << 8) & 0xFF00) | (rx_data[6] & 0x00FF);
 990              		.loc 1 422 11 view .LVU365
 991 0118 FB80     		strh	r3, [r7, #6]	@ movhi
 423:Src/LTC6811.c **** 		data[5] = (uint16_t) ((rx_data[9] << 8) & 0xFF00) | (rx_data[8] & 0x00FF);
 992              		.loc 1 423 3 is_stmt 1 view .LVU366
 423:Src/LTC6811.c **** 		data[5] = (uint16_t) ((rx_data[9] << 8) & 0xFF00) | (rx_data[8] & 0x00FF);
 993              		.loc 1 423 33 is_stmt 0 view .LVU367
 994 011a 9DF80730 		ldrb	r3, [sp, #7]	@ zero_extendqisi2
 423:Src/LTC6811.c **** 		data[5] = (uint16_t) ((rx_data[9] << 8) & 0xFF00) | (rx_data[8] & 0x00FF);
 995              		.loc 1 423 37 view .LVU368
 996 011e 1B02     		lsls	r3, r3, #8
 423:Src/LTC6811.c **** 		data[5] = (uint16_t) ((rx_data[9] << 8) & 0xFF00) | (rx_data[8] & 0x00FF);
 997              		.loc 1 423 13 view .LVU369
 998 0120 1BB2     		sxth	r3, r3
 423:Src/LTC6811.c **** 		data[5] = (uint16_t) ((rx_data[9] << 8) & 0xFF00) | (rx_data[8] & 0x00FF);
 999              		.loc 1 423 63 view .LVU370
 1000 0122 9DF80620 		ldrb	r2, [sp, #6]	@ zero_extendqisi2
 423:Src/LTC6811.c **** 		data[5] = (uint16_t) ((rx_data[9] << 8) & 0xFF00) | (rx_data[8] & 0x00FF);
 1001              		.loc 1 423 53 view .LVU371
 1002 0126 1343     		orrs	r3, r3, r2
 423:Src/LTC6811.c **** 		data[5] = (uint16_t) ((rx_data[9] << 8) & 0xFF00) | (rx_data[8] & 0x00FF);
 1003              		.loc 1 423 11 view .LVU372
 1004 0128 3B81     		strh	r3, [r7, #8]	@ movhi
 424:Src/LTC6811.c **** 	}
 1005              		.loc 1 424 3 is_stmt 1 view .LVU373
 424:Src/LTC6811.c **** 	}
 1006              		.loc 1 424 33 is_stmt 0 view .LVU374
 1007 012a 9DF80930 		ldrb	r3, [sp, #9]	@ zero_extendqisi2
 424:Src/LTC6811.c **** 	}
 1008              		.loc 1 424 37 view .LVU375
 1009 012e 1B02     		lsls	r3, r3, #8
 424:Src/LTC6811.c **** 	}
 1010              		.loc 1 424 13 view .LVU376
 1011 0130 1BB2     		sxth	r3, r3
 424:Src/LTC6811.c **** 	}
 1012              		.loc 1 424 63 view .LVU377
 1013 0132 9DF80820 		ldrb	r2, [sp, #8]	@ zero_extendqisi2
 424:Src/LTC6811.c **** 	}
 1014              		.loc 1 424 53 view .LVU378
 1015 0136 1343     		orrs	r3, r3, r2
 424:Src/LTC6811.c **** 	}
 1016              		.loc 1 424 11 view .LVU379
 1017 0138 7B81     		strh	r3, [r7, #10]	@ movhi
 1018 013a BDE7     		b	.L53
 1019              	.L64:
 429:Src/LTC6811.c **** 		data[7] = (uint16_t) ((rx_data[7] << 8) & 0xFF00) | (rx_data[6] & 0x00FF);
 1020              		.loc 1 429 3 is_stmt 1 view .LVU380
 429:Src/LTC6811.c **** 		data[7] = (uint16_t) ((rx_data[7] << 8) & 0xFF00) | (rx_data[6] & 0x00FF);
 1021              		.loc 1 429 33 is_stmt 0 view .LVU381
 1022 013c 9DF80530 		ldrb	r3, [sp, #5]	@ zero_extendqisi2
 429:Src/LTC6811.c **** 		data[7] = (uint16_t) ((rx_data[7] << 8) & 0xFF00) | (rx_data[6] & 0x00FF);
 1023              		.loc 1 429 37 view .LVU382
 1024 0140 1B02     		lsls	r3, r3, #8
 429:Src/LTC6811.c **** 		data[7] = (uint16_t) ((rx_data[7] << 8) & 0xFF00) | (rx_data[6] & 0x00FF);
 1025              		.loc 1 429 13 view .LVU383
 1026 0142 1BB2     		sxth	r3, r3
 429:Src/LTC6811.c **** 		data[7] = (uint16_t) ((rx_data[7] << 8) & 0xFF00) | (rx_data[6] & 0x00FF);
ARM GAS  /tmp/ccKppKJD.s 			page 34


 1027              		.loc 1 429 63 view .LVU384
 1028 0144 9DF80420 		ldrb	r2, [sp, #4]	@ zero_extendqisi2
 429:Src/LTC6811.c **** 		data[7] = (uint16_t) ((rx_data[7] << 8) & 0xFF00) | (rx_data[6] & 0x00FF);
 1029              		.loc 1 429 53 view .LVU385
 1030 0148 1343     		orrs	r3, r3, r2
 429:Src/LTC6811.c **** 		data[7] = (uint16_t) ((rx_data[7] << 8) & 0xFF00) | (rx_data[6] & 0x00FF);
 1031              		.loc 1 429 11 view .LVU386
 1032 014a BB81     		strh	r3, [r7, #12]	@ movhi
 430:Src/LTC6811.c **** 		data[8] = (uint16_t) ((rx_data[9] << 8) & 0xFF00) | (rx_data[8] & 0x00FF);
 1033              		.loc 1 430 3 is_stmt 1 view .LVU387
 430:Src/LTC6811.c **** 		data[8] = (uint16_t) ((rx_data[9] << 8) & 0xFF00) | (rx_data[8] & 0x00FF);
 1034              		.loc 1 430 33 is_stmt 0 view .LVU388
 1035 014c 9DF80730 		ldrb	r3, [sp, #7]	@ zero_extendqisi2
 430:Src/LTC6811.c **** 		data[8] = (uint16_t) ((rx_data[9] << 8) & 0xFF00) | (rx_data[8] & 0x00FF);
 1036              		.loc 1 430 37 view .LVU389
 1037 0150 1B02     		lsls	r3, r3, #8
 430:Src/LTC6811.c **** 		data[8] = (uint16_t) ((rx_data[9] << 8) & 0xFF00) | (rx_data[8] & 0x00FF);
 1038              		.loc 1 430 13 view .LVU390
 1039 0152 1BB2     		sxth	r3, r3
 430:Src/LTC6811.c **** 		data[8] = (uint16_t) ((rx_data[9] << 8) & 0xFF00) | (rx_data[8] & 0x00FF);
 1040              		.loc 1 430 63 view .LVU391
 1041 0154 9DF80620 		ldrb	r2, [sp, #6]	@ zero_extendqisi2
 430:Src/LTC6811.c **** 		data[8] = (uint16_t) ((rx_data[9] << 8) & 0xFF00) | (rx_data[8] & 0x00FF);
 1042              		.loc 1 430 53 view .LVU392
 1043 0158 1343     		orrs	r3, r3, r2
 430:Src/LTC6811.c **** 		data[8] = (uint16_t) ((rx_data[9] << 8) & 0xFF00) | (rx_data[8] & 0x00FF);
 1044              		.loc 1 430 11 view .LVU393
 1045 015a FB81     		strh	r3, [r7, #14]	@ movhi
 431:Src/LTC6811.c **** 	}
 1046              		.loc 1 431 3 is_stmt 1 view .LVU394
 431:Src/LTC6811.c **** 	}
 1047              		.loc 1 431 33 is_stmt 0 view .LVU395
 1048 015c 9DF80930 		ldrb	r3, [sp, #9]	@ zero_extendqisi2
 431:Src/LTC6811.c **** 	}
 1049              		.loc 1 431 37 view .LVU396
 1050 0160 1B02     		lsls	r3, r3, #8
 431:Src/LTC6811.c **** 	}
 1051              		.loc 1 431 13 view .LVU397
 1052 0162 1BB2     		sxth	r3, r3
 431:Src/LTC6811.c **** 	}
 1053              		.loc 1 431 63 view .LVU398
 1054 0164 9DF80820 		ldrb	r2, [sp, #8]	@ zero_extendqisi2
 431:Src/LTC6811.c **** 	}
 1055              		.loc 1 431 53 view .LVU399
 1056 0168 1343     		orrs	r3, r3, r2
 431:Src/LTC6811.c **** 	}
 1057              		.loc 1 431 11 view .LVU400
 1058 016a 3B82     		strh	r3, [r7, #16]	@ movhi
 1059 016c A6E7     		b	.L54
 1060              	.L65:
 436:Src/LTC6811.c **** 		data[10] = (uint16_t) ((rx_data[7] << 8) & 0xFF00) | (rx_data[6] & 0x00FF);
 1061              		.loc 1 436 3 is_stmt 1 view .LVU401
 436:Src/LTC6811.c **** 		data[10] = (uint16_t) ((rx_data[7] << 8) & 0xFF00) | (rx_data[6] & 0x00FF);
 1062              		.loc 1 436 33 is_stmt 0 view .LVU402
 1063 016e 9DF80530 		ldrb	r3, [sp, #5]	@ zero_extendqisi2
 436:Src/LTC6811.c **** 		data[10] = (uint16_t) ((rx_data[7] << 8) & 0xFF00) | (rx_data[6] & 0x00FF);
 1064              		.loc 1 436 37 view .LVU403
ARM GAS  /tmp/ccKppKJD.s 			page 35


 1065 0172 1B02     		lsls	r3, r3, #8
 436:Src/LTC6811.c **** 		data[10] = (uint16_t) ((rx_data[7] << 8) & 0xFF00) | (rx_data[6] & 0x00FF);
 1066              		.loc 1 436 13 view .LVU404
 1067 0174 1BB2     		sxth	r3, r3
 436:Src/LTC6811.c **** 		data[10] = (uint16_t) ((rx_data[7] << 8) & 0xFF00) | (rx_data[6] & 0x00FF);
 1068              		.loc 1 436 63 view .LVU405
 1069 0176 9DF80420 		ldrb	r2, [sp, #4]	@ zero_extendqisi2
 436:Src/LTC6811.c **** 		data[10] = (uint16_t) ((rx_data[7] << 8) & 0xFF00) | (rx_data[6] & 0x00FF);
 1070              		.loc 1 436 53 view .LVU406
 1071 017a 1343     		orrs	r3, r3, r2
 436:Src/LTC6811.c **** 		data[10] = (uint16_t) ((rx_data[7] << 8) & 0xFF00) | (rx_data[6] & 0x00FF);
 1072              		.loc 1 436 11 view .LVU407
 1073 017c 7B82     		strh	r3, [r7, #18]	@ movhi
 437:Src/LTC6811.c **** 		data[11] = (uint16_t) ((rx_data[9] << 8) & 0xFF00) | (rx_data[8] & 0x00FF);
 1074              		.loc 1 437 3 is_stmt 1 view .LVU408
 437:Src/LTC6811.c **** 		data[11] = (uint16_t) ((rx_data[9] << 8) & 0xFF00) | (rx_data[8] & 0x00FF);
 1075              		.loc 1 437 34 is_stmt 0 view .LVU409
 1076 017e 9DF80730 		ldrb	r3, [sp, #7]	@ zero_extendqisi2
 437:Src/LTC6811.c **** 		data[11] = (uint16_t) ((rx_data[9] << 8) & 0xFF00) | (rx_data[8] & 0x00FF);
 1077              		.loc 1 437 38 view .LVU410
 1078 0182 1B02     		lsls	r3, r3, #8
 437:Src/LTC6811.c **** 		data[11] = (uint16_t) ((rx_data[9] << 8) & 0xFF00) | (rx_data[8] & 0x00FF);
 1079              		.loc 1 437 14 view .LVU411
 1080 0184 1BB2     		sxth	r3, r3
 437:Src/LTC6811.c **** 		data[11] = (uint16_t) ((rx_data[9] << 8) & 0xFF00) | (rx_data[8] & 0x00FF);
 1081              		.loc 1 437 64 view .LVU412
 1082 0186 9DF80620 		ldrb	r2, [sp, #6]	@ zero_extendqisi2
 437:Src/LTC6811.c **** 		data[11] = (uint16_t) ((rx_data[9] << 8) & 0xFF00) | (rx_data[8] & 0x00FF);
 1083              		.loc 1 437 54 view .LVU413
 1084 018a 1343     		orrs	r3, r3, r2
 437:Src/LTC6811.c **** 		data[11] = (uint16_t) ((rx_data[9] << 8) & 0xFF00) | (rx_data[8] & 0x00FF);
 1085              		.loc 1 437 12 view .LVU414
 1086 018c BB82     		strh	r3, [r7, #20]	@ movhi
 438:Src/LTC6811.c **** 	}
 1087              		.loc 1 438 3 is_stmt 1 view .LVU415
 438:Src/LTC6811.c **** 	}
 1088              		.loc 1 438 34 is_stmt 0 view .LVU416
 1089 018e 9DF80930 		ldrb	r3, [sp, #9]	@ zero_extendqisi2
 438:Src/LTC6811.c **** 	}
 1090              		.loc 1 438 38 view .LVU417
 1091 0192 1B02     		lsls	r3, r3, #8
 438:Src/LTC6811.c **** 	}
 1092              		.loc 1 438 14 view .LVU418
 1093 0194 1BB2     		sxth	r3, r3
 438:Src/LTC6811.c **** 	}
 1094              		.loc 1 438 64 view .LVU419
 1095 0196 9DF80820 		ldrb	r2, [sp, #8]	@ zero_extendqisi2
 438:Src/LTC6811.c **** 	}
 1096              		.loc 1 438 54 view .LVU420
 1097 019a 1343     		orrs	r3, r3, r2
 438:Src/LTC6811.c **** 	}
 1098              		.loc 1 438 12 view .LVU421
 1099 019c FB82     		strh	r3, [r7, #22]	@ movhi
 1100 019e 8FE7     		b	.L55
 1101              	.L66:
 443:Src/LTC6811.c **** 		data[1] = (uint16_t) ((rx_data[7] << 8) & 0xFF00) | (rx_data[6] & 0x00FF);
 1102              		.loc 1 443 3 is_stmt 1 view .LVU422
ARM GAS  /tmp/ccKppKJD.s 			page 36


 443:Src/LTC6811.c **** 		data[1] = (uint16_t) ((rx_data[7] << 8) & 0xFF00) | (rx_data[6] & 0x00FF);
 1103              		.loc 1 443 33 is_stmt 0 view .LVU423
 1104 01a0 9DF80530 		ldrb	r3, [sp, #5]	@ zero_extendqisi2
 443:Src/LTC6811.c **** 		data[1] = (uint16_t) ((rx_data[7] << 8) & 0xFF00) | (rx_data[6] & 0x00FF);
 1105              		.loc 1 443 37 view .LVU424
 1106 01a4 1B02     		lsls	r3, r3, #8
 443:Src/LTC6811.c **** 		data[1] = (uint16_t) ((rx_data[7] << 8) & 0xFF00) | (rx_data[6] & 0x00FF);
 1107              		.loc 1 443 13 view .LVU425
 1108 01a6 1BB2     		sxth	r3, r3
 443:Src/LTC6811.c **** 		data[1] = (uint16_t) ((rx_data[7] << 8) & 0xFF00) | (rx_data[6] & 0x00FF);
 1109              		.loc 1 443 63 view .LVU426
 1110 01a8 9DF80420 		ldrb	r2, [sp, #4]	@ zero_extendqisi2
 443:Src/LTC6811.c **** 		data[1] = (uint16_t) ((rx_data[7] << 8) & 0xFF00) | (rx_data[6] & 0x00FF);
 1111              		.loc 1 443 53 view .LVU427
 1112 01ac 1343     		orrs	r3, r3, r2
 443:Src/LTC6811.c **** 		data[1] = (uint16_t) ((rx_data[7] << 8) & 0xFF00) | (rx_data[6] & 0x00FF);
 1113              		.loc 1 443 11 view .LVU428
 1114 01ae 3B80     		strh	r3, [r7]	@ movhi
 444:Src/LTC6811.c **** 		data[2] = (uint16_t) ((rx_data[9] << 8) & 0xFF00) | (rx_data[8] & 0x00FF);
 1115              		.loc 1 444 3 is_stmt 1 view .LVU429
 444:Src/LTC6811.c **** 		data[2] = (uint16_t) ((rx_data[9] << 8) & 0xFF00) | (rx_data[8] & 0x00FF);
 1116              		.loc 1 444 33 is_stmt 0 view .LVU430
 1117 01b0 9DF80730 		ldrb	r3, [sp, #7]	@ zero_extendqisi2
 444:Src/LTC6811.c **** 		data[2] = (uint16_t) ((rx_data[9] << 8) & 0xFF00) | (rx_data[8] & 0x00FF);
 1118              		.loc 1 444 37 view .LVU431
 1119 01b4 1B02     		lsls	r3, r3, #8
 444:Src/LTC6811.c **** 		data[2] = (uint16_t) ((rx_data[9] << 8) & 0xFF00) | (rx_data[8] & 0x00FF);
 1120              		.loc 1 444 13 view .LVU432
 1121 01b6 1BB2     		sxth	r3, r3
 444:Src/LTC6811.c **** 		data[2] = (uint16_t) ((rx_data[9] << 8) & 0xFF00) | (rx_data[8] & 0x00FF);
 1122              		.loc 1 444 63 view .LVU433
 1123 01b8 9DF80620 		ldrb	r2, [sp, #6]	@ zero_extendqisi2
 444:Src/LTC6811.c **** 		data[2] = (uint16_t) ((rx_data[9] << 8) & 0xFF00) | (rx_data[8] & 0x00FF);
 1124              		.loc 1 444 53 view .LVU434
 1125 01bc 1343     		orrs	r3, r3, r2
 444:Src/LTC6811.c **** 		data[2] = (uint16_t) ((rx_data[9] << 8) & 0xFF00) | (rx_data[8] & 0x00FF);
 1126              		.loc 1 444 11 view .LVU435
 1127 01be 7B80     		strh	r3, [r7, #2]	@ movhi
 445:Src/LTC6811.c **** 	}
 1128              		.loc 1 445 3 is_stmt 1 view .LVU436
 445:Src/LTC6811.c **** 	}
 1129              		.loc 1 445 33 is_stmt 0 view .LVU437
 1130 01c0 9DF80930 		ldrb	r3, [sp, #9]	@ zero_extendqisi2
 445:Src/LTC6811.c **** 	}
 1131              		.loc 1 445 37 view .LVU438
 1132 01c4 1B02     		lsls	r3, r3, #8
 445:Src/LTC6811.c **** 	}
 1133              		.loc 1 445 13 view .LVU439
 1134 01c6 1BB2     		sxth	r3, r3
 445:Src/LTC6811.c **** 	}
 1135              		.loc 1 445 63 view .LVU440
 1136 01c8 9DF80820 		ldrb	r2, [sp, #8]	@ zero_extendqisi2
 445:Src/LTC6811.c **** 	}
 1137              		.loc 1 445 53 view .LVU441
 1138 01cc 1343     		orrs	r3, r3, r2
 445:Src/LTC6811.c **** 	}
 1139              		.loc 1 445 11 view .LVU442
ARM GAS  /tmp/ccKppKJD.s 			page 37


 1140 01ce BB80     		strh	r3, [r7, #4]	@ movhi
 1141 01d0 78E7     		b	.L56
 1142              	.L67:
 449:Src/LTC6811.c **** 	}
 1143              		.loc 1 449 3 is_stmt 1 view .LVU443
 449:Src/LTC6811.c **** 	}
 1144              		.loc 1 449 33 is_stmt 0 view .LVU444
 1145 01d2 9DF80530 		ldrb	r3, [sp, #5]	@ zero_extendqisi2
 449:Src/LTC6811.c **** 	}
 1146              		.loc 1 449 37 view .LVU445
 1147 01d6 1B02     		lsls	r3, r3, #8
 449:Src/LTC6811.c **** 	}
 1148              		.loc 1 449 13 view .LVU446
 1149 01d8 1BB2     		sxth	r3, r3
 449:Src/LTC6811.c **** 	}
 1150              		.loc 1 449 63 view .LVU447
 1151 01da 9DF80420 		ldrb	r2, [sp, #4]	@ zero_extendqisi2
 449:Src/LTC6811.c **** 	}
 1152              		.loc 1 449 53 view .LVU448
 1153 01de 1343     		orrs	r3, r3, r2
 449:Src/LTC6811.c **** 	}
 1154              		.loc 1 449 11 view .LVU449
 1155 01e0 FB80     		strh	r3, [r7, #6]	@ movhi
 1156 01e2 72E7     		b	.L57
 1157              	.L68:
 453:Src/LTC6811.c **** 		data[1] = (uint16_t) ((rx_data[6] << 8) & 0xFF00) | (rx_data[7] & 0x00FF);
 1158              		.loc 1 453 3 is_stmt 1 view .LVU450
 453:Src/LTC6811.c **** 		data[1] = (uint16_t) ((rx_data[6] << 8) & 0xFF00) | (rx_data[7] & 0x00FF);
 1159              		.loc 1 453 33 is_stmt 0 view .LVU451
 1160 01e4 9DF80430 		ldrb	r3, [sp, #4]	@ zero_extendqisi2
 453:Src/LTC6811.c **** 		data[1] = (uint16_t) ((rx_data[6] << 8) & 0xFF00) | (rx_data[7] & 0x00FF);
 1161              		.loc 1 453 37 view .LVU452
 1162 01e8 1B02     		lsls	r3, r3, #8
 453:Src/LTC6811.c **** 		data[1] = (uint16_t) ((rx_data[6] << 8) & 0xFF00) | (rx_data[7] & 0x00FF);
 1163              		.loc 1 453 13 view .LVU453
 1164 01ea 1BB2     		sxth	r3, r3
 453:Src/LTC6811.c **** 		data[1] = (uint16_t) ((rx_data[6] << 8) & 0xFF00) | (rx_data[7] & 0x00FF);
 1165              		.loc 1 453 63 view .LVU454
 1166 01ec 9DF80520 		ldrb	r2, [sp, #5]	@ zero_extendqisi2
 453:Src/LTC6811.c **** 		data[1] = (uint16_t) ((rx_data[6] << 8) & 0xFF00) | (rx_data[7] & 0x00FF);
 1167              		.loc 1 453 53 view .LVU455
 1168 01f0 1343     		orrs	r3, r3, r2
 453:Src/LTC6811.c **** 		data[1] = (uint16_t) ((rx_data[6] << 8) & 0xFF00) | (rx_data[7] & 0x00FF);
 1169              		.loc 1 453 11 view .LVU456
 1170 01f2 3B80     		strh	r3, [r7]	@ movhi
 454:Src/LTC6811.c **** 		data[2] = (uint16_t) ((rx_data[8] << 8) & 0xFF00) | (rx_data[9] & 0x00FF);
 1171              		.loc 1 454 3 is_stmt 1 view .LVU457
 454:Src/LTC6811.c **** 		data[2] = (uint16_t) ((rx_data[8] << 8) & 0xFF00) | (rx_data[9] & 0x00FF);
 1172              		.loc 1 454 33 is_stmt 0 view .LVU458
 1173 01f4 9DF80630 		ldrb	r3, [sp, #6]	@ zero_extendqisi2
 454:Src/LTC6811.c **** 		data[2] = (uint16_t) ((rx_data[8] << 8) & 0xFF00) | (rx_data[9] & 0x00FF);
 1174              		.loc 1 454 37 view .LVU459
 1175 01f8 1B02     		lsls	r3, r3, #8
 454:Src/LTC6811.c **** 		data[2] = (uint16_t) ((rx_data[8] << 8) & 0xFF00) | (rx_data[9] & 0x00FF);
 1176              		.loc 1 454 13 view .LVU460
 1177 01fa 1BB2     		sxth	r3, r3
 454:Src/LTC6811.c **** 		data[2] = (uint16_t) ((rx_data[8] << 8) & 0xFF00) | (rx_data[9] & 0x00FF);
ARM GAS  /tmp/ccKppKJD.s 			page 38


 1178              		.loc 1 454 63 view .LVU461
 1179 01fc 9DF80720 		ldrb	r2, [sp, #7]	@ zero_extendqisi2
 454:Src/LTC6811.c **** 		data[2] = (uint16_t) ((rx_data[8] << 8) & 0xFF00) | (rx_data[9] & 0x00FF);
 1180              		.loc 1 454 53 view .LVU462
 1181 0200 1343     		orrs	r3, r3, r2
 454:Src/LTC6811.c **** 		data[2] = (uint16_t) ((rx_data[8] << 8) & 0xFF00) | (rx_data[9] & 0x00FF);
 1182              		.loc 1 454 11 view .LVU463
 1183 0202 7B80     		strh	r3, [r7, #2]	@ movhi
 455:Src/LTC6811.c **** 	}
 1184              		.loc 1 455 3 is_stmt 1 view .LVU464
 455:Src/LTC6811.c **** 	}
 1185              		.loc 1 455 33 is_stmt 0 view .LVU465
 1186 0204 9DF80830 		ldrb	r3, [sp, #8]	@ zero_extendqisi2
 455:Src/LTC6811.c **** 	}
 1187              		.loc 1 455 37 view .LVU466
 1188 0208 1B02     		lsls	r3, r3, #8
 455:Src/LTC6811.c **** 	}
 1189              		.loc 1 455 13 view .LVU467
 1190 020a 1BB2     		sxth	r3, r3
 455:Src/LTC6811.c **** 	}
 1191              		.loc 1 455 63 view .LVU468
 1192 020c 9DF80920 		ldrb	r2, [sp, #9]	@ zero_extendqisi2
 455:Src/LTC6811.c **** 	}
 1193              		.loc 1 455 53 view .LVU469
 1194 0210 1343     		orrs	r3, r3, r2
 455:Src/LTC6811.c **** 	}
 1195              		.loc 1 455 11 view .LVU470
 1196 0212 BB80     		strh	r3, [r7, #4]	@ movhi
 1197 0214 5CE7     		b	.L58
 1198              		.cfi_endproc
 1199              	.LFE75:
 1201              		.section	.text.readConfig,"ax",%progbits
 1202              		.align	1
 1203              		.global	readConfig
 1204              		.syntax unified
 1205              		.thumb
 1206              		.thumb_func
 1207              		.fpu softvfp
 1209              	readConfig:
 1210              	.LVL58:
 1211              	.LFB73:
 317:Src/LTC6811.c **** 	
 1212              		.loc 1 317 50 is_stmt 1 view -0
 1213              		.cfi_startproc
 1214              		@ args = 0, pretend = 0, frame = 0
 1215              		@ frame_needed = 0, uses_anonymous_args = 0
 317:Src/LTC6811.c **** 	
 1216              		.loc 1 317 50 is_stmt 0 view .LVU472
 1217 0000 70B5     		push	{r4, r5, r6, lr}
 1218              	.LCFI14:
 1219              		.cfi_def_cfa_offset 16
 1220              		.cfi_offset 4, -16
 1221              		.cfi_offset 5, -12
 1222              		.cfi_offset 6, -8
 1223              		.cfi_offset 14, -4
 1224 0002 0646     		mov	r6, r0
 1225 0004 0C46     		mov	r4, r1
ARM GAS  /tmp/ccKppKJD.s 			page 39


 319:Src/LTC6811.c **** 	bool dataValid = false;
 1226              		.loc 1 319 2 is_stmt 1 view .LVU473
 320:Src/LTC6811.c **** 	
 1227              		.loc 1 320 2 view .LVU474
 1228              	.LVL59:
 322:Src/LTC6811.c **** 	
 1229              		.loc 1 322 2 view .LVU475
 322:Src/LTC6811.c **** 	
 1230              		.loc 1 322 23 is_stmt 0 view .LVU476
 1231 0006 0620     		movs	r0, #6
 1232              	.LVL60:
 322:Src/LTC6811.c **** 	
 1233              		.loc 1 322 23 view .LVU477
 1234 0008 FFF7FEFF 		bl	malloc
 1235              	.LVL61:
 322:Src/LTC6811.c **** 	
 1236              		.loc 1 322 23 view .LVU478
 1237 000c 0546     		mov	r5, r0
 1238              	.LVL62:
 324:Src/LTC6811.c **** 	
 1239              		.loc 1 324 2 is_stmt 1 view .LVU479
 324:Src/LTC6811.c **** 	
 1240              		.loc 1 324 14 is_stmt 0 view .LVU480
 1241 000e 0246     		mov	r2, r0
 1242 0010 3146     		mov	r1, r6
 1243 0012 0220     		movs	r0, #2
 1244              	.LVL63:
 324:Src/LTC6811.c **** 	
 1245              		.loc 1 324 14 view .LVU481
 1246 0014 FFF7FEFF 		bl	readRegister
 1247              	.LVL64:
 326:Src/LTC6811.c **** 	cfg[1] = (uint8_t) (config[0] & 0xFF);
 1248              		.loc 1 326 2 is_stmt 1 view .LVU482
 326:Src/LTC6811.c **** 	cfg[1] = (uint8_t) (config[0] & 0xFF);
 1249              		.loc 1 326 29 is_stmt 0 view .LVU483
 1250 0018 2B88     		ldrh	r3, [r5]
 326:Src/LTC6811.c **** 	cfg[1] = (uint8_t) (config[0] & 0xFF);
 1251              		.loc 1 326 11 view .LVU484
 1252 001a 1A0A     		lsrs	r2, r3, #8
 326:Src/LTC6811.c **** 	cfg[1] = (uint8_t) (config[0] & 0xFF);
 1253              		.loc 1 326 9 view .LVU485
 1254 001c 2270     		strb	r2, [r4]
 327:Src/LTC6811.c **** 	cfg[2] = (uint8_t) ((config[1] >> 8) & 0xFF);
 1255              		.loc 1 327 2 is_stmt 1 view .LVU486
 327:Src/LTC6811.c **** 	cfg[2] = (uint8_t) ((config[1] >> 8) & 0xFF);
 1256              		.loc 1 327 9 is_stmt 0 view .LVU487
 1257 001e 6370     		strb	r3, [r4, #1]
 328:Src/LTC6811.c **** 	cfg[3] = (uint8_t) (config[1] & 0xFF);
 1258              		.loc 1 328 2 is_stmt 1 view .LVU488
 328:Src/LTC6811.c **** 	cfg[3] = (uint8_t) (config[1] & 0xFF);
 1259              		.loc 1 328 29 is_stmt 0 view .LVU489
 1260 0020 6B88     		ldrh	r3, [r5, #2]
 328:Src/LTC6811.c **** 	cfg[3] = (uint8_t) (config[1] & 0xFF);
 1261              		.loc 1 328 11 view .LVU490
 1262 0022 1A0A     		lsrs	r2, r3, #8
 328:Src/LTC6811.c **** 	cfg[3] = (uint8_t) (config[1] & 0xFF);
 1263              		.loc 1 328 9 view .LVU491
ARM GAS  /tmp/ccKppKJD.s 			page 40


 1264 0024 A270     		strb	r2, [r4, #2]
 329:Src/LTC6811.c **** 	cfg[4] = (uint8_t) ((config[2] >> 8) & 0xFF);
 1265              		.loc 1 329 2 is_stmt 1 view .LVU492
 329:Src/LTC6811.c **** 	cfg[4] = (uint8_t) ((config[2] >> 8) & 0xFF);
 1266              		.loc 1 329 9 is_stmt 0 view .LVU493
 1267 0026 E370     		strb	r3, [r4, #3]
 330:Src/LTC6811.c **** 	cfg[5] = (uint8_t) (config[2] & 0xFF);
 1268              		.loc 1 330 2 is_stmt 1 view .LVU494
 330:Src/LTC6811.c **** 	cfg[5] = (uint8_t) (config[2] & 0xFF);
 1269              		.loc 1 330 29 is_stmt 0 view .LVU495
 1270 0028 AB88     		ldrh	r3, [r5, #4]
 330:Src/LTC6811.c **** 	cfg[5] = (uint8_t) (config[2] & 0xFF);
 1271              		.loc 1 330 11 view .LVU496
 1272 002a 1A0A     		lsrs	r2, r3, #8
 330:Src/LTC6811.c **** 	cfg[5] = (uint8_t) (config[2] & 0xFF);
 1273              		.loc 1 330 9 view .LVU497
 1274 002c 2271     		strb	r2, [r4, #4]
 331:Src/LTC6811.c **** 	
 1275              		.loc 1 331 2 is_stmt 1 view .LVU498
 331:Src/LTC6811.c **** 	
 1276              		.loc 1 331 9 is_stmt 0 view .LVU499
 1277 002e 6371     		strb	r3, [r4, #5]
 333:Src/LTC6811.c **** }
 1278              		.loc 1 333 2 is_stmt 1 view .LVU500
 334:Src/LTC6811.c **** 
 1279              		.loc 1 334 1 is_stmt 0 view .LVU501
 1280 0030 70BD     		pop	{r4, r5, r6, pc}
 334:Src/LTC6811.c **** 
 1281              		.loc 1 334 1 view .LVU502
 1282              		.cfi_endproc
 1283              	.LFE73:
 1285              		.section	.text.sendBroadcastCommand,"ax",%progbits
 1286              		.align	1
 1287              		.global	sendBroadcastCommand
 1288              		.syntax unified
 1289              		.thumb
 1290              		.thumb_func
 1291              		.fpu softvfp
 1293              	sendBroadcastCommand:
 1294              	.LVL65:
 1295              	.LFB76:
 462:Src/LTC6811.c **** 	
 1296              		.loc 1 462 55 is_stmt 1 view -0
 1297              		.cfi_startproc
 1298              		@ args = 0, pretend = 0, frame = 8
 1299              		@ frame_needed = 0, uses_anonymous_args = 0
 462:Src/LTC6811.c **** 	
 1300              		.loc 1 462 55 is_stmt 0 view .LVU504
 1301 0000 00B5     		push	{lr}
 1302              	.LCFI15:
 1303              		.cfi_def_cfa_offset 4
 1304              		.cfi_offset 14, -4
 1305 0002 83B0     		sub	sp, sp, #12
 1306              	.LCFI16:
 1307              		.cfi_def_cfa_offset 16
 464:Src/LTC6811.c **** 	uint16_t PEC_return;
 1308              		.loc 1 464 2 is_stmt 1 view .LVU505
ARM GAS  /tmp/ccKppKJD.s 			page 41


 465:Src/LTC6811.c **** 	
 1309              		.loc 1 465 2 view .LVU506
 467:Src/LTC6811.c **** 	cmd[1] = (uint8_t) (command & 0xFF);
 1310              		.loc 1 467 2 view .LVU507
 467:Src/LTC6811.c **** 	cmd[1] = (uint8_t) (command & 0xFF);
 1311              		.loc 1 467 11 is_stmt 0 view .LVU508
 1312 0004 C0F30323 		ubfx	r3, r0, #8, #4
 467:Src/LTC6811.c **** 	cmd[1] = (uint8_t) (command & 0xFF);
 1313              		.loc 1 467 9 view .LVU509
 1314 0008 8DF80430 		strb	r3, [sp, #4]
 468:Src/LTC6811.c **** 	
 1315              		.loc 1 468 2 is_stmt 1 view .LVU510
 468:Src/LTC6811.c **** 	
 1316              		.loc 1 468 9 is_stmt 0 view .LVU511
 1317 000c 8DF80500 		strb	r0, [sp, #5]
 470:Src/LTC6811.c **** 	
 1318              		.loc 1 470 2 is_stmt 1 view .LVU512
 470:Src/LTC6811.c **** 	
 1319              		.loc 1 470 15 is_stmt 0 view .LVU513
 1320 0010 01A9     		add	r1, sp, #4
 1321 0012 0220     		movs	r0, #2
 1322              	.LVL66:
 470:Src/LTC6811.c **** 	
 1323              		.loc 1 470 15 view .LVU514
 1324 0014 FFF7FEFF 		bl	calculatePEC
 1325              	.LVL67:
 472:Src/LTC6811.c **** 	cmd[3] = PEC_return & 0xFF;
 1326              		.loc 1 472 2 is_stmt 1 view .LVU515
 472:Src/LTC6811.c **** 	cmd[3] = PEC_return & 0xFF;
 1327              		.loc 1 472 9 is_stmt 0 view .LVU516
 1328 0018 030A     		lsrs	r3, r0, #8
 1329 001a 8DF80630 		strb	r3, [sp, #6]
 473:Src/LTC6811.c **** 	
 1330              		.loc 1 473 2 is_stmt 1 view .LVU517
 473:Src/LTC6811.c **** 	
 1331              		.loc 1 473 9 is_stmt 0 view .LVU518
 1332 001e 8DF80700 		strb	r0, [sp, #7]
 475:Src/LTC6811.c **** };
 1333              		.loc 1 475 2 is_stmt 1 view .LVU519
 1334 0022 0421     		movs	r1, #4
 1335 0024 0DEB0100 		add	r0, sp, r1
 1336              	.LVL68:
 475:Src/LTC6811.c **** };
 1337              		.loc 1 475 2 is_stmt 0 view .LVU520
 1338 0028 FFF7FEFF 		bl	SPIWrite
 1339              	.LVL69:
 476:Src/LTC6811.c **** 
 1340              		.loc 1 476 1 view .LVU521
 1341 002c 03B0     		add	sp, sp, #12
 1342              	.LCFI17:
 1343              		.cfi_def_cfa_offset 4
 1344              		@ sp needed
 1345 002e 5DF804FB 		ldr	pc, [sp], #4
 1346              		.cfi_endproc
 1347              	.LFE76:
 1349              		.section	.text.sendAddressCommand,"ax",%progbits
 1350              		.align	1
ARM GAS  /tmp/ccKppKJD.s 			page 42


 1351              		.global	sendAddressCommand
 1352              		.syntax unified
 1353              		.thumb
 1354              		.thumb_func
 1355              		.fpu softvfp
 1357              	sendAddressCommand:
 1358              	.LVL70:
 1359              	.LFB77:
 478:Src/LTC6811.c **** 	
 1360              		.loc 1 478 70 is_stmt 1 view -0
 1361              		.cfi_startproc
 1362              		@ args = 0, pretend = 0, frame = 8
 1363              		@ frame_needed = 0, uses_anonymous_args = 0
 478:Src/LTC6811.c **** 	
 1364              		.loc 1 478 70 is_stmt 0 view .LVU523
 1365 0000 70B5     		push	{r4, r5, r6, lr}
 1366              	.LCFI18:
 1367              		.cfi_def_cfa_offset 16
 1368              		.cfi_offset 4, -16
 1369              		.cfi_offset 5, -12
 1370              		.cfi_offset 6, -8
 1371              		.cfi_offset 14, -4
 1372 0002 82B0     		sub	sp, sp, #8
 1373              	.LCFI19:
 1374              		.cfi_def_cfa_offset 24
 1375 0004 0546     		mov	r5, r0
 1376 0006 0C46     		mov	r4, r1
 480:Src/LTC6811.c **** 	uint16_t PEC_return;
 1377              		.loc 1 480 2 is_stmt 1 view .LVU524
 481:Src/LTC6811.c **** 	uint8_t *msbytes;
 1378              		.loc 1 481 2 view .LVU525
 482:Src/LTC6811.c **** 	
 1379              		.loc 1 482 2 view .LVU526
 484:Src/LTC6811.c **** 	
 1380              		.loc 1 484 2 view .LVU527
 484:Src/LTC6811.c **** 	
 1381              		.loc 1 484 23 is_stmt 0 view .LVU528
 1382 0008 0220     		movs	r0, #2
 1383              	.LVL71:
 484:Src/LTC6811.c **** 	
 1384              		.loc 1 484 23 view .LVU529
 1385 000a FFF7FEFF 		bl	malloc
 1386              	.LVL72:
 484:Src/LTC6811.c **** 	
 1387              		.loc 1 484 23 view .LVU530
 1388 000e 0646     		mov	r6, r0
 1389              	.LVL73:
 486:Src/LTC6811.c **** 	msbytes[1] = (uint8_t) (command & 0xFF);
 1390              		.loc 1 486 2 is_stmt 1 view .LVU531
 486:Src/LTC6811.c **** 	msbytes[1] = (uint8_t) (command & 0xFF);
 1391              		.loc 1 486 43 is_stmt 0 view .LVU532
 1392 0010 E300     		lsls	r3, r4, #3
 486:Src/LTC6811.c **** 	msbytes[1] = (uint8_t) (command & 0xFF);
 1393              		.loc 1 486 49 view .LVU533
 1394 0012 03F07803 		and	r3, r3, #120
 486:Src/LTC6811.c **** 	msbytes[1] = (uint8_t) (command & 0xFF);
 1395              		.loc 1 486 31 view .LVU534
ARM GAS  /tmp/ccKppKJD.s 			page 43


 1396 0016 63F07F03 		orn	r3, r3, #127
 486:Src/LTC6811.c **** 	msbytes[1] = (uint8_t) (command & 0xFF);
 1397              		.loc 1 486 75 view .LVU535
 1398 001a C5F30224 		ubfx	r4, r5, #8, #3
 486:Src/LTC6811.c **** 	msbytes[1] = (uint8_t) (command & 0xFF);
 1399              		.loc 1 486 57 view .LVU536
 1400 001e 2343     		orrs	r3, r3, r4
 486:Src/LTC6811.c **** 	msbytes[1] = (uint8_t) (command & 0xFF);
 1401              		.loc 1 486 15 view .LVU537
 1402 0020 DBB2     		uxtb	r3, r3
 486:Src/LTC6811.c **** 	msbytes[1] = (uint8_t) (command & 0xFF);
 1403              		.loc 1 486 13 view .LVU538
 1404 0022 0370     		strb	r3, [r0]
 487:Src/LTC6811.c **** 
 1405              		.loc 1 487 2 is_stmt 1 view .LVU539
 487:Src/LTC6811.c **** 
 1406              		.loc 1 487 15 is_stmt 0 view .LVU540
 1407 0024 EDB2     		uxtb	r5, r5
 487:Src/LTC6811.c **** 
 1408              		.loc 1 487 13 view .LVU541
 1409 0026 4570     		strb	r5, [r0, #1]
 489:Src/LTC6811.c **** 	cmd[1] = msbytes[1];
 1410              		.loc 1 489 2 is_stmt 1 view .LVU542
 489:Src/LTC6811.c **** 	cmd[1] = msbytes[1];
 1411              		.loc 1 489 9 is_stmt 0 view .LVU543
 1412 0028 8DF80430 		strb	r3, [sp, #4]
 490:Src/LTC6811.c **** 	
 1413              		.loc 1 490 2 is_stmt 1 view .LVU544
 490:Src/LTC6811.c **** 	
 1414              		.loc 1 490 9 is_stmt 0 view .LVU545
 1415 002c 8DF80550 		strb	r5, [sp, #5]
 492:Src/LTC6811.c **** 	
 1416              		.loc 1 492 2 is_stmt 1 view .LVU546
 492:Src/LTC6811.c **** 	
 1417              		.loc 1 492 15 is_stmt 0 view .LVU547
 1418 0030 0146     		mov	r1, r0
 1419 0032 0220     		movs	r0, #2
 1420              	.LVL74:
 492:Src/LTC6811.c **** 	
 1421              		.loc 1 492 15 view .LVU548
 1422 0034 FFF7FEFF 		bl	calculatePEC
 1423              	.LVL75:
 494:Src/LTC6811.c **** 	cmd[3] = PEC_return & 0xFF;
 1424              		.loc 1 494 2 is_stmt 1 view .LVU549
 494:Src/LTC6811.c **** 	cmd[3] = PEC_return & 0xFF;
 1425              		.loc 1 494 9 is_stmt 0 view .LVU550
 1426 0038 030A     		lsrs	r3, r0, #8
 1427 003a 8DF80630 		strb	r3, [sp, #6]
 495:Src/LTC6811.c **** 	
 1428              		.loc 1 495 2 is_stmt 1 view .LVU551
 495:Src/LTC6811.c **** 	
 1429              		.loc 1 495 9 is_stmt 0 view .LVU552
 1430 003e 8DF80700 		strb	r0, [sp, #7]
 497:Src/LTC6811.c **** 	
 1431              		.loc 1 497 2 is_stmt 1 view .LVU553
 1432 0042 0421     		movs	r1, #4
 1433 0044 0DEB0100 		add	r0, sp, r1
ARM GAS  /tmp/ccKppKJD.s 			page 44


 1434              	.LVL76:
 497:Src/LTC6811.c **** 	
 1435              		.loc 1 497 2 is_stmt 0 view .LVU554
 1436 0048 FFF7FEFF 		bl	SPIWrite
 1437              	.LVL77:
 499:Src/LTC6811.c **** };
 1438              		.loc 1 499 2 is_stmt 1 view .LVU555
 1439 004c 3046     		mov	r0, r6
 1440 004e FFF7FEFF 		bl	free
 1441              	.LVL78:
 500:Src/LTC6811.c **** 
 1442              		.loc 1 500 1 is_stmt 0 view .LVU556
 1443 0052 02B0     		add	sp, sp, #8
 1444              	.LCFI20:
 1445              		.cfi_def_cfa_offset 16
 1446              		@ sp needed
 1447 0054 70BD     		pop	{r4, r5, r6, pc}
 500:Src/LTC6811.c **** 
 1448              		.loc 1 500 1 view .LVU557
 1449              		.cfi_endproc
 1450              	.LFE77:
 1452              		.section	.text.readCellVoltage,"ax",%progbits
 1453              		.align	1
 1454              		.global	readCellVoltage
 1455              		.syntax unified
 1456              		.thumb
 1457              		.thumb_func
 1458              		.fpu softvfp
 1460              	readCellVoltage:
 1461              	.LVL79:
 1462              	.LFB69:
 223:Src/LTC6811.c **** 	
 1463              		.loc 1 223 65 is_stmt 1 view -0
 1464              		.cfi_startproc
 1465              		@ args = 0, pretend = 0, frame = 0
 1466              		@ frame_needed = 0, uses_anonymous_args = 0
 223:Src/LTC6811.c **** 	
 1467              		.loc 1 223 65 is_stmt 0 view .LVU559
 1468 0000 F8B5     		push	{r3, r4, r5, r6, r7, lr}
 1469              	.LCFI21:
 1470              		.cfi_def_cfa_offset 24
 1471              		.cfi_offset 3, -24
 1472              		.cfi_offset 4, -20
 1473              		.cfi_offset 5, -16
 1474              		.cfi_offset 6, -12
 1475              		.cfi_offset 7, -8
 1476              		.cfi_offset 14, -4
 1477 0002 0746     		mov	r7, r0
 1478 0004 0D46     		mov	r5, r1
 225:Src/LTC6811.c **** 	bool dataValid = true;
 1479              		.loc 1 225 2 is_stmt 1 view .LVU560
 1480              	.LVL80:
 226:Src/LTC6811.c **** 	uint16_t *voltage;
 1481              		.loc 1 226 2 view .LVU561
 227:Src/LTC6811.c **** 	
 1482              		.loc 1 227 2 view .LVU562
 229:Src/LTC6811.c **** 	
ARM GAS  /tmp/ccKppKJD.s 			page 45


 1483              		.loc 1 229 2 view .LVU563
 229:Src/LTC6811.c **** 	
 1484              		.loc 1 229 24 is_stmt 0 view .LVU564
 1485 0006 1820     		movs	r0, #24
 1486              	.LVL81:
 229:Src/LTC6811.c **** 	
 1487              		.loc 1 229 24 view .LVU565
 1488 0008 FFF7FEFF 		bl	malloc
 1489              	.LVL82:
 229:Src/LTC6811.c **** 	
 1490              		.loc 1 229 24 view .LVU566
 1491 000c 0446     		mov	r4, r0
 1492              	.LVL83:
 231:Src/LTC6811.c **** 
 1493              		.loc 1 231 2 is_stmt 1 view .LVU567
 1494 000e 3946     		mov	r1, r7
 1495 0010 4FF41870 		mov	r0, #608
 1496              	.LVL84:
 231:Src/LTC6811.c **** 
 1497              		.loc 1 231 2 is_stmt 0 view .LVU568
 1498 0014 FFF7FEFF 		bl	sendAddressCommand
 1499              	.LVL85:
 233:Src/LTC6811.c **** 	
 1500              		.loc 1 233 2 is_stmt 1 view .LVU569
 1501 0018 0F20     		movs	r0, #15
 1502 001a FFF7FEFF 		bl	HAL_Delay
 1503              	.LVL86:
 235:Src/LTC6811.c **** 	dataValid = dataValid & PEC_check;
 1504              		.loc 1 235 2 view .LVU570
 235:Src/LTC6811.c **** 	dataValid = dataValid & PEC_check;
 1505              		.loc 1 235 14 is_stmt 0 view .LVU571
 1506 001e 2246     		mov	r2, r4
 1507 0020 3946     		mov	r1, r7
 1508 0022 0420     		movs	r0, #4
 1509 0024 FFF7FEFF 		bl	readRegister
 1510              	.LVL87:
 1511 0028 0646     		mov	r6, r0
 1512              	.LVL88:
 236:Src/LTC6811.c **** 	PEC_check = readRegister(ReadCellVoltageRegisterGroup4to6, address, voltage);
 1513              		.loc 1 236 2 is_stmt 1 view .LVU572
 237:Src/LTC6811.c **** 	dataValid = dataValid & PEC_check;
 1514              		.loc 1 237 2 view .LVU573
 237:Src/LTC6811.c **** 	dataValid = dataValid & PEC_check;
 1515              		.loc 1 237 14 is_stmt 0 view .LVU574
 1516 002a 2246     		mov	r2, r4
 1517 002c 3946     		mov	r1, r7
 1518 002e 0620     		movs	r0, #6
 1519 0030 FFF7FEFF 		bl	readRegister
 1520              	.LVL89:
 238:Src/LTC6811.c **** 	PEC_check = readRegister(ReadCellVoltageRegisterGroup7to9, address, voltage);
 1521              		.loc 1 238 2 is_stmt 1 view .LVU575
 1522 0034 0640     		ands	r6, r6, r0
 1523              	.LVL90:
 238:Src/LTC6811.c **** 	PEC_check = readRegister(ReadCellVoltageRegisterGroup7to9, address, voltage);
 1524              		.loc 1 238 2 is_stmt 0 view .LVU576
 1525 0036 F6B2     		uxtb	r6, r6
 1526              	.LVL91:
ARM GAS  /tmp/ccKppKJD.s 			page 46


 239:Src/LTC6811.c **** 	dataValid = dataValid & PEC_check;
 1527              		.loc 1 239 2 is_stmt 1 view .LVU577
 239:Src/LTC6811.c **** 	dataValid = dataValid & PEC_check;
 1528              		.loc 1 239 14 is_stmt 0 view .LVU578
 1529 0038 2246     		mov	r2, r4
 1530 003a 3946     		mov	r1, r7
 1531 003c 0820     		movs	r0, #8
 1532              	.LVL92:
 239:Src/LTC6811.c **** 	dataValid = dataValid & PEC_check;
 1533              		.loc 1 239 14 view .LVU579
 1534 003e FFF7FEFF 		bl	readRegister
 1535              	.LVL93:
 240:Src/LTC6811.c **** 	PEC_check = readRegister(ReadCellVoltageRegisterGroup10to12, address, voltage);
 1536              		.loc 1 240 2 is_stmt 1 view .LVU580
 1537 0042 0640     		ands	r6, r6, r0
 1538              	.LVL94:
 241:Src/LTC6811.c **** 	dataValid = dataValid & PEC_check;
 1539              		.loc 1 241 2 view .LVU581
 241:Src/LTC6811.c **** 	dataValid = dataValid & PEC_check;
 1540              		.loc 1 241 14 is_stmt 0 view .LVU582
 1541 0044 2246     		mov	r2, r4
 1542 0046 3946     		mov	r1, r7
 1543 0048 0A20     		movs	r0, #10
 1544              	.LVL95:
 241:Src/LTC6811.c **** 	dataValid = dataValid & PEC_check;
 1545              		.loc 1 241 14 view .LVU583
 1546 004a FFF7FEFF 		bl	readRegister
 1547              	.LVL96:
 242:Src/LTC6811.c **** 	
 1548              		.loc 1 242 2 is_stmt 1 view .LVU584
 1549 004e 0640     		ands	r6, r6, r0
 1550              	.LVL97:
 244:Src/LTC6811.c **** 		cellVoltage[i] = voltage[i];
 1551              		.loc 1 244 2 view .LVU585
 1552              	.LBB8:
 244:Src/LTC6811.c **** 		cellVoltage[i] = voltage[i];
 1553              		.loc 1 244 7 view .LVU586
 244:Src/LTC6811.c **** 		cellVoltage[i] = voltage[i];
 1554              		.loc 1 244 15 is_stmt 0 view .LVU587
 1555 0050 0023     		movs	r3, #0
 1556              	.LVL98:
 1557              	.L76:
 244:Src/LTC6811.c **** 		cellVoltage[i] = voltage[i];
 1558              		.loc 1 244 2 discriminator 1 view .LVU588
 1559 0052 0B2B     		cmp	r3, #11
 1560 0054 06D8     		bhi	.L79
 245:Src/LTC6811.c **** 	}
 1561              		.loc 1 245 3 is_stmt 1 discriminator 3 view .LVU589
 245:Src/LTC6811.c **** 	}
 1562              		.loc 1 245 27 is_stmt 0 discriminator 3 view .LVU590
 1563 0056 34F81320 		ldrh	r2, [r4, r3, lsl #1]
 245:Src/LTC6811.c **** 	}
 1564              		.loc 1 245 18 discriminator 3 view .LVU591
 1565 005a 25F81320 		strh	r2, [r5, r3, lsl #1]	@ movhi
 244:Src/LTC6811.c **** 		cellVoltage[i] = voltage[i];
 1566              		.loc 1 244 31 discriminator 3 view .LVU592
 1567 005e 0133     		adds	r3, r3, #1
ARM GAS  /tmp/ccKppKJD.s 			page 47


 1568              	.LVL99:
 244:Src/LTC6811.c **** 		cellVoltage[i] = voltage[i];
 1569              		.loc 1 244 31 discriminator 3 view .LVU593
 1570 0060 DBB2     		uxtb	r3, r3
 1571              	.LVL100:
 244:Src/LTC6811.c **** 		cellVoltage[i] = voltage[i];
 1572              		.loc 1 244 31 discriminator 3 view .LVU594
 1573 0062 F6E7     		b	.L76
 1574              	.L79:
 244:Src/LTC6811.c **** 		cellVoltage[i] = voltage[i];
 1575              		.loc 1 244 31 discriminator 3 view .LVU595
 1576              	.LBE8:
 248:Src/LTC6811.c **** 	
 1577              		.loc 1 248 2 is_stmt 1 view .LVU596
 1578 0064 2046     		mov	r0, r4
 1579              	.LVL101:
 248:Src/LTC6811.c **** 	
 1580              		.loc 1 248 2 is_stmt 0 view .LVU597
 1581 0066 FFF7FEFF 		bl	free
 1582              	.LVL102:
 250:Src/LTC6811.c **** 	
 1583              		.loc 1 250 2 is_stmt 1 view .LVU598
 252:Src/LTC6811.c **** 
 1584              		.loc 1 252 1 is_stmt 0 view .LVU599
 1585 006a 3046     		mov	r0, r6
 1586 006c F8BD     		pop	{r3, r4, r5, r6, r7, pc}
 252:Src/LTC6811.c **** 
 1587              		.loc 1 252 1 view .LVU600
 1588              		.cfi_endproc
 1589              	.LFE69:
 1591              		.section	.text.readAllCellVoltages,"ax",%progbits
 1592              		.align	1
 1593              		.global	readAllCellVoltages
 1594              		.syntax unified
 1595              		.thumb
 1596              		.thumb_func
 1597              		.fpu softvfp
 1599              	readAllCellVoltages:
 1600              	.LVL103:
 1601              	.LFB70:
 254:Src/LTC6811.c **** 	
 1602              		.loc 1 254 56 is_stmt 1 view -0
 1603              		.cfi_startproc
 1604              		@ args = 0, pretend = 0, frame = 24
 1605              		@ frame_needed = 0, uses_anonymous_args = 0
 254:Src/LTC6811.c **** 	
 1606              		.loc 1 254 56 is_stmt 0 view .LVU602
 1607 0000 30B5     		push	{r4, r5, lr}
 1608              	.LCFI22:
 1609              		.cfi_def_cfa_offset 12
 1610              		.cfi_offset 4, -12
 1611              		.cfi_offset 5, -8
 1612              		.cfi_offset 14, -4
 1613 0002 87B0     		sub	sp, sp, #28
 1614              	.LCFI23:
 1615              		.cfi_def_cfa_offset 40
 1616 0004 0546     		mov	r5, r0
ARM GAS  /tmp/ccKppKJD.s 			page 48


 256:Src/LTC6811.c **** 	
 1617              		.loc 1 256 2 is_stmt 1 view .LVU603
 258:Src/LTC6811.c **** 		
 1618              		.loc 1 258 2 view .LVU604
 1619              	.LBB9:
 258:Src/LTC6811.c **** 		
 1620              		.loc 1 258 7 view .LVU605
 1621              	.LVL104:
 258:Src/LTC6811.c **** 		
 1622              		.loc 1 258 15 is_stmt 0 view .LVU606
 1623 0006 0024     		movs	r4, #0
 258:Src/LTC6811.c **** 		
 1624              		.loc 1 258 2 view .LVU607
 1625 0008 01E0     		b	.L81
 1626              	.LVL105:
 1627              	.L87:
 258:Src/LTC6811.c **** 		
 1628              		.loc 1 258 31 discriminator 2 view .LVU608
 1629 000a 0134     		adds	r4, r4, #1
 1630              	.LVL106:
 258:Src/LTC6811.c **** 		
 1631              		.loc 1 258 31 discriminator 2 view .LVU609
 1632 000c E4B2     		uxtb	r4, r4
 1633              	.LVL107:
 1634              	.L81:
 258:Src/LTC6811.c **** 		
 1635              		.loc 1 258 2 discriminator 1 view .LVU610
 1636 000e 0B2C     		cmp	r4, #11
 1637 0010 0ED8     		bhi	.L86
 260:Src/LTC6811.c **** 		for (uint8_t j = 0; i < 12; i++) {
 1638              		.loc 1 260 3 is_stmt 1 view .LVU611
 1639 0012 6946     		mov	r1, sp
 1640 0014 2046     		mov	r0, r4
 1641 0016 FFF7FEFF 		bl	readCellVoltage
 1642              	.LVL108:
 261:Src/LTC6811.c **** 			cellVoltage[i][j] = boardVoltage[j];
 1643              		.loc 1 261 3 view .LVU612
 1644              	.LBB10:
 261:Src/LTC6811.c **** 			cellVoltage[i][j] = boardVoltage[j];
 1645              		.loc 1 261 8 view .LVU613
 1646              	.L82:
 261:Src/LTC6811.c **** 			cellVoltage[i][j] = boardVoltage[j];
 1647              		.loc 1 261 3 is_stmt 0 discriminator 1 view .LVU614
 1648 001a 0B2C     		cmp	r4, #11
 1649 001c F5D8     		bhi	.L87
 262:Src/LTC6811.c **** 		}
 1650              		.loc 1 262 4 is_stmt 1 discriminator 3 view .LVU615
 262:Src/LTC6811.c **** 		}
 1651              		.loc 1 262 15 is_stmt 0 discriminator 3 view .LVU616
 1652 001e 04EB4402 		add	r2, r4, r4, lsl #1
 1653 0022 D300     		lsls	r3, r2, #3
 262:Src/LTC6811.c **** 		}
 1654              		.loc 1 262 36 discriminator 3 view .LVU617
 1655 0024 BDF80020 		ldrh	r2, [sp]
 262:Src/LTC6811.c **** 		}
 1656              		.loc 1 262 22 discriminator 3 view .LVU618
 1657 0028 EA52     		strh	r2, [r5, r3]	@ movhi
ARM GAS  /tmp/ccKppKJD.s 			page 49


 261:Src/LTC6811.c **** 			cellVoltage[i][j] = boardVoltage[j];
 1658              		.loc 1 261 32 discriminator 3 view .LVU619
 1659 002a 0134     		adds	r4, r4, #1
 1660              	.LVL109:
 261:Src/LTC6811.c **** 			cellVoltage[i][j] = boardVoltage[j];
 1661              		.loc 1 261 32 discriminator 3 view .LVU620
 1662 002c E4B2     		uxtb	r4, r4
 1663              	.LVL110:
 261:Src/LTC6811.c **** 			cellVoltage[i][j] = boardVoltage[j];
 1664              		.loc 1 261 32 discriminator 3 view .LVU621
 1665 002e F4E7     		b	.L82
 1666              	.LVL111:
 1667              	.L86:
 261:Src/LTC6811.c **** 			cellVoltage[i][j] = boardVoltage[j];
 1668              		.loc 1 261 32 discriminator 3 view .LVU622
 1669              	.LBE10:
 1670              	.LBE9:
 266:Src/LTC6811.c **** }
 1671              		.loc 1 266 2 is_stmt 1 view .LVU623
 267:Src/LTC6811.c **** 
 1672              		.loc 1 267 1 is_stmt 0 view .LVU624
 1673 0030 0020     		movs	r0, #0
 1674 0032 07B0     		add	sp, sp, #28
 1675              	.LCFI24:
 1676              		.cfi_def_cfa_offset 12
 1677              		@ sp needed
 1678 0034 30BD     		pop	{r4, r5, pc}
 267:Src/LTC6811.c **** 
 1679              		.loc 1 267 1 view .LVU625
 1680              		.cfi_endproc
 1681              	.LFE70:
 1683              		.section	.text.checkCellConnection,"ax",%progbits
 1684              		.align	1
 1685              		.global	checkCellConnection
 1686              		.syntax unified
 1687              		.thumb
 1688              		.thumb_func
 1689              		.fpu softvfp
 1691              	checkCellConnection:
 1692              	.LVL112:
 1693              	.LFB74:
 336:Src/LTC6811.c **** 		
 1694              		.loc 1 336 77 is_stmt 1 view -0
 1695              		.cfi_startproc
 1696              		@ args = 0, pretend = 0, frame = 24
 1697              		@ frame_needed = 0, uses_anonymous_args = 0
 336:Src/LTC6811.c **** 		
 1698              		.loc 1 336 77 is_stmt 0 view .LVU627
 1699 0000 30B5     		push	{r4, r5, lr}
 1700              	.LCFI25:
 1701              		.cfi_def_cfa_offset 12
 1702              		.cfi_offset 4, -12
 1703              		.cfi_offset 5, -8
 1704              		.cfi_offset 14, -4
 1705 0002 87B0     		sub	sp, sp, #28
 1706              	.LCFI26:
 1707              		.cfi_def_cfa_offset 40
ARM GAS  /tmp/ccKppKJD.s 			page 50


 1708 0004 0446     		mov	r4, r0
 1709 0006 0D46     		mov	r5, r1
 338:Src/LTC6811.c **** 	
 1710              		.loc 1 338 2 is_stmt 1 view .LVU628
 340:Src/LTC6811.c **** 	sendBroadcastCommand(StartOpenWireConversionPulldown);
 1711              		.loc 1 340 2 view .LVU629
 1712 0008 40F22920 		movw	r0, #553
 1713              	.LVL113:
 340:Src/LTC6811.c **** 	sendBroadcastCommand(StartOpenWireConversionPulldown);
 1714              		.loc 1 340 2 is_stmt 0 view .LVU630
 1715 000c FFF7FEFF 		bl	sendBroadcastCommand
 1716              	.LVL114:
 341:Src/LTC6811.c **** 	
 1717              		.loc 1 341 2 is_stmt 1 view .LVU631
 1718 0010 40F22920 		movw	r0, #553
 1719 0014 FFF7FEFF 		bl	sendBroadcastCommand
 1720              	.LVL115:
 343:Src/LTC6811.c **** 	
 1721              		.loc 1 343 2 view .LVU632
 1722 0018 0F20     		movs	r0, #15
 1723 001a FFF7FEFF 		bl	HAL_Delay
 1724              	.LVL116:
 345:Src/LTC6811.c **** 	
 1725              		.loc 1 345 2 view .LVU633
 1726 001e 6946     		mov	r1, sp
 1727 0020 0020     		movs	r0, #0
 1728 0022 FFF7FEFF 		bl	readCellVoltage
 1729              	.LVL117:
 347:Src/LTC6811.c **** 		// if voltage fell by > 100mV
 1730              		.loc 1 347 2 view .LVU634
 1731              	.LBB11:
 347:Src/LTC6811.c **** 		// if voltage fell by > 100mV
 1732              		.loc 1 347 7 view .LVU635
 347:Src/LTC6811.c **** 		// if voltage fell by > 100mV
 1733              		.loc 1 347 15 is_stmt 0 view .LVU636
 1734 0026 0023     		movs	r3, #0
 347:Src/LTC6811.c **** 		// if voltage fell by > 100mV
 1735              		.loc 1 347 2 view .LVU637
 1736 0028 03E0     		b	.L89
 1737              	.LVL118:
 1738              	.L90:
 353:Src/LTC6811.c **** 		}
 1739              		.loc 1 353 4 is_stmt 1 view .LVU638
 353:Src/LTC6811.c **** 		}
 1740              		.loc 1 353 22 is_stmt 0 view .LVU639
 1741 002a 0122     		movs	r2, #1
 1742 002c EA54     		strb	r2, [r5, r3]
 1743              	.L91:
 347:Src/LTC6811.c **** 		// if voltage fell by > 100mV
 1744              		.loc 1 347 31 discriminator 2 view .LVU640
 1745 002e 0133     		adds	r3, r3, #1
 1746              	.LVL119:
 347:Src/LTC6811.c **** 		// if voltage fell by > 100mV
 1747              		.loc 1 347 31 discriminator 2 view .LVU641
 1748 0030 DBB2     		uxtb	r3, r3
 1749              	.LVL120:
 1750              	.L89:
ARM GAS  /tmp/ccKppKJD.s 			page 51


 347:Src/LTC6811.c **** 		// if voltage fell by > 100mV
 1751              		.loc 1 347 2 discriminator 1 view .LVU642
 1752 0032 0B2B     		cmp	r3, #11
 1753 0034 0DD8     		bhi	.L94
 349:Src/LTC6811.c **** 			cellConnection[i] = 0;
 1754              		.loc 1 349 3 is_stmt 1 view .LVU643
 349:Src/LTC6811.c **** 			cellConnection[i] = 0;
 1755              		.loc 1 349 19 is_stmt 0 view .LVU644
 1756 0036 06AA     		add	r2, sp, #24
 1757 0038 02EB4302 		add	r2, r2, r3, lsl #1
 1758 003c 32F8182C 		ldrh	r2, [r2, #-24]
 349:Src/LTC6811.c **** 			cellConnection[i] = 0;
 1759              		.loc 1 349 36 view .LVU645
 1760 0040 34F81310 		ldrh	r1, [r4, r3, lsl #1]
 349:Src/LTC6811.c **** 			cellConnection[i] = 0;
 1761              		.loc 1 349 23 view .LVU646
 1762 0044 521A     		subs	r2, r2, r1
 349:Src/LTC6811.c **** 			cellConnection[i] = 0;
 1763              		.loc 1 349 6 view .LVU647
 1764 0046 B2F57A7F 		cmp	r2, #1000
 1765 004a EEDD     		ble	.L90
 350:Src/LTC6811.c **** 		}
 1766              		.loc 1 350 4 is_stmt 1 view .LVU648
 350:Src/LTC6811.c **** 		}
 1767              		.loc 1 350 22 is_stmt 0 view .LVU649
 1768 004c 0022     		movs	r2, #0
 1769 004e EA54     		strb	r2, [r5, r3]
 1770 0050 EDE7     		b	.L91
 1771              	.L94:
 350:Src/LTC6811.c **** 		}
 1772              		.loc 1 350 22 view .LVU650
 1773              	.LBE11:
 357:Src/LTC6811.c **** }
 1774              		.loc 1 357 2 is_stmt 1 view .LVU651
 358:Src/LTC6811.c **** 
 1775              		.loc 1 358 1 is_stmt 0 view .LVU652
 1776 0052 0020     		movs	r0, #0
 1777 0054 07B0     		add	sp, sp, #28
 1778              	.LCFI27:
 1779              		.cfi_def_cfa_offset 12
 1780              		@ sp needed
 1781 0056 30BD     		pop	{r4, r5, pc}
 358:Src/LTC6811.c **** 
 1782              		.loc 1 358 1 view .LVU653
 1783              		.cfi_endproc
 1784              	.LFE74:
 1786              		.global	__aeabi_ui2f
 1787              		.global	__aeabi_fdiv
 1788              		.global	__aeabi_f2d
 1789              		.global	__aeabi_dmul
 1790              		.global	__aeabi_dsub
 1791              		.global	__aeabi_dadd
 1792              		.global	__aeabi_d2uiz
 1793              		.section	.text.readCellTemp,"ax",%progbits
 1794              		.align	1
 1795              		.global	readCellTemp
 1796              		.syntax unified
ARM GAS  /tmp/ccKppKJD.s 			page 52


 1797              		.thumb
 1798              		.thumb_func
 1799              		.fpu softvfp
 1801              	readCellTemp:
 1802              	.LVL121:
 1803              	.LFB71:
 269:Src/LTC6811.c **** 	
 1804              		.loc 1 269 58 is_stmt 1 view -0
 1805              		.cfi_startproc
 1806              		@ args = 0, pretend = 0, frame = 0
 1807              		@ frame_needed = 0, uses_anonymous_args = 0
 269:Src/LTC6811.c **** 	
 1808              		.loc 1 269 58 is_stmt 0 view .LVU655
 1809 0000 2DE9F84F 		push	{r3, r4, r5, r6, r7, r8, r9, r10, fp, lr}
 1810              	.LCFI28:
 1811              		.cfi_def_cfa_offset 40
 1812              		.cfi_offset 3, -40
 1813              		.cfi_offset 4, -36
 1814              		.cfi_offset 5, -32
 1815              		.cfi_offset 6, -28
 1816              		.cfi_offset 7, -24
 1817              		.cfi_offset 8, -20
 1818              		.cfi_offset 9, -16
 1819              		.cfi_offset 10, -12
 1820              		.cfi_offset 11, -8
 1821              		.cfi_offset 14, -4
 1822 0004 0446     		mov	r4, r0
 1823 0006 8A46     		mov	r10, r1
 271:Src/LTC6811.c **** 	bool dataValid = true;
 1824              		.loc 1 271 2 is_stmt 1 view .LVU656
 1825              	.LVL122:
 272:Src/LTC6811.c **** 	uint16_t *temp;
 1826              		.loc 1 272 2 view .LVU657
 273:Src/LTC6811.c **** 	double dummy[4];
 1827              		.loc 1 273 2 view .LVU658
 274:Src/LTC6811.c **** 	double conversion[4]; 
 1828              		.loc 1 274 2 view .LVU659
 275:Src/LTC6811.c **** 	
 1829              		.loc 1 275 2 view .LVU660
 277:Src/LTC6811.c **** 	
 1830              		.loc 1 277 2 view .LVU661
 277:Src/LTC6811.c **** 	
 1831              		.loc 1 277 21 is_stmt 0 view .LVU662
 1832 0008 0820     		movs	r0, #8
 1833              	.LVL123:
 277:Src/LTC6811.c **** 	
 1834              		.loc 1 277 21 view .LVU663
 1835 000a FFF7FEFF 		bl	malloc
 1836              	.LVL124:
 277:Src/LTC6811.c **** 	
 1837              		.loc 1 277 21 view .LVU664
 1838 000e 0546     		mov	r5, r0
 1839              	.LVL125:
 279:Src/LTC6811.c **** 	
 1840              		.loc 1 279 2 is_stmt 1 view .LVU665
 1841 0010 2146     		mov	r1, r4
 1842 0012 4FF48C60 		mov	r0, #1120
ARM GAS  /tmp/ccKppKJD.s 			page 53


 1843              	.LVL126:
 279:Src/LTC6811.c **** 	
 1844              		.loc 1 279 2 is_stmt 0 view .LVU666
 1845 0016 FFF7FEFF 		bl	sendAddressCommand
 1846              	.LVL127:
 281:Src/LTC6811.c **** 	
 1847              		.loc 1 281 2 is_stmt 1 view .LVU667
 1848 001a 0F20     		movs	r0, #15
 1849 001c FFF7FEFF 		bl	HAL_Delay
 1850              	.LVL128:
 284:Src/LTC6811.c **** 	dataValid = dataValid & PEC_check;
 1851              		.loc 1 284 2 view .LVU668
 284:Src/LTC6811.c **** 	dataValid = dataValid & PEC_check;
 1852              		.loc 1 284 14 is_stmt 0 view .LVU669
 1853 0020 2A46     		mov	r2, r5
 1854 0022 2146     		mov	r1, r4
 1855 0024 0C20     		movs	r0, #12
 1856 0026 FFF7FEFF 		bl	readRegister
 1857              	.LVL129:
 1858 002a 8346     		mov	fp, r0
 1859              	.LVL130:
 285:Src/LTC6811.c **** 	PEC_check = readRegister(ReadAuxiliaryGroupB, address, temp);
 1860              		.loc 1 285 2 is_stmt 1 view .LVU670
 286:Src/LTC6811.c **** 	dataValid = dataValid & PEC_check;
 1861              		.loc 1 286 2 view .LVU671
 286:Src/LTC6811.c **** 	dataValid = dataValid & PEC_check;
 1862              		.loc 1 286 14 is_stmt 0 view .LVU672
 1863 002c 2A46     		mov	r2, r5
 1864 002e 2146     		mov	r1, r4
 1865 0030 0E20     		movs	r0, #14
 1866 0032 FFF7FEFF 		bl	readRegister
 1867              	.LVL131:
 287:Src/LTC6811.c **** 	
 1868              		.loc 1 287 2 is_stmt 1 view .LVU673
 1869 0036 0BEA000B 		and	fp, fp, r0
 1870              	.LVL132:
 287:Src/LTC6811.c **** 	
 1871              		.loc 1 287 2 is_stmt 0 view .LVU674
 1872 003a 5FFA8BFB 		uxtb	fp, fp
 1873              	.LVL133:
 289:Src/LTC6811.c **** 		dummy[i] = (float) temp[i] / 10000;
 1874              		.loc 1 289 2 is_stmt 1 view .LVU675
 1875              	.LBB12:
 289:Src/LTC6811.c **** 		dummy[i] = (float) temp[i] / 10000;
 1876              		.loc 1 289 7 view .LVU676
 289:Src/LTC6811.c **** 		dummy[i] = (float) temp[i] / 10000;
 1877              		.loc 1 289 15 is_stmt 0 view .LVU677
 1878 003e 0024     		movs	r4, #0
 289:Src/LTC6811.c **** 		dummy[i] = (float) temp[i] / 10000;
 1879              		.loc 1 289 2 view .LVU678
 1880 0040 85E0     		b	.L96
 1881              	.LVL134:
 1882              	.L97:
 290:Src/LTC6811.c **** 		conversion[i] = 37735 - 113923 * dummy[i] + 142663 * pow(dummy[i], 2) - 94465 * pow(dummy[i], 3) 
 1883              		.loc 1 290 3 is_stmt 1 discriminator 3 view .LVU679
 290:Src/LTC6811.c **** 		conversion[i] = 37735 - 113923 * dummy[i] + 142663 * pow(dummy[i], 2) - 94465 * pow(dummy[i], 3) 
 1884              		.loc 1 290 14 is_stmt 0 discriminator 3 view .LVU680
ARM GAS  /tmp/ccKppKJD.s 			page 54


 1885 0042 35F81400 		ldrh	r0, [r5, r4, lsl #1]
 1886 0046 FFF7FEFF 		bl	__aeabi_ui2f
 1887              	.LVL135:
 290:Src/LTC6811.c **** 		conversion[i] = 37735 - 113923 * dummy[i] + 142663 * pow(dummy[i], 2) - 94465 * pow(dummy[i], 3) 
 1888              		.loc 1 290 30 discriminator 3 view .LVU681
 1889 004a 5349     		ldr	r1, .L99+56
 1890 004c FFF7FEFF 		bl	__aeabi_fdiv
 1891              	.LVL136:
 1892 0050 FFF7FEFF 		bl	__aeabi_f2d
 1893              	.LVL137:
 1894 0054 0646     		mov	r6, r0
 1895 0056 0F46     		mov	r7, r1
 291:Src/LTC6811.c **** 		cellTemp[i] = (uint16_t) conversion[i];
 1896              		.loc 1 291 3 is_stmt 1 discriminator 3 view .LVU682
 291:Src/LTC6811.c **** 		cellTemp[i] = (uint16_t) conversion[i];
 1897              		.loc 1 291 34 is_stmt 0 discriminator 3 view .LVU683
 1898 0058 41A3     		adr	r3, .L99
 1899 005a D3E90023 		ldrd	r2, [r3]
 1900 005e FFF7FEFF 		bl	__aeabi_dmul
 1901              	.LVL138:
 291:Src/LTC6811.c **** 		cellTemp[i] = (uint16_t) conversion[i];
 1902              		.loc 1 291 25 discriminator 3 view .LVU684
 1903 0062 0246     		mov	r2, r0
 1904 0064 0B46     		mov	r3, r1
 1905 0066 40A1     		adr	r1, .L99+8
 1906 0068 D1E90001 		ldrd	r0, [r1]
 1907 006c FFF7FEFF 		bl	__aeabi_dsub
 1908              	.LVL139:
 1909 0070 8046     		mov	r8, r0
 1910 0072 8946     		mov	r9, r1
 291:Src/LTC6811.c **** 		cellTemp[i] = (uint16_t) conversion[i];
 1911              		.loc 1 291 56 discriminator 3 view .LVU685
 1912 0074 0022     		movs	r2, #0
 1913 0076 4FF08043 		mov	r3, #1073741824
 1914 007a 3046     		mov	r0, r6
 1915 007c 3946     		mov	r1, r7
 1916 007e FFF7FEFF 		bl	pow
 1917              	.LVL140:
 291:Src/LTC6811.c **** 		cellTemp[i] = (uint16_t) conversion[i];
 1918              		.loc 1 291 54 discriminator 3 view .LVU686
 1919 0082 3BA3     		adr	r3, .L99+16
 1920 0084 D3E90023 		ldrd	r2, [r3]
 1921 0088 FFF7FEFF 		bl	__aeabi_dmul
 1922              	.LVL141:
 291:Src/LTC6811.c **** 		cellTemp[i] = (uint16_t) conversion[i];
 1923              		.loc 1 291 45 discriminator 3 view .LVU687
 1924 008c 0246     		mov	r2, r0
 1925 008e 0B46     		mov	r3, r1
 1926 0090 4046     		mov	r0, r8
 1927 0092 4946     		mov	r1, r9
 1928 0094 FFF7FEFF 		bl	__aeabi_dadd
 1929              	.LVL142:
 1930 0098 8046     		mov	r8, r0
 1931 009a 8946     		mov	r9, r1
 291:Src/LTC6811.c **** 		cellTemp[i] = (uint16_t) conversion[i];
 1932              		.loc 1 291 83 discriminator 3 view .LVU688
 1933 009c 0022     		movs	r2, #0
ARM GAS  /tmp/ccKppKJD.s 			page 55


 1934 009e 3F4B     		ldr	r3, .L99+60
 1935 00a0 3046     		mov	r0, r6
 1936 00a2 3946     		mov	r1, r7
 1937 00a4 FFF7FEFF 		bl	pow
 1938              	.LVL143:
 291:Src/LTC6811.c **** 		cellTemp[i] = (uint16_t) conversion[i];
 1939              		.loc 1 291 81 discriminator 3 view .LVU689
 1940 00a8 33A3     		adr	r3, .L99+24
 1941 00aa D3E90023 		ldrd	r2, [r3]
 1942 00ae FFF7FEFF 		bl	__aeabi_dmul
 1943              	.LVL144:
 291:Src/LTC6811.c **** 		cellTemp[i] = (uint16_t) conversion[i];
 1944              		.loc 1 291 73 discriminator 3 view .LVU690
 1945 00b2 0246     		mov	r2, r0
 1946 00b4 0B46     		mov	r3, r1
 1947 00b6 4046     		mov	r0, r8
 1948 00b8 4946     		mov	r1, r9
 1949 00ba FFF7FEFF 		bl	__aeabi_dsub
 1950              	.LVL145:
 1951 00be 8046     		mov	r8, r0
 1952 00c0 8946     		mov	r9, r1
 291:Src/LTC6811.c **** 		cellTemp[i] = (uint16_t) conversion[i];
 1953              		.loc 1 291 110 discriminator 3 view .LVU691
 1954 00c2 0022     		movs	r2, #0
 1955 00c4 364B     		ldr	r3, .L99+64
 1956 00c6 3046     		mov	r0, r6
 1957 00c8 3946     		mov	r1, r7
 1958 00ca FFF7FEFF 		bl	pow
 1959              	.LVL146:
 291:Src/LTC6811.c **** 		cellTemp[i] = (uint16_t) conversion[i];
 1960              		.loc 1 291 108 discriminator 3 view .LVU692
 1961 00ce 2CA3     		adr	r3, .L99+32
 1962 00d0 D3E90023 		ldrd	r2, [r3]
 1963 00d4 FFF7FEFF 		bl	__aeabi_dmul
 1964              	.LVL147:
 291:Src/LTC6811.c **** 		cellTemp[i] = (uint16_t) conversion[i];
 1965              		.loc 1 291 100 discriminator 3 view .LVU693
 1966 00d8 0246     		mov	r2, r0
 1967 00da 0B46     		mov	r3, r1
 1968 00dc 4046     		mov	r0, r8
 1969 00de 4946     		mov	r1, r9
 1970 00e0 FFF7FEFF 		bl	__aeabi_dadd
 1971              	.LVL148:
 1972 00e4 8046     		mov	r8, r0
 1973 00e6 8946     		mov	r9, r1
 291:Src/LTC6811.c **** 		cellTemp[i] = (uint16_t) conversion[i];
 1974              		.loc 1 291 136 discriminator 3 view .LVU694
 1975 00e8 0022     		movs	r2, #0
 1976 00ea 2E4B     		ldr	r3, .L99+68
 1977 00ec 3046     		mov	r0, r6
 1978 00ee 3946     		mov	r1, r7
 1979 00f0 FFF7FEFF 		bl	pow
 1980              	.LVL149:
 291:Src/LTC6811.c **** 		cellTemp[i] = (uint16_t) conversion[i];
 1981              		.loc 1 291 134 discriminator 3 view .LVU695
 1982 00f4 24A3     		adr	r3, .L99+40
 1983 00f6 D3E90023 		ldrd	r2, [r3]
ARM GAS  /tmp/ccKppKJD.s 			page 56


 1984 00fa FFF7FEFF 		bl	__aeabi_dmul
 1985              	.LVL150:
 291:Src/LTC6811.c **** 		cellTemp[i] = (uint16_t) conversion[i];
 1986              		.loc 1 291 127 discriminator 3 view .LVU696
 1987 00fe 0246     		mov	r2, r0
 1988 0100 0B46     		mov	r3, r1
 1989 0102 4046     		mov	r0, r8
 1990 0104 4946     		mov	r1, r9
 1991 0106 FFF7FEFF 		bl	__aeabi_dsub
 1992              	.LVL151:
 1993 010a 8046     		mov	r8, r0
 1994 010c 8946     		mov	r9, r1
 291:Src/LTC6811.c **** 		cellTemp[i] = (uint16_t) conversion[i];
 1995              		.loc 1 291 164 discriminator 3 view .LVU697
 1996 010e 0022     		movs	r2, #0
 1997 0110 254B     		ldr	r3, .L99+72
 1998 0112 3046     		mov	r0, r6
 1999 0114 3946     		mov	r1, r7
 2000 0116 FFF7FEFF 		bl	pow
 2001              	.LVL152:
 291:Src/LTC6811.c **** 		cellTemp[i] = (uint16_t) conversion[i];
 2002              		.loc 1 291 162 discriminator 3 view .LVU698
 2003 011a 1DA3     		adr	r3, .L99+48
 2004 011c D3E90023 		ldrd	r2, [r3]
 2005 0120 FFF7FEFF 		bl	__aeabi_dmul
 2006              	.LVL153:
 291:Src/LTC6811.c **** 		cellTemp[i] = (uint16_t) conversion[i];
 2007              		.loc 1 291 153 discriminator 3 view .LVU699
 2008 0124 0246     		mov	r2, r0
 2009 0126 0B46     		mov	r3, r1
 2010 0128 4046     		mov	r0, r8
 2011 012a 4946     		mov	r1, r9
 2012 012c FFF7FEFF 		bl	__aeabi_dadd
 2013              	.LVL154:
 292:Src/LTC6811.c **** 		cellTemp[i] = 500 * (cellTemp[i] + 20);
 2014              		.loc 1 292 3 is_stmt 1 discriminator 3 view .LVU700
 292:Src/LTC6811.c **** 		cellTemp[i] = 500 * (cellTemp[i] + 20);
 2015              		.loc 1 292 17 is_stmt 0 discriminator 3 view .LVU701
 2016 0130 FFF7FEFF 		bl	__aeabi_d2uiz
 2017              	.LVL155:
 2018 0134 80B2     		uxth	r0, r0
 293:Src/LTC6811.c **** 	}
 2019              		.loc 1 293 3 is_stmt 1 discriminator 3 view .LVU702
 293:Src/LTC6811.c **** 	}
 2020              		.loc 1 293 15 is_stmt 0 discriminator 3 view .LVU703
 2021 0136 C0EB4013 		rsb	r3, r0, r0, lsl #5
 2022 013a 00EB8300 		add	r0, r0, r3, lsl #2
 2023 013e 8300     		lsls	r3, r0, #2
 2024 0140 03F51C53 		add	r3, r3, #9984
 2025 0144 1033     		adds	r3, r3, #16
 2026 0146 2AF81430 		strh	r3, [r10, r4, lsl #1]	@ movhi
 289:Src/LTC6811.c **** 		dummy[i] = (float) temp[i] / 10000;
 2027              		.loc 1 289 30 discriminator 3 view .LVU704
 2028 014a 0134     		adds	r4, r4, #1
 2029              	.LVL156:
 289:Src/LTC6811.c **** 		dummy[i] = (float) temp[i] / 10000;
 2030              		.loc 1 289 30 discriminator 3 view .LVU705
ARM GAS  /tmp/ccKppKJD.s 			page 57


 2031 014c E4B2     		uxtb	r4, r4
 2032              	.LVL157:
 2033              	.L96:
 289:Src/LTC6811.c **** 		dummy[i] = (float) temp[i] / 10000;
 2034              		.loc 1 289 2 discriminator 1 view .LVU706
 2035 014e 032C     		cmp	r4, #3
 2036 0150 7FF677AF 		bls	.L97
 2037              	.LBE12:
 296:Src/LTC6811.c **** 	
 2038              		.loc 1 296 2 is_stmt 1 view .LVU707
 2039 0154 2846     		mov	r0, r5
 2040 0156 FFF7FEFF 		bl	free
 2041              	.LVL158:
 298:Src/LTC6811.c **** 	
 2042              		.loc 1 298 2 view .LVU708
 300:Src/LTC6811.c **** 
 2043              		.loc 1 300 1 is_stmt 0 view .LVU709
 2044 015a 5846     		mov	r0, fp
 2045 015c BDE8F88F 		pop	{r3, r4, r5, r6, r7, r8, r9, r10, fp, pc}
 2046              	.LVL159:
 2047              	.L100:
 300:Src/LTC6811.c **** 
 2048              		.loc 1 300 1 view .LVU710
 2049              		.align	3
 2050              	.L99:
 2051 0160 00000000 		.word	0
 2052 0164 30D0FB40 		.word	1090244656
 2053 0168 00000000 		.word	0
 2054 016c E06CE240 		.word	1088580832
 2055 0170 00000000 		.word	0
 2056 0174 386A0141 		.word	1090611768
 2057 0178 00000000 		.word	0
 2058 017c 1010F740 		.word	1089933328
 2059 0180 00000000 		.word	0
 2060 0184 E0FDE040 		.word	1088486880
 2061 0188 00000000 		.word	0
 2062 018c 005DBA40 		.word	1085955328
 2063 0190 7B14AE47 		.word	1202590843
 2064 0194 E1C88040 		.word	1082181857
 2065 0198 00401C46 		.word	1176256512
 2066 019c 00000840 		.word	1074266112
 2067 01a0 00001040 		.word	1074790400
 2068 01a4 00001440 		.word	1075052544
 2069 01a8 00001840 		.word	1075314688
 2070              		.cfi_endproc
 2071              	.LFE71:
 2073              		.section	.text.readAllCellTemps,"ax",%progbits
 2074              		.align	1
 2075              		.global	readAllCellTemps
 2076              		.syntax unified
 2077              		.thumb
 2078              		.thumb_func
 2079              		.fpu softvfp
 2081              	readAllCellTemps:
 2082              	.LVL160:
 2083              	.LFB72:
 302:Src/LTC6811.c **** 	
ARM GAS  /tmp/ccKppKJD.s 			page 58


 2084              		.loc 1 302 49 is_stmt 1 view -0
 2085              		.cfi_startproc
 2086              		@ args = 0, pretend = 0, frame = 8
 2087              		@ frame_needed = 0, uses_anonymous_args = 0
 302:Src/LTC6811.c **** 	
 2088              		.loc 1 302 49 is_stmt 0 view .LVU712
 2089 0000 30B5     		push	{r4, r5, lr}
 2090              	.LCFI29:
 2091              		.cfi_def_cfa_offset 12
 2092              		.cfi_offset 4, -12
 2093              		.cfi_offset 5, -8
 2094              		.cfi_offset 14, -4
 2095 0002 83B0     		sub	sp, sp, #12
 2096              	.LCFI30:
 2097              		.cfi_def_cfa_offset 24
 2098 0004 0546     		mov	r5, r0
 304:Src/LTC6811.c **** 	
 2099              		.loc 1 304 2 is_stmt 1 view .LVU713
 306:Src/LTC6811.c **** 		
 2100              		.loc 1 306 2 view .LVU714
 2101              	.LBB13:
 306:Src/LTC6811.c **** 		
 2102              		.loc 1 306 7 view .LVU715
 2103              	.LVL161:
 306:Src/LTC6811.c **** 		
 2104              		.loc 1 306 15 is_stmt 0 view .LVU716
 2105 0006 0024     		movs	r4, #0
 306:Src/LTC6811.c **** 		
 2106              		.loc 1 306 2 view .LVU717
 2107 0008 0EE0     		b	.L102
 2108              	.LVL162:
 2109              	.L104:
 2110              	.LBB14:
 310:Src/LTC6811.c **** 		}
 2111              		.loc 1 310 4 is_stmt 1 discriminator 3 view .LVU718
 310:Src/LTC6811.c **** 		}
 2112              		.loc 1 310 12 is_stmt 0 discriminator 3 view .LVU719
 2113 000a 05EBC402 		add	r2, r5, r4, lsl #3
 310:Src/LTC6811.c **** 		}
 2114              		.loc 1 310 30 discriminator 3 view .LVU720
 2115 000e 02A9     		add	r1, sp, #8
 2116 0010 01EB4301 		add	r1, r1, r3, lsl #1
 2117 0014 31F8081C 		ldrh	r1, [r1, #-8]
 310:Src/LTC6811.c **** 		}
 2118              		.loc 1 310 19 discriminator 3 view .LVU721
 2119 0018 22F81310 		strh	r1, [r2, r3, lsl #1]	@ movhi
 309:Src/LTC6811.c **** 			cellTemp[i][j] = boardTemp[j];
 2120              		.loc 1 309 31 discriminator 3 view .LVU722
 2121 001c 0133     		adds	r3, r3, #1
 2122              	.LVL163:
 309:Src/LTC6811.c **** 			cellTemp[i][j] = boardTemp[j];
 2123              		.loc 1 309 31 discriminator 3 view .LVU723
 2124 001e DBB2     		uxtb	r3, r3
 2125              	.LVL164:
 2126              	.L103:
 309:Src/LTC6811.c **** 			cellTemp[i][j] = boardTemp[j];
 2127              		.loc 1 309 3 discriminator 1 view .LVU724
ARM GAS  /tmp/ccKppKJD.s 			page 59


 2128 0020 032B     		cmp	r3, #3
 2129 0022 F2D9     		bls	.L104
 2130              	.LBE14:
 306:Src/LTC6811.c **** 		
 2131              		.loc 1 306 31 discriminator 2 view .LVU725
 2132 0024 0134     		adds	r4, r4, #1
 2133              	.LVL165:
 306:Src/LTC6811.c **** 		
 2134              		.loc 1 306 31 discriminator 2 view .LVU726
 2135 0026 E4B2     		uxtb	r4, r4
 2136              	.LVL166:
 2137              	.L102:
 306:Src/LTC6811.c **** 		
 2138              		.loc 1 306 2 discriminator 1 view .LVU727
 2139 0028 0B2C     		cmp	r4, #11
 2140 002a 05D8     		bhi	.L107
 308:Src/LTC6811.c **** 		for (uint8_t j = 0; j < 4; j++) {
 2141              		.loc 1 308 3 is_stmt 1 view .LVU728
 2142 002c 6946     		mov	r1, sp
 2143 002e 2046     		mov	r0, r4
 2144 0030 FFF7FEFF 		bl	readCellTemp
 2145              	.LVL167:
 309:Src/LTC6811.c **** 			cellTemp[i][j] = boardTemp[j];
 2146              		.loc 1 309 3 view .LVU729
 2147              	.LBB15:
 309:Src/LTC6811.c **** 			cellTemp[i][j] = boardTemp[j];
 2148              		.loc 1 309 8 view .LVU730
 309:Src/LTC6811.c **** 			cellTemp[i][j] = boardTemp[j];
 2149              		.loc 1 309 16 is_stmt 0 view .LVU731
 2150 0034 0023     		movs	r3, #0
 309:Src/LTC6811.c **** 			cellTemp[i][j] = boardTemp[j];
 2151              		.loc 1 309 3 view .LVU732
 2152 0036 F3E7     		b	.L103
 2153              	.LVL168:
 2154              	.L107:
 309:Src/LTC6811.c **** 			cellTemp[i][j] = boardTemp[j];
 2155              		.loc 1 309 3 view .LVU733
 2156              	.LBE15:
 2157              	.LBE13:
 314:Src/LTC6811.c **** }
 2158              		.loc 1 314 2 is_stmt 1 view .LVU734
 315:Src/LTC6811.c **** 
 2159              		.loc 1 315 1 is_stmt 0 view .LVU735
 2160 0038 0020     		movs	r0, #0
 2161 003a 03B0     		add	sp, sp, #12
 2162              	.LCFI31:
 2163              		.cfi_def_cfa_offset 12
 2164              		@ sp needed
 2165 003c 30BD     		pop	{r4, r5, pc}
 315:Src/LTC6811.c **** 
 2166              		.loc 1 315 1 view .LVU736
 2167              		.cfi_endproc
 2168              	.LFE72:
 2170              		.global	CRC15_POLY
 2171              		.comm	pec15Table,512,4
 2172              		.section	.data.CRC15_POLY,"aw"
 2173              		.align	1
ARM GAS  /tmp/ccKppKJD.s 			page 60


 2174              		.set	.LANCHOR0,. + 0
 2177              	CRC15_POLY:
 2178 0000 9945     		.short	17817
 2179              		.text
 2180              	.Letext0:
 2181              		.file 2 "/mnt/c/Users/evanc/Documents/IFE/gcc-arm-none-eabi-8-2018-q4-major/arm-none-eabi/include/
 2182              		.file 3 "/mnt/c/Users/evanc/Documents/IFE/gcc-arm-none-eabi-8-2018-q4-major/arm-none-eabi/include/
 2183              		.file 4 "Drivers/CMSIS/Include/core_cm3.h"
 2184              		.file 5 "Drivers/CMSIS/Device/ST/STM32F1xx/Include/system_stm32f1xx.h"
 2185              		.file 6 "/mnt/c/Users/evanc/Documents/IFE/gcc-arm-none-eabi-8-2018-q4-major/arm-none-eabi/include/
 2186              		.file 7 "/mnt/c/Users/evanc/Documents/IFE/gcc-arm-none-eabi-8-2018-q4-major/arm-none-eabi/include/
 2187              		.file 8 "/mnt/c/Users/evanc/Documents/IFE/gcc-arm-none-eabi-8-2018-q4-major/lib/gcc/arm-none-eabi/
 2188              		.file 9 "/mnt/c/Users/evanc/Documents/IFE/gcc-arm-none-eabi-8-2018-q4-major/arm-none-eabi/include/
 2189              		.file 10 "/mnt/c/Users/evanc/Documents/IFE/gcc-arm-none-eabi-8-2018-q4-major/arm-none-eabi/include
 2190              		.file 11 "Inc/BMSconfig.h"
 2191              		.file 12 "/mnt/c/Users/evanc/Documents/IFE/gcc-arm-none-eabi-8-2018-q4-major/arm-none-eabi/include
 2192              		.file 13 "Inc/LTC6811.h"
 2193              		.file 14 "Inc/SPI.h"
 2194              		.file 15 "Drivers/STM32F1xx_HAL_Driver/Inc/stm32f1xx_hal.h"
ARM GAS  /tmp/ccKppKJD.s 			page 61


DEFINED SYMBOLS
                            *ABS*:0000000000000000 LTC6811.c
     /tmp/ccKppKJD.s:16     .text.initPECTable:0000000000000000 $t
     /tmp/ccKppKJD.s:24     .text.initPECTable:0000000000000000 initPECTable
     /tmp/ccKppKJD.s:118    .text.initPECTable:0000000000000038 $d
                            *COM*:0000000000000200 pec15Table
     /tmp/ccKppKJD.s:124    .text.calculatePEC:0000000000000000 $t
     /tmp/ccKppKJD.s:131    .text.calculatePEC:0000000000000000 calculatePEC
     /tmp/ccKppKJD.s:207    .text.calculatePEC:000000000000002c $d
     /tmp/ccKppKJD.s:212    .text.writeConfig:0000000000000000 $t
     /tmp/ccKppKJD.s:219    .text.writeConfig:0000000000000000 writeConfig
     /tmp/ccKppKJD.s:458    .text.setDischarge:0000000000000000 $t
     /tmp/ccKppKJD.s:465    .text.setDischarge:0000000000000000 setDischarge
     /tmp/ccKppKJD.s:715    .text.readRegister:0000000000000000 $t
     /tmp/ccKppKJD.s:722    .text.readRegister:0000000000000000 readRegister
     /tmp/ccKppKJD.s:1202   .text.readConfig:0000000000000000 $t
     /tmp/ccKppKJD.s:1209   .text.readConfig:0000000000000000 readConfig
     /tmp/ccKppKJD.s:1286   .text.sendBroadcastCommand:0000000000000000 $t
     /tmp/ccKppKJD.s:1293   .text.sendBroadcastCommand:0000000000000000 sendBroadcastCommand
     /tmp/ccKppKJD.s:1350   .text.sendAddressCommand:0000000000000000 $t
     /tmp/ccKppKJD.s:1357   .text.sendAddressCommand:0000000000000000 sendAddressCommand
     /tmp/ccKppKJD.s:1453   .text.readCellVoltage:0000000000000000 $t
     /tmp/ccKppKJD.s:1460   .text.readCellVoltage:0000000000000000 readCellVoltage
     /tmp/ccKppKJD.s:1592   .text.readAllCellVoltages:0000000000000000 $t
     /tmp/ccKppKJD.s:1599   .text.readAllCellVoltages:0000000000000000 readAllCellVoltages
     /tmp/ccKppKJD.s:1684   .text.checkCellConnection:0000000000000000 $t
     /tmp/ccKppKJD.s:1691   .text.checkCellConnection:0000000000000000 checkCellConnection
     /tmp/ccKppKJD.s:1794   .text.readCellTemp:0000000000000000 $t
     /tmp/ccKppKJD.s:1801   .text.readCellTemp:0000000000000000 readCellTemp
     /tmp/ccKppKJD.s:2051   .text.readCellTemp:0000000000000160 $d
     /tmp/ccKppKJD.s:2074   .text.readAllCellTemps:0000000000000000 $t
     /tmp/ccKppKJD.s:2081   .text.readAllCellTemps:0000000000000000 readAllCellTemps
     /tmp/ccKppKJD.s:2177   .data.CRC15_POLY:0000000000000000 CRC15_POLY
     /tmp/ccKppKJD.s:2173   .data.CRC15_POLY:0000000000000000 $d

UNDEFINED SYMBOLS
malloc
SPIWrite
free
SPIWriteRead
HAL_Delay
__aeabi_ui2f
__aeabi_fdiv
__aeabi_f2d
__aeabi_dmul
__aeabi_dsub
__aeabi_dadd
__aeabi_d2uiz
pow
