ARM GAS  /tmp/ccfbusIR.s 			page 1


   1              		.cpu cortex-m3
   2              		.eabi_attribute 20, 1
   3              		.eabi_attribute 21, 1
   4              		.eabi_attribute 23, 3
   5              		.eabi_attribute 24, 1
   6              		.eabi_attribute 25, 1
   7              		.eabi_attribute 26, 1
   8              		.eabi_attribute 30, 1
   9              		.eabi_attribute 34, 1
  10              		.eabi_attribute 18, 4
  11              		.file	"stm32f1xx_hal_msp.c"
  12              		.text
  13              	.Ltext0:
  14              		.cfi_sections	.debug_frame
  15              		.section	.text.HAL_MspInit,"ax",%progbits
  16              		.align	1
  17              		.global	HAL_MspInit
  18              		.syntax unified
  19              		.thumb
  20              		.thumb_func
  21              		.fpu softvfp
  23              	HAL_MspInit:
  24              	.LFB64:
  25              		.file 1 "Src/stm32f1xx_hal_msp.c"
   1:Src/stm32f1xx_hal_msp.c **** /* USER CODE BEGIN Header */
   2:Src/stm32f1xx_hal_msp.c **** /**
   3:Src/stm32f1xx_hal_msp.c ****   ******************************************************************************
   4:Src/stm32f1xx_hal_msp.c ****   * File Name          : stm32f1xx_hal_msp.c
   5:Src/stm32f1xx_hal_msp.c ****   * Description        : This file provides code for the MSP Initialization 
   6:Src/stm32f1xx_hal_msp.c ****   *                      and de-Initialization codes.
   7:Src/stm32f1xx_hal_msp.c ****   ******************************************************************************
   8:Src/stm32f1xx_hal_msp.c ****   ** This notice applies to any and all portions of this file
   9:Src/stm32f1xx_hal_msp.c ****   * that are not between comment pairs USER CODE BEGIN and
  10:Src/stm32f1xx_hal_msp.c ****   * USER CODE END. Other portions of this file, whether 
  11:Src/stm32f1xx_hal_msp.c ****   * inserted by the user or by software development tools
  12:Src/stm32f1xx_hal_msp.c ****   * are owned by their respective copyright owners.
  13:Src/stm32f1xx_hal_msp.c ****   *
  14:Src/stm32f1xx_hal_msp.c ****   * COPYRIGHT(c) 2019 STMicroelectronics
  15:Src/stm32f1xx_hal_msp.c ****   *
  16:Src/stm32f1xx_hal_msp.c ****   * Redistribution and use in source and binary forms, with or without modification,
  17:Src/stm32f1xx_hal_msp.c ****   * are permitted provided that the following conditions are met:
  18:Src/stm32f1xx_hal_msp.c ****   *   1. Redistributions of source code must retain the above copyright notice,
  19:Src/stm32f1xx_hal_msp.c ****   *      this list of conditions and the following disclaimer.
  20:Src/stm32f1xx_hal_msp.c ****   *   2. Redistributions in binary form must reproduce the above copyright notice,
  21:Src/stm32f1xx_hal_msp.c ****   *      this list of conditions and the following disclaimer in the documentation
  22:Src/stm32f1xx_hal_msp.c ****   *      and/or other materials provided with the distribution.
  23:Src/stm32f1xx_hal_msp.c ****   *   3. Neither the name of STMicroelectronics nor the names of its contributors
  24:Src/stm32f1xx_hal_msp.c ****   *      may be used to endorse or promote products derived from this software
  25:Src/stm32f1xx_hal_msp.c ****   *      without specific prior written permission.
  26:Src/stm32f1xx_hal_msp.c ****   *
  27:Src/stm32f1xx_hal_msp.c ****   * THIS SOFTWARE IS PROVIDED BY THE COPYRIGHT HOLDERS AND CONTRIBUTORS "AS IS"
  28:Src/stm32f1xx_hal_msp.c ****   * AND ANY EXPRESS OR IMPLIED WARRANTIES, INCLUDING, BUT NOT LIMITED TO, THE
  29:Src/stm32f1xx_hal_msp.c ****   * IMPLIED WARRANTIES OF MERCHANTABILITY AND FITNESS FOR A PARTICULAR PURPOSE ARE
  30:Src/stm32f1xx_hal_msp.c ****   * DISCLAIMED. IN NO EVENT SHALL THE COPYRIGHT HOLDER OR CONTRIBUTORS BE LIABLE
  31:Src/stm32f1xx_hal_msp.c ****   * FOR ANY DIRECT, INDIRECT, INCIDENTAL, SPECIAL, EXEMPLARY, OR CONSEQUENTIAL
  32:Src/stm32f1xx_hal_msp.c ****   * DAMAGES (INCLUDING, BUT NOT LIMITED TO, PROCUREMENT OF SUBSTITUTE GOODS OR
  33:Src/stm32f1xx_hal_msp.c ****   * SERVICES; LOSS OF USE, DATA, OR PROFITS; OR BUSINESS INTERRUPTION) HOWEVER
ARM GAS  /tmp/ccfbusIR.s 			page 2


  34:Src/stm32f1xx_hal_msp.c ****   * CAUSED AND ON ANY THEORY OF LIABILITY, WHETHER IN CONTRACT, STRICT LIABILITY,
  35:Src/stm32f1xx_hal_msp.c ****   * OR TORT (INCLUDING NEGLIGENCE OR OTHERWISE) ARISING IN ANY WAY OUT OF THE USE
  36:Src/stm32f1xx_hal_msp.c ****   * OF THIS SOFTWARE, EVEN IF ADVISED OF THE POSSIBILITY OF SUCH DAMAGE.
  37:Src/stm32f1xx_hal_msp.c ****   *
  38:Src/stm32f1xx_hal_msp.c ****   ******************************************************************************
  39:Src/stm32f1xx_hal_msp.c ****   */
  40:Src/stm32f1xx_hal_msp.c **** /* USER CODE END Header */
  41:Src/stm32f1xx_hal_msp.c **** 
  42:Src/stm32f1xx_hal_msp.c **** /* Includes ------------------------------------------------------------------*/
  43:Src/stm32f1xx_hal_msp.c **** #include "main.h"
  44:Src/stm32f1xx_hal_msp.c **** /* USER CODE BEGIN Includes */
  45:Src/stm32f1xx_hal_msp.c **** 
  46:Src/stm32f1xx_hal_msp.c **** /* USER CODE END Includes */
  47:Src/stm32f1xx_hal_msp.c **** 
  48:Src/stm32f1xx_hal_msp.c **** /* Private typedef -----------------------------------------------------------*/
  49:Src/stm32f1xx_hal_msp.c **** /* USER CODE BEGIN TD */
  50:Src/stm32f1xx_hal_msp.c **** 
  51:Src/stm32f1xx_hal_msp.c **** /* USER CODE END TD */
  52:Src/stm32f1xx_hal_msp.c **** 
  53:Src/stm32f1xx_hal_msp.c **** /* Private define ------------------------------------------------------------*/
  54:Src/stm32f1xx_hal_msp.c **** /* USER CODE BEGIN Define */
  55:Src/stm32f1xx_hal_msp.c ****  
  56:Src/stm32f1xx_hal_msp.c **** /* USER CODE END Define */
  57:Src/stm32f1xx_hal_msp.c **** 
  58:Src/stm32f1xx_hal_msp.c **** /* Private macro -------------------------------------------------------------*/
  59:Src/stm32f1xx_hal_msp.c **** /* USER CODE BEGIN Macro */
  60:Src/stm32f1xx_hal_msp.c **** 
  61:Src/stm32f1xx_hal_msp.c **** /* USER CODE END Macro */
  62:Src/stm32f1xx_hal_msp.c **** 
  63:Src/stm32f1xx_hal_msp.c **** /* Private variables ---------------------------------------------------------*/
  64:Src/stm32f1xx_hal_msp.c **** /* USER CODE BEGIN PV */
  65:Src/stm32f1xx_hal_msp.c **** 
  66:Src/stm32f1xx_hal_msp.c **** /* USER CODE END PV */
  67:Src/stm32f1xx_hal_msp.c **** 
  68:Src/stm32f1xx_hal_msp.c **** /* Private function prototypes -----------------------------------------------*/
  69:Src/stm32f1xx_hal_msp.c **** /* USER CODE BEGIN PFP */
  70:Src/stm32f1xx_hal_msp.c **** 
  71:Src/stm32f1xx_hal_msp.c **** /* USER CODE END PFP */
  72:Src/stm32f1xx_hal_msp.c **** 
  73:Src/stm32f1xx_hal_msp.c **** /* External functions --------------------------------------------------------*/
  74:Src/stm32f1xx_hal_msp.c **** /* USER CODE BEGIN ExternalFunctions */
  75:Src/stm32f1xx_hal_msp.c **** 
  76:Src/stm32f1xx_hal_msp.c **** /* USER CODE END ExternalFunctions */
  77:Src/stm32f1xx_hal_msp.c **** 
  78:Src/stm32f1xx_hal_msp.c **** /* USER CODE BEGIN 0 */
  79:Src/stm32f1xx_hal_msp.c **** 
  80:Src/stm32f1xx_hal_msp.c **** /* USER CODE END 0 */
  81:Src/stm32f1xx_hal_msp.c **** /**
  82:Src/stm32f1xx_hal_msp.c ****   * Initializes the Global MSP.
  83:Src/stm32f1xx_hal_msp.c ****   */
  84:Src/stm32f1xx_hal_msp.c **** void HAL_MspInit(void)
  85:Src/stm32f1xx_hal_msp.c **** {
  26              		.loc 1 85 0
  27              		.cfi_startproc
  28              		@ args = 0, pretend = 0, frame = 8
  29              		@ frame_needed = 0, uses_anonymous_args = 0
  30              		@ link register save eliminated.
ARM GAS  /tmp/ccfbusIR.s 			page 3


  31 0000 82B0     		sub	sp, sp, #8
  32              	.LCFI0:
  33              		.cfi_def_cfa_offset 8
  34              	.LBB2:
  86:Src/stm32f1xx_hal_msp.c ****   /* USER CODE BEGIN MspInit 0 */
  87:Src/stm32f1xx_hal_msp.c **** 
  88:Src/stm32f1xx_hal_msp.c ****   /* USER CODE END MspInit 0 */
  89:Src/stm32f1xx_hal_msp.c **** 
  90:Src/stm32f1xx_hal_msp.c ****   __HAL_RCC_AFIO_CLK_ENABLE();
  35              		.loc 1 90 0
  36 0002 0E4B     		ldr	r3, .L3
  37 0004 9A69     		ldr	r2, [r3, #24]
  38 0006 42F00102 		orr	r2, r2, #1
  39 000a 9A61     		str	r2, [r3, #24]
  40 000c 9A69     		ldr	r2, [r3, #24]
  41 000e 02F00102 		and	r2, r2, #1
  42 0012 0092     		str	r2, [sp]
  43 0014 009A     		ldr	r2, [sp]
  44              	.LBE2:
  45              	.LBB3:
  91:Src/stm32f1xx_hal_msp.c ****   __HAL_RCC_PWR_CLK_ENABLE();
  46              		.loc 1 91 0
  47 0016 DA69     		ldr	r2, [r3, #28]
  48 0018 42F08052 		orr	r2, r2, #268435456
  49 001c DA61     		str	r2, [r3, #28]
  50 001e DB69     		ldr	r3, [r3, #28]
  51 0020 03F08053 		and	r3, r3, #268435456
  52 0024 0193     		str	r3, [sp, #4]
  53 0026 019B     		ldr	r3, [sp, #4]
  54              	.LBE3:
  55              	.LBB4:
  92:Src/stm32f1xx_hal_msp.c **** 
  93:Src/stm32f1xx_hal_msp.c ****   /* System interrupt init*/
  94:Src/stm32f1xx_hal_msp.c **** 
  95:Src/stm32f1xx_hal_msp.c ****   /**DISABLE: JTAG-DP Disabled and SW-DP Disabled 
  96:Src/stm32f1xx_hal_msp.c ****   */
  97:Src/stm32f1xx_hal_msp.c ****   __HAL_AFIO_REMAP_SWJ_DISABLE();
  56              		.loc 1 97 0
  57 0028 054A     		ldr	r2, .L3+4
  58 002a 5368     		ldr	r3, [r2, #4]
  59              	.LVL0:
  60 002c 23F0E063 		bic	r3, r3, #117440512
  61              	.LVL1:
  62 0030 43F08063 		orr	r3, r3, #67108864
  63              	.LVL2:
  64 0034 5360     		str	r3, [r2, #4]
  65              	.LBE4:
  98:Src/stm32f1xx_hal_msp.c **** 
  99:Src/stm32f1xx_hal_msp.c ****   /* USER CODE BEGIN MspInit 1 */
 100:Src/stm32f1xx_hal_msp.c **** 
 101:Src/stm32f1xx_hal_msp.c ****   /* USER CODE END MspInit 1 */
 102:Src/stm32f1xx_hal_msp.c **** }
  66              		.loc 1 102 0
  67 0036 02B0     		add	sp, sp, #8
  68              	.LCFI1:
  69              		.cfi_def_cfa_offset 0
  70              		@ sp needed
ARM GAS  /tmp/ccfbusIR.s 			page 4


  71 0038 7047     		bx	lr
  72              	.L4:
  73 003a 00BF     		.align	2
  74              	.L3:
  75 003c 00100240 		.word	1073876992
  76 0040 00000140 		.word	1073807360
  77              		.cfi_endproc
  78              	.LFE64:
  80              		.section	.text.HAL_ADC_MspInit,"ax",%progbits
  81              		.align	1
  82              		.global	HAL_ADC_MspInit
  83              		.syntax unified
  84              		.thumb
  85              		.thumb_func
  86              		.fpu softvfp
  88              	HAL_ADC_MspInit:
  89              	.LFB65:
 103:Src/stm32f1xx_hal_msp.c **** 
 104:Src/stm32f1xx_hal_msp.c **** /**
 105:Src/stm32f1xx_hal_msp.c **** * @brief ADC MSP Initialization
 106:Src/stm32f1xx_hal_msp.c **** * This function configures the hardware resources used in this example
 107:Src/stm32f1xx_hal_msp.c **** * @param hadc: ADC handle pointer
 108:Src/stm32f1xx_hal_msp.c **** * @retval None
 109:Src/stm32f1xx_hal_msp.c **** */
 110:Src/stm32f1xx_hal_msp.c **** void HAL_ADC_MspInit(ADC_HandleTypeDef* hadc)
 111:Src/stm32f1xx_hal_msp.c **** {
  90              		.loc 1 111 0
  91              		.cfi_startproc
  92              		@ args = 0, pretend = 0, frame = 32
  93              		@ frame_needed = 0, uses_anonymous_args = 0
  94              	.LVL3:
  95 0000 10B5     		push	{r4, lr}
  96              	.LCFI2:
  97              		.cfi_def_cfa_offset 8
  98              		.cfi_offset 4, -8
  99              		.cfi_offset 14, -4
 100 0002 88B0     		sub	sp, sp, #32
 101              	.LCFI3:
 102              		.cfi_def_cfa_offset 40
 112:Src/stm32f1xx_hal_msp.c **** 
 113:Src/stm32f1xx_hal_msp.c ****   GPIO_InitTypeDef GPIO_InitStruct = {0};
 103              		.loc 1 113 0
 104 0004 0023     		movs	r3, #0
 105 0006 0493     		str	r3, [sp, #16]
 106 0008 0593     		str	r3, [sp, #20]
 107 000a 0693     		str	r3, [sp, #24]
 108 000c 0793     		str	r3, [sp, #28]
 114:Src/stm32f1xx_hal_msp.c ****   if(hadc->Instance==ADC1)
 109              		.loc 1 114 0
 110 000e 0268     		ldr	r2, [r0]
 111 0010 184B     		ldr	r3, .L9
 112 0012 9A42     		cmp	r2, r3
 113 0014 01D0     		beq	.L8
 114              	.LVL4:
 115              	.L5:
 115:Src/stm32f1xx_hal_msp.c ****   {
 116:Src/stm32f1xx_hal_msp.c ****   /* USER CODE BEGIN ADC1_MspInit 0 */
ARM GAS  /tmp/ccfbusIR.s 			page 5


 117:Src/stm32f1xx_hal_msp.c **** 
 118:Src/stm32f1xx_hal_msp.c ****   /* USER CODE END ADC1_MspInit 0 */
 119:Src/stm32f1xx_hal_msp.c ****     /* Peripheral clock enable */
 120:Src/stm32f1xx_hal_msp.c ****     __HAL_RCC_ADC1_CLK_ENABLE();
 121:Src/stm32f1xx_hal_msp.c ****   
 122:Src/stm32f1xx_hal_msp.c ****     __HAL_RCC_GPIOA_CLK_ENABLE();
 123:Src/stm32f1xx_hal_msp.c ****     __HAL_RCC_GPIOB_CLK_ENABLE();
 124:Src/stm32f1xx_hal_msp.c ****     /**ADC1 GPIO Configuration    
 125:Src/stm32f1xx_hal_msp.c ****     PA0-WKUP     ------> ADC1_IN0
 126:Src/stm32f1xx_hal_msp.c ****     PA1     ------> ADC1_IN1
 127:Src/stm32f1xx_hal_msp.c ****     PA7     ------> ADC1_IN7
 128:Src/stm32f1xx_hal_msp.c ****     PB1     ------> ADC1_IN9 
 129:Src/stm32f1xx_hal_msp.c ****     */
 130:Src/stm32f1xx_hal_msp.c ****     GPIO_InitStruct.Pin = GPIO_PIN_0|GPIO_PIN_1|GPIO_PIN_7;
 131:Src/stm32f1xx_hal_msp.c ****     GPIO_InitStruct.Mode = GPIO_MODE_ANALOG;
 132:Src/stm32f1xx_hal_msp.c ****     HAL_GPIO_Init(GPIOA, &GPIO_InitStruct);
 133:Src/stm32f1xx_hal_msp.c **** 
 134:Src/stm32f1xx_hal_msp.c ****     GPIO_InitStruct.Pin = GPIO_PIN_1;
 135:Src/stm32f1xx_hal_msp.c ****     GPIO_InitStruct.Mode = GPIO_MODE_ANALOG;
 136:Src/stm32f1xx_hal_msp.c ****     HAL_GPIO_Init(GPIOB, &GPIO_InitStruct);
 137:Src/stm32f1xx_hal_msp.c **** 
 138:Src/stm32f1xx_hal_msp.c ****   /* USER CODE BEGIN ADC1_MspInit 1 */
 139:Src/stm32f1xx_hal_msp.c **** 
 140:Src/stm32f1xx_hal_msp.c ****   /* USER CODE END ADC1_MspInit 1 */
 141:Src/stm32f1xx_hal_msp.c ****   }
 142:Src/stm32f1xx_hal_msp.c **** 
 143:Src/stm32f1xx_hal_msp.c **** }
 116              		.loc 1 143 0
 117 0016 08B0     		add	sp, sp, #32
 118              	.LCFI4:
 119              		.cfi_remember_state
 120              		.cfi_def_cfa_offset 8
 121              		@ sp needed
 122 0018 10BD     		pop	{r4, pc}
 123              	.LVL5:
 124              	.L8:
 125              	.LCFI5:
 126              		.cfi_restore_state
 127              	.LBB5:
 120:Src/stm32f1xx_hal_msp.c ****   
 128              		.loc 1 120 0
 129 001a 03F56C43 		add	r3, r3, #60416
 130 001e 9A69     		ldr	r2, [r3, #24]
 131 0020 42F40072 		orr	r2, r2, #512
 132 0024 9A61     		str	r2, [r3, #24]
 133 0026 9A69     		ldr	r2, [r3, #24]
 134 0028 02F40072 		and	r2, r2, #512
 135 002c 0192     		str	r2, [sp, #4]
 136 002e 019A     		ldr	r2, [sp, #4]
 137              	.LBE5:
 138              	.LBB6:
 122:Src/stm32f1xx_hal_msp.c ****     __HAL_RCC_GPIOB_CLK_ENABLE();
 139              		.loc 1 122 0
 140 0030 9A69     		ldr	r2, [r3, #24]
 141 0032 42F00402 		orr	r2, r2, #4
 142 0036 9A61     		str	r2, [r3, #24]
 143 0038 9A69     		ldr	r2, [r3, #24]
ARM GAS  /tmp/ccfbusIR.s 			page 6


 144 003a 02F00402 		and	r2, r2, #4
 145 003e 0292     		str	r2, [sp, #8]
 146 0040 029A     		ldr	r2, [sp, #8]
 147              	.LBE6:
 148              	.LBB7:
 123:Src/stm32f1xx_hal_msp.c ****     /**ADC1 GPIO Configuration    
 149              		.loc 1 123 0
 150 0042 9A69     		ldr	r2, [r3, #24]
 151 0044 42F00802 		orr	r2, r2, #8
 152 0048 9A61     		str	r2, [r3, #24]
 153 004a 9B69     		ldr	r3, [r3, #24]
 154 004c 03F00803 		and	r3, r3, #8
 155 0050 0393     		str	r3, [sp, #12]
 156 0052 039B     		ldr	r3, [sp, #12]
 157              	.LBE7:
 130:Src/stm32f1xx_hal_msp.c ****     GPIO_InitStruct.Mode = GPIO_MODE_ANALOG;
 158              		.loc 1 130 0
 159 0054 8323     		movs	r3, #131
 160 0056 0493     		str	r3, [sp, #16]
 131:Src/stm32f1xx_hal_msp.c ****     HAL_GPIO_Init(GPIOA, &GPIO_InitStruct);
 161              		.loc 1 131 0
 162 0058 0324     		movs	r4, #3
 163 005a 0594     		str	r4, [sp, #20]
 132:Src/stm32f1xx_hal_msp.c **** 
 164              		.loc 1 132 0
 165 005c 04A9     		add	r1, sp, #16
 166 005e 0648     		ldr	r0, .L9+4
 167              	.LVL6:
 168 0060 FFF7FEFF 		bl	HAL_GPIO_Init
 169              	.LVL7:
 134:Src/stm32f1xx_hal_msp.c ****     GPIO_InitStruct.Mode = GPIO_MODE_ANALOG;
 170              		.loc 1 134 0
 171 0064 0223     		movs	r3, #2
 172 0066 0493     		str	r3, [sp, #16]
 135:Src/stm32f1xx_hal_msp.c ****     HAL_GPIO_Init(GPIOB, &GPIO_InitStruct);
 173              		.loc 1 135 0
 174 0068 0594     		str	r4, [sp, #20]
 136:Src/stm32f1xx_hal_msp.c **** 
 175              		.loc 1 136 0
 176 006a 04A9     		add	r1, sp, #16
 177 006c 0348     		ldr	r0, .L9+8
 178 006e FFF7FEFF 		bl	HAL_GPIO_Init
 179              	.LVL8:
 180              		.loc 1 143 0
 181 0072 D0E7     		b	.L5
 182              	.L10:
 183              		.align	2
 184              	.L9:
 185 0074 00240140 		.word	1073816576
 186 0078 00080140 		.word	1073809408
 187 007c 000C0140 		.word	1073810432
 188              		.cfi_endproc
 189              	.LFE65:
 191              		.section	.text.HAL_ADC_MspDeInit,"ax",%progbits
 192              		.align	1
 193              		.global	HAL_ADC_MspDeInit
 194              		.syntax unified
ARM GAS  /tmp/ccfbusIR.s 			page 7


 195              		.thumb
 196              		.thumb_func
 197              		.fpu softvfp
 199              	HAL_ADC_MspDeInit:
 200              	.LFB66:
 144:Src/stm32f1xx_hal_msp.c **** 
 145:Src/stm32f1xx_hal_msp.c **** /**
 146:Src/stm32f1xx_hal_msp.c **** * @brief ADC MSP De-Initialization
 147:Src/stm32f1xx_hal_msp.c **** * This function freeze the hardware resources used in this example
 148:Src/stm32f1xx_hal_msp.c **** * @param hadc: ADC handle pointer
 149:Src/stm32f1xx_hal_msp.c **** * @retval None
 150:Src/stm32f1xx_hal_msp.c **** */
 151:Src/stm32f1xx_hal_msp.c **** 
 152:Src/stm32f1xx_hal_msp.c **** void HAL_ADC_MspDeInit(ADC_HandleTypeDef* hadc)
 153:Src/stm32f1xx_hal_msp.c **** {
 201              		.loc 1 153 0
 202              		.cfi_startproc
 203              		@ args = 0, pretend = 0, frame = 0
 204              		@ frame_needed = 0, uses_anonymous_args = 0
 205              	.LVL9:
 206 0000 08B5     		push	{r3, lr}
 207              	.LCFI6:
 208              		.cfi_def_cfa_offset 8
 209              		.cfi_offset 3, -8
 210              		.cfi_offset 14, -4
 154:Src/stm32f1xx_hal_msp.c **** 
 155:Src/stm32f1xx_hal_msp.c ****   if(hadc->Instance==ADC1)
 211              		.loc 1 155 0
 212 0002 0268     		ldr	r2, [r0]
 213 0004 084B     		ldr	r3, .L15
 214 0006 9A42     		cmp	r2, r3
 215 0008 00D0     		beq	.L14
 216              	.LVL10:
 217              	.L11:
 218 000a 08BD     		pop	{r3, pc}
 219              	.LVL11:
 220              	.L14:
 156:Src/stm32f1xx_hal_msp.c ****   {
 157:Src/stm32f1xx_hal_msp.c ****   /* USER CODE BEGIN ADC1_MspDeInit 0 */
 158:Src/stm32f1xx_hal_msp.c **** 
 159:Src/stm32f1xx_hal_msp.c ****   /* USER CODE END ADC1_MspDeInit 0 */
 160:Src/stm32f1xx_hal_msp.c ****     /* Peripheral clock disable */
 161:Src/stm32f1xx_hal_msp.c ****     __HAL_RCC_ADC1_CLK_DISABLE();
 221              		.loc 1 161 0
 222 000c 074A     		ldr	r2, .L15+4
 223 000e 9369     		ldr	r3, [r2, #24]
 224 0010 23F40073 		bic	r3, r3, #512
 225 0014 9361     		str	r3, [r2, #24]
 162:Src/stm32f1xx_hal_msp.c ****   
 163:Src/stm32f1xx_hal_msp.c ****     /**ADC1 GPIO Configuration    
 164:Src/stm32f1xx_hal_msp.c ****     PA0-WKUP     ------> ADC1_IN0
 165:Src/stm32f1xx_hal_msp.c ****     PA1     ------> ADC1_IN1
 166:Src/stm32f1xx_hal_msp.c ****     PA7     ------> ADC1_IN7
 167:Src/stm32f1xx_hal_msp.c ****     PB1     ------> ADC1_IN9 
 168:Src/stm32f1xx_hal_msp.c ****     */
 169:Src/stm32f1xx_hal_msp.c ****     HAL_GPIO_DeInit(GPIOA, GPIO_PIN_0|GPIO_PIN_1|GPIO_PIN_7);
 226              		.loc 1 169 0
ARM GAS  /tmp/ccfbusIR.s 			page 8


 227 0016 8321     		movs	r1, #131
 228 0018 0548     		ldr	r0, .L15+8
 229              	.LVL12:
 230 001a FFF7FEFF 		bl	HAL_GPIO_DeInit
 231              	.LVL13:
 170:Src/stm32f1xx_hal_msp.c **** 
 171:Src/stm32f1xx_hal_msp.c ****     HAL_GPIO_DeInit(GPIOB, GPIO_PIN_1);
 232              		.loc 1 171 0
 233 001e 0221     		movs	r1, #2
 234 0020 0448     		ldr	r0, .L15+12
 235 0022 FFF7FEFF 		bl	HAL_GPIO_DeInit
 236              	.LVL14:
 172:Src/stm32f1xx_hal_msp.c **** 
 173:Src/stm32f1xx_hal_msp.c ****   /* USER CODE BEGIN ADC1_MspDeInit 1 */
 174:Src/stm32f1xx_hal_msp.c **** 
 175:Src/stm32f1xx_hal_msp.c ****   /* USER CODE END ADC1_MspDeInit 1 */
 176:Src/stm32f1xx_hal_msp.c ****   }
 177:Src/stm32f1xx_hal_msp.c **** 
 178:Src/stm32f1xx_hal_msp.c **** }
 237              		.loc 1 178 0
 238 0026 F0E7     		b	.L11
 239              	.L16:
 240              		.align	2
 241              	.L15:
 242 0028 00240140 		.word	1073816576
 243 002c 00100240 		.word	1073876992
 244 0030 00080140 		.word	1073809408
 245 0034 000C0140 		.word	1073810432
 246              		.cfi_endproc
 247              	.LFE66:
 249              		.section	.text.HAL_CAN_MspInit,"ax",%progbits
 250              		.align	1
 251              		.global	HAL_CAN_MspInit
 252              		.syntax unified
 253              		.thumb
 254              		.thumb_func
 255              		.fpu softvfp
 257              	HAL_CAN_MspInit:
 258              	.LFB67:
 179:Src/stm32f1xx_hal_msp.c **** 
 180:Src/stm32f1xx_hal_msp.c **** /**
 181:Src/stm32f1xx_hal_msp.c **** * @brief CAN MSP Initialization
 182:Src/stm32f1xx_hal_msp.c **** * This function configures the hardware resources used in this example
 183:Src/stm32f1xx_hal_msp.c **** * @param hcan: CAN handle pointer
 184:Src/stm32f1xx_hal_msp.c **** * @retval None
 185:Src/stm32f1xx_hal_msp.c **** */
 186:Src/stm32f1xx_hal_msp.c **** void HAL_CAN_MspInit(CAN_HandleTypeDef* hcan)
 187:Src/stm32f1xx_hal_msp.c **** {
 259              		.loc 1 187 0
 260              		.cfi_startproc
 261              		@ args = 0, pretend = 0, frame = 24
 262              		@ frame_needed = 0, uses_anonymous_args = 0
 263              	.LVL15:
 264 0000 30B5     		push	{r4, r5, lr}
 265              	.LCFI7:
 266              		.cfi_def_cfa_offset 12
 267              		.cfi_offset 4, -12
ARM GAS  /tmp/ccfbusIR.s 			page 9


 268              		.cfi_offset 5, -8
 269              		.cfi_offset 14, -4
 270 0002 87B0     		sub	sp, sp, #28
 271              	.LCFI8:
 272              		.cfi_def_cfa_offset 40
 188:Src/stm32f1xx_hal_msp.c **** 
 189:Src/stm32f1xx_hal_msp.c ****   GPIO_InitTypeDef GPIO_InitStruct = {0};
 273              		.loc 1 189 0
 274 0004 0023     		movs	r3, #0
 275 0006 0293     		str	r3, [sp, #8]
 276 0008 0393     		str	r3, [sp, #12]
 277 000a 0493     		str	r3, [sp, #16]
 278 000c 0593     		str	r3, [sp, #20]
 190:Src/stm32f1xx_hal_msp.c ****   if(hcan->Instance==CAN1)
 279              		.loc 1 190 0
 280 000e 0268     		ldr	r2, [r0]
 281 0010 1B4B     		ldr	r3, .L21
 282 0012 9A42     		cmp	r2, r3
 283 0014 01D0     		beq	.L20
 284              	.LVL16:
 285              	.L17:
 191:Src/stm32f1xx_hal_msp.c ****   {
 192:Src/stm32f1xx_hal_msp.c ****   /* USER CODE BEGIN CAN1_MspInit 0 */
 193:Src/stm32f1xx_hal_msp.c **** 
 194:Src/stm32f1xx_hal_msp.c ****   /* USER CODE END CAN1_MspInit 0 */
 195:Src/stm32f1xx_hal_msp.c ****     /* Peripheral clock enable */
 196:Src/stm32f1xx_hal_msp.c ****     __HAL_RCC_CAN1_CLK_ENABLE();
 197:Src/stm32f1xx_hal_msp.c ****   
 198:Src/stm32f1xx_hal_msp.c ****     __HAL_RCC_GPIOA_CLK_ENABLE();
 199:Src/stm32f1xx_hal_msp.c ****     /**CAN GPIO Configuration    
 200:Src/stm32f1xx_hal_msp.c ****     PA11     ------> CAN_RX
 201:Src/stm32f1xx_hal_msp.c ****     PA12     ------> CAN_TX 
 202:Src/stm32f1xx_hal_msp.c ****     */
 203:Src/stm32f1xx_hal_msp.c ****     GPIO_InitStruct.Pin = GPIO_PIN_11;
 204:Src/stm32f1xx_hal_msp.c ****     GPIO_InitStruct.Mode = GPIO_MODE_INPUT;
 205:Src/stm32f1xx_hal_msp.c ****     GPIO_InitStruct.Pull = GPIO_NOPULL;
 206:Src/stm32f1xx_hal_msp.c ****     HAL_GPIO_Init(GPIOA, &GPIO_InitStruct);
 207:Src/stm32f1xx_hal_msp.c **** 
 208:Src/stm32f1xx_hal_msp.c ****     GPIO_InitStruct.Pin = GPIO_PIN_12;
 209:Src/stm32f1xx_hal_msp.c ****     GPIO_InitStruct.Mode = GPIO_MODE_AF_PP;
 210:Src/stm32f1xx_hal_msp.c ****     GPIO_InitStruct.Speed = GPIO_SPEED_FREQ_HIGH;
 211:Src/stm32f1xx_hal_msp.c ****     HAL_GPIO_Init(GPIOA, &GPIO_InitStruct);
 212:Src/stm32f1xx_hal_msp.c **** 
 213:Src/stm32f1xx_hal_msp.c ****   /* USER CODE BEGIN CAN1_MspInit 1 */
 214:Src/stm32f1xx_hal_msp.c **** 	HAL_NVIC_SetPriority(USB_LP_CAN1_RX0_IRQn, 0, 0);
 215:Src/stm32f1xx_hal_msp.c ****     HAL_NVIC_EnableIRQ(USB_LP_CAN1_RX0_IRQn);
 216:Src/stm32f1xx_hal_msp.c ****   /* USER CODE END CAN1_MspInit 1 */
 217:Src/stm32f1xx_hal_msp.c ****   }
 218:Src/stm32f1xx_hal_msp.c **** 
 219:Src/stm32f1xx_hal_msp.c **** }
 286              		.loc 1 219 0
 287 0016 07B0     		add	sp, sp, #28
 288              	.LCFI9:
 289              		.cfi_remember_state
 290              		.cfi_def_cfa_offset 12
 291              		@ sp needed
 292 0018 30BD     		pop	{r4, r5, pc}
ARM GAS  /tmp/ccfbusIR.s 			page 10


 293              	.LVL17:
 294              	.L20:
 295              	.LCFI10:
 296              		.cfi_restore_state
 297              	.LBB8:
 196:Src/stm32f1xx_hal_msp.c ****   
 298              		.loc 1 196 0
 299 001a 03F5D633 		add	r3, r3, #109568
 300 001e DA69     		ldr	r2, [r3, #28]
 301 0020 42F00072 		orr	r2, r2, #33554432
 302 0024 DA61     		str	r2, [r3, #28]
 303 0026 DA69     		ldr	r2, [r3, #28]
 304 0028 02F00072 		and	r2, r2, #33554432
 305 002c 0092     		str	r2, [sp]
 306 002e 009A     		ldr	r2, [sp]
 307              	.LBE8:
 308              	.LBB9:
 198:Src/stm32f1xx_hal_msp.c ****     /**CAN GPIO Configuration    
 309              		.loc 1 198 0
 310 0030 9A69     		ldr	r2, [r3, #24]
 311 0032 42F00402 		orr	r2, r2, #4
 312 0036 9A61     		str	r2, [r3, #24]
 313 0038 9B69     		ldr	r3, [r3, #24]
 314 003a 03F00403 		and	r3, r3, #4
 315 003e 0193     		str	r3, [sp, #4]
 316 0040 019B     		ldr	r3, [sp, #4]
 317              	.LBE9:
 203:Src/stm32f1xx_hal_msp.c ****     GPIO_InitStruct.Mode = GPIO_MODE_INPUT;
 318              		.loc 1 203 0
 319 0042 06AC     		add	r4, sp, #24
 320 0044 4FF40063 		mov	r3, #2048
 321 0048 44F8103D 		str	r3, [r4, #-16]!
 206:Src/stm32f1xx_hal_msp.c **** 
 322              		.loc 1 206 0
 323 004c 0D4D     		ldr	r5, .L21+4
 324 004e 2146     		mov	r1, r4
 325 0050 2846     		mov	r0, r5
 326              	.LVL18:
 327 0052 FFF7FEFF 		bl	HAL_GPIO_Init
 328              	.LVL19:
 208:Src/stm32f1xx_hal_msp.c ****     GPIO_InitStruct.Mode = GPIO_MODE_AF_PP;
 329              		.loc 1 208 0
 330 0056 4FF48053 		mov	r3, #4096
 331 005a 0293     		str	r3, [sp, #8]
 209:Src/stm32f1xx_hal_msp.c ****     GPIO_InitStruct.Speed = GPIO_SPEED_FREQ_HIGH;
 332              		.loc 1 209 0
 333 005c 0223     		movs	r3, #2
 334 005e 0393     		str	r3, [sp, #12]
 210:Src/stm32f1xx_hal_msp.c ****     HAL_GPIO_Init(GPIOA, &GPIO_InitStruct);
 335              		.loc 1 210 0
 336 0060 0323     		movs	r3, #3
 337 0062 0593     		str	r3, [sp, #20]
 211:Src/stm32f1xx_hal_msp.c **** 
 338              		.loc 1 211 0
 339 0064 2146     		mov	r1, r4
 340 0066 2846     		mov	r0, r5
 341 0068 FFF7FEFF 		bl	HAL_GPIO_Init
ARM GAS  /tmp/ccfbusIR.s 			page 11


 342              	.LVL20:
 214:Src/stm32f1xx_hal_msp.c ****     HAL_NVIC_EnableIRQ(USB_LP_CAN1_RX0_IRQn);
 343              		.loc 1 214 0
 344 006c 0022     		movs	r2, #0
 345 006e 1146     		mov	r1, r2
 346 0070 1420     		movs	r0, #20
 347 0072 FFF7FEFF 		bl	HAL_NVIC_SetPriority
 348              	.LVL21:
 215:Src/stm32f1xx_hal_msp.c ****   /* USER CODE END CAN1_MspInit 1 */
 349              		.loc 1 215 0
 350 0076 1420     		movs	r0, #20
 351 0078 FFF7FEFF 		bl	HAL_NVIC_EnableIRQ
 352              	.LVL22:
 353              		.loc 1 219 0
 354 007c CBE7     		b	.L17
 355              	.L22:
 356 007e 00BF     		.align	2
 357              	.L21:
 358 0080 00640040 		.word	1073767424
 359 0084 00080140 		.word	1073809408
 360              		.cfi_endproc
 361              	.LFE67:
 363              		.section	.text.HAL_CAN_MspDeInit,"ax",%progbits
 364              		.align	1
 365              		.global	HAL_CAN_MspDeInit
 366              		.syntax unified
 367              		.thumb
 368              		.thumb_func
 369              		.fpu softvfp
 371              	HAL_CAN_MspDeInit:
 372              	.LFB68:
 220:Src/stm32f1xx_hal_msp.c **** 
 221:Src/stm32f1xx_hal_msp.c **** /**
 222:Src/stm32f1xx_hal_msp.c **** * @brief CAN MSP De-Initialization
 223:Src/stm32f1xx_hal_msp.c **** * This function freeze the hardware resources used in this example
 224:Src/stm32f1xx_hal_msp.c **** * @param hcan: CAN handle pointer
 225:Src/stm32f1xx_hal_msp.c **** * @retval None
 226:Src/stm32f1xx_hal_msp.c **** */
 227:Src/stm32f1xx_hal_msp.c **** 
 228:Src/stm32f1xx_hal_msp.c **** void HAL_CAN_MspDeInit(CAN_HandleTypeDef* hcan)
 229:Src/stm32f1xx_hal_msp.c **** {
 373              		.loc 1 229 0
 374              		.cfi_startproc
 375              		@ args = 0, pretend = 0, frame = 0
 376              		@ frame_needed = 0, uses_anonymous_args = 0
 377              	.LVL23:
 378 0000 08B5     		push	{r3, lr}
 379              	.LCFI11:
 380              		.cfi_def_cfa_offset 8
 381              		.cfi_offset 3, -8
 382              		.cfi_offset 14, -4
 230:Src/stm32f1xx_hal_msp.c **** 
 231:Src/stm32f1xx_hal_msp.c ****   if(hcan->Instance==CAN1)
 383              		.loc 1 231 0
 384 0002 0268     		ldr	r2, [r0]
 385 0004 084B     		ldr	r3, .L27
 386 0006 9A42     		cmp	r2, r3
ARM GAS  /tmp/ccfbusIR.s 			page 12


 387 0008 00D0     		beq	.L26
 388              	.LVL24:
 389              	.L23:
 390 000a 08BD     		pop	{r3, pc}
 391              	.LVL25:
 392              	.L26:
 232:Src/stm32f1xx_hal_msp.c ****   {
 233:Src/stm32f1xx_hal_msp.c ****   /* USER CODE BEGIN CAN1_MspDeInit 0 */
 234:Src/stm32f1xx_hal_msp.c **** 
 235:Src/stm32f1xx_hal_msp.c ****   /* USER CODE END CAN1_MspDeInit 0 */
 236:Src/stm32f1xx_hal_msp.c ****     /* Peripheral clock disable */
 237:Src/stm32f1xx_hal_msp.c ****     __HAL_RCC_CAN1_CLK_DISABLE();
 393              		.loc 1 237 0
 394 000c 074A     		ldr	r2, .L27+4
 395 000e D369     		ldr	r3, [r2, #28]
 396 0010 23F00073 		bic	r3, r3, #33554432
 397 0014 D361     		str	r3, [r2, #28]
 238:Src/stm32f1xx_hal_msp.c ****   
 239:Src/stm32f1xx_hal_msp.c ****     /**CAN GPIO Configuration    
 240:Src/stm32f1xx_hal_msp.c ****     PA11     ------> CAN_RX
 241:Src/stm32f1xx_hal_msp.c ****     PA12     ------> CAN_TX 
 242:Src/stm32f1xx_hal_msp.c ****     */
 243:Src/stm32f1xx_hal_msp.c ****     HAL_GPIO_DeInit(GPIOA, GPIO_PIN_11|GPIO_PIN_12);
 398              		.loc 1 243 0
 399 0016 4FF4C051 		mov	r1, #6144
 400 001a 0548     		ldr	r0, .L27+8
 401              	.LVL26:
 402 001c FFF7FEFF 		bl	HAL_GPIO_DeInit
 403              	.LVL27:
 244:Src/stm32f1xx_hal_msp.c **** 	
 245:Src/stm32f1xx_hal_msp.c ****     /* CAN1 interrupt DeInit */
 246:Src/stm32f1xx_hal_msp.c ****     HAL_NVIC_DisableIRQ(USB_LP_CAN1_RX0_IRQn);
 404              		.loc 1 246 0
 405 0020 1420     		movs	r0, #20
 406 0022 FFF7FEFF 		bl	HAL_NVIC_DisableIRQ
 407              	.LVL28:
 247:Src/stm32f1xx_hal_msp.c ****   /* USER CODE BEGIN CAN1_MspDeInit 1 */
 248:Src/stm32f1xx_hal_msp.c **** 
 249:Src/stm32f1xx_hal_msp.c ****   /* USER CODE END CAN1_MspDeInit 1 */
 250:Src/stm32f1xx_hal_msp.c ****   }
 251:Src/stm32f1xx_hal_msp.c **** 
 252:Src/stm32f1xx_hal_msp.c **** }
 408              		.loc 1 252 0
 409 0026 F0E7     		b	.L23
 410              	.L28:
 411              		.align	2
 412              	.L27:
 413 0028 00640040 		.word	1073767424
 414 002c 00100240 		.word	1073876992
 415 0030 00080140 		.word	1073809408
 416              		.cfi_endproc
 417              	.LFE68:
 419              		.text
 420              	.Letext0:
 421              		.file 2 "/usr/include/newlib/machine/_default_types.h"
 422              		.file 3 "/usr/include/newlib/sys/_stdint.h"
 423              		.file 4 "Drivers/CMSIS/Include/core_cm3.h"
ARM GAS  /tmp/ccfbusIR.s 			page 13


 424              		.file 5 "Drivers/CMSIS/Device/ST/STM32F1xx/Include/system_stm32f1xx.h"
 425              		.file 6 "Drivers/CMSIS/Device/ST/STM32F1xx/Include/stm32f103xb.h"
 426              		.file 7 "/usr/include/newlib/sys/lock.h"
 427              		.file 8 "/usr/include/newlib/sys/_types.h"
 428              		.file 9 "/usr/lib/gcc/arm-none-eabi/6.3.1/include/stddef.h"
 429              		.file 10 "/usr/include/newlib/sys/reent.h"
 430              		.file 11 "Drivers/STM32F1xx_HAL_Driver/Inc/stm32f1xx_hal_def.h"
 431              		.file 12 "Drivers/STM32F1xx_HAL_Driver/Inc/stm32f1xx_hal_gpio.h"
 432              		.file 13 "Drivers/STM32F1xx_HAL_Driver/Inc/stm32f1xx_hal_dma.h"
 433              		.file 14 "Drivers/STM32F1xx_HAL_Driver/Inc/stm32f1xx_hal_can.h"
 434              		.file 15 "Drivers/STM32F1xx_HAL_Driver/Inc/stm32f1xx_hal_adc.h"
 435              		.file 16 "Drivers/STM32F1xx_HAL_Driver/Inc/stm32f1xx_hal_cortex.h"
ARM GAS  /tmp/ccfbusIR.s 			page 14

