ARM GAS  C:\cygwin64\tmp\cc7JEtnh.s 			page 1


   1              		.cpu cortex-m3
   2              		.eabi_attribute 20, 1
   3              		.eabi_attribute 21, 1
   4              		.eabi_attribute 23, 3
   5              		.eabi_attribute 24, 1
   6              		.eabi_attribute 25, 1
   7              		.eabi_attribute 26, 1
   8              		.eabi_attribute 30, 1
   9              		.eabi_attribute 34, 1
  10              		.eabi_attribute 18, 4
  11              		.file	"LTC6811.c"
  12              		.text
  13              	.Ltext0:
  14              		.cfi_sections	.debug_frame
  15              		.section	.text.initPECTable,"ax",%progbits
  16              		.align	1
  17              		.global	initPECTable
  18              		.arch armv7-m
  19              		.syntax unified
  20              		.thumb
  21              		.thumb_func
  22              		.fpu softvfp
  24              	initPECTable:
  25              	.LFB66:
  26              		.file 1 "Src/LTC6811.c"
   1:Src/LTC6811.c **** /*
   2:Src/LTC6811.c **** 	LTC6811 Command Functions
   3:Src/LTC6811.c **** 	Matt Vlasaty
   4:Src/LTC6811.c **** 	March 29th, 2019
   5:Src/LTC6811.c **** 	
   6:Src/LTC6811.c **** 	General Functions
   7:Src/LTC6811.c **** 		sendBroadcastCommand: void sendBroadcastCommand(CommandCodeTypedef command);
   8:Src/LTC6811.c **** 			- sends specified write-only command to every LTC in the chain (ex: ADCV)
   9:Src/LTC6811.c **** 			- CommandCodeTypedef enum contains every command code used
  10:Src/LTC6811.c **** 		sendAddressCommand: void sendAddressCommand(CommandCodeTypedef command, uint8_t address);
  11:Src/LTC6811.c **** 			- sends specified write-only command to LTC with specified address
  12:Src/LTC6811.c **** 		readRegister: bool readRegister(CommandCodeTypedef command, uint8_t address, uint16_t *data);
  13:Src/LTC6811.c **** 			- reads register specified in command from specified board
  14:Src/LTC6811.c **** 			- ex: ReadCellVoltageRegisterGroup1to3, ReadAuxiliaryGroupA, ReadConfigurationRegisterGroup
  15:Src/LTC6811.c **** 			- returns true if received PEC matches calculated PEC
  16:Src/LTC6811.c **** 		
  17:Src/LTC6811.c **** 	Configuration Functions
  18:Src/LTC6811.c **** 		writeConfigAll: void writeConfigAll(BMSconfigStructTypedef cfg);
  19:Src/LTC6811.c **** 			- writes configuration data from BMSconfig struct into LTC configuration register
  20:Src/LTC6811.c **** 			- BMSconfig struct includes ADCMode, UV, OV, and discharge enable for each cell
  21:Src/LTC6811.c **** 			- BMSconfig struct also contains number of ICs and array of addresses used
  22:Src/LTC6811.c **** 		writeConfigAddress: void writeConfigAddress(BMSconfigStructTypedef cfg, uint8_t address);
  23:Src/LTC6811.c **** 			- this is only used for cellDischarge command
  24:Src/LTC6811.c **** 			- writes configuration data to LTC with specified address
  25:Src/LTC6811.c **** 		readConfig: bool readConfig(uint8_t address, uint8_t cfg[6]);
  26:Src/LTC6811.c **** 			- uses general readRegister function to check current state of LTC configuration register
  27:Src/LTC6811.c **** 			- this is mostly for testing purposes
  28:Src/LTC6811.c **** 			- returns true if received PEC matches calculated PEC (same as readRegister)
  29:Src/LTC6811.c **** 		
  30:Src/LTC6811.c **** 	Cell Voltage Functions
  31:Src/LTC6811.c **** 		readCellVoltage: bool readCellVoltage(uint8_t address, uint16_t cellVoltage[12]);
  32:Src/LTC6811.c **** 			- sends ADCV command that begins conversion for every cell to specified LTC
ARM GAS  C:\cygwin64\tmp\cc7JEtnh.s 			page 2


  33:Src/LTC6811.c **** 			- reads all cell voltage registers using general readRegister function
  34:Src/LTC6811.c **** 			- used cell inputs (1, 2, 3, 4, 7, 8, 9, 10) must be chosen from cellVoltage[12] later
  35:Src/LTC6811.c **** 			- returns true if received PEC matches calculated PEC for every register read
  36:Src/LTC6811.c **** 		readAllCellVoltages: bool readAllCellVoltages(BMSconfigStructTypedef cfg, uint8_t bmsData[96][6])
  37:Src/LTC6811.c **** 			- stores cell number, cell voltage, and data valid bit into bmsData
  38:Src/LTC6811.c **** 			- returns true if no PEC for any register read for any board
  39:Src/LTC6811.c **** 	Cell Temperature Functions
  40:Src/LTC6811.c **** 		readCellTemp: bool readCellTemp(uint8_t address, uint16_t cellTemp[4], bool dcFault[4], bool temp
  41:Src/LTC6811.c **** 			- initiates ADC conversion for GPIO inputs connected to temperature sensors
  42:Src/LTC6811.c **** 			- reads auxiliary register groups using general readRegister function
  43:Src/LTC6811.c **** 			- converts measured voltage into temperature based on temperature sensor response
  44:Src/LTC6811.c **** 			- checks for disconnected temperature sensor and overtemperature faults for each LTC and stores 
  45:Src/LTC6811.c **** 		readAllCellTemps: bool readAllCellTemps(uint8_t numBoards, uint16_t cellTemp[numBoards][4], bool 
  46:Src/LTC6811.c **** 			- not tested
  47:Src/LTC6811.c **** 			- using order of ICs in BMSconfig, stores cell temperature for every cell on every board into 2D
  48:Src/LTC6811.c **** 			- returns false if any readCellTemp returns false
  49:Src/LTC6811.c **** 	
  50:Src/LTC6811.c **** 	Cell Connection Functions
  51:Src/LTC6811.c **** 		checkCellConnection: void checkCellConnection(uint16_t cellVoltage[12], bool cellConnection[12]);
  52:Src/LTC6811.c **** 			- needs previously obtained cell voltage measurements
  53:Src/LTC6811.c **** 			- initiates ADOW command with PUP = 0 to source 100uA while measuring cell voltage
  54:Src/LTC6811.c **** 			- reads cell voltages with readCellVoltage function
  55:Src/LTC6811.c **** 			- compares previously measured values to open wire check values
  56:Src/LTC6811.c **** 			- if there is a significant drop in voltage (should be configurable), cell is disconnected
  57:Src/LTC6811.c **** 			- stores 1 into cellConnection if cell is connected
  58:Src/LTC6811.c **** 			- stores 0 into cellConnection if cell is disconnected
  59:Src/LTC6811.c **** 		checkAllCellConnections: 
  60:Src/LTC6811.c **** 	
  61:Src/LTC6811.c **** 	PEC Functions
  62:Src/LTC6811.c **** 		initPECTable: void initPECTable(void);
  63:Src/LTC6811.c **** 			- taken from LTC6811 datasheet
  64:Src/LTC6811.c **** 			- generates PEC look-up table
  65:Src/LTC6811.c **** 			- should be called on start-up
  66:Src/LTC6811.c **** 		calculatePEC: uint16_t calculatePEC(uint8_t len, uint8_t *data);
  67:Src/LTC6811.c **** 			- taken from LTC6811 datasheet
  68:Src/LTC6811.c **** 			- used when sending command to calculate necessary PEC bytes to follow command bytes
  69:Src/LTC6811.c **** 			- used when receiving data to compare received PEC with the PEC that should have been received b
  70:Src/LTC6811.c **** 			- returns uint16_t PEC value
  71:Src/LTC6811.c **** 			
  72:Src/LTC6811.c **** 	TODO:
  73:Src/LTC6811.c **** 		- checkCellConnection return value needs to disregard unused cell inputs
  74:Src/LTC6811.c **** 		- resolve issue with writeConfig not changing every bit in the first register group
  75:Src/LTC6811.c **** 		- test functions used to read from every board (readAllCellVoltages should be [12][8])
  76:Src/LTC6811.c **** 		- minor changes (using more user-defined constants, changing return values)
  77:Src/LTC6811.c **** 		
  78:Src/LTC6811.c **** 	NOTES:
  79:Src/LTC6811.c **** 		- writeConfig is called every loop for every LTC because dischargeCells is called every loop for 
  80:Src/LTC6811.c **** 		- always take measurements, only send when not charging? (CAN messages for charging?)
  81:Src/LTC6811.c **** 		- every 'readAll' function starts with address = 0 and increases sequentially
  82:Src/LTC6811.c **** 		
  83:Src/LTC6811.c **** 		- in temp read, faults are determined but not transferred
  84:Src/LTC6811.c **** 		- temperature conversion works, but error is +/- 1 degree
  85:Src/LTC6811.c **** */
  86:Src/LTC6811.c **** 
  87:Src/LTC6811.c **** 
  88:Src/LTC6811.c **** #include "LTC6811.h"
  89:Src/LTC6811.c **** 
ARM GAS  C:\cygwin64\tmp\cc7JEtnh.s 			page 3


  90:Src/LTC6811.c **** uint16_t pec15Table[256];
  91:Src/LTC6811.c **** uint16_t CRC15_POLY = 0x4599;
  92:Src/LTC6811.c **** 
  93:Src/LTC6811.c **** void initPECTable(void) {
  27              		.loc 1 93 25 view -0
  28              		.cfi_startproc
  29              		@ args = 0, pretend = 0, frame = 0
  30              		@ frame_needed = 0, uses_anonymous_args = 0
  31              		@ link register save eliminated.
  94:Src/LTC6811.c **** 	
  95:Src/LTC6811.c **** 	uint16_t remainder;
  32              		.loc 1 95 2 view .LVU1
  96:Src/LTC6811.c **** 	
  97:Src/LTC6811.c **** 	for (int i = 0; i < 256; i++) {
  33              		.loc 1 97 2 view .LVU2
  34              	.LBB2:
  35              		.loc 1 97 7 view .LVU3
  36              	.LVL0:
  37              		.loc 1 97 11 is_stmt 0 view .LVU4
  38 0000 0020     		movs	r0, #0
  39              		.loc 1 97 2 view .LVU5
  40 0002 11E0     		b	.L2
  41              	.LVL1:
  42              	.L4:
  43              	.LBB3:
  98:Src/LTC6811.c **** 		remainder = i << 7;
  99:Src/LTC6811.c **** 		for (int bit = 8; bit > 0; bit--) {
 100:Src/LTC6811.c **** 			if (remainder & 0x4000) {
 101:Src/LTC6811.c **** 				remainder = ((remainder << 1));
 102:Src/LTC6811.c **** 				remainder = (remainder ^ CRC15_POLY);
 103:Src/LTC6811.c **** 			}
 104:Src/LTC6811.c **** 			else {
 105:Src/LTC6811.c **** 				remainder = ((remainder << 1));
  44              		.loc 1 105 5 is_stmt 1 view .LVU6
  45              		.loc 1 105 15 is_stmt 0 view .LVU7
  46 0004 5B00     		lsls	r3, r3, #1
  47              	.LVL2:
  48              		.loc 1 105 15 view .LVU8
  49 0006 9BB2     		uxth	r3, r3
  50              	.LVL3:
  51              	.L5:
  99:Src/LTC6811.c **** 			if (remainder & 0x4000) {
  52              		.loc 1 99 33 discriminator 2 view .LVU9
  53 0008 013A     		subs	r2, r2, #1
  54              	.LVL4:
  55              	.L3:
  99:Src/LTC6811.c **** 			if (remainder & 0x4000) {
  56              		.loc 1 99 3 discriminator 1 view .LVU10
  57 000a 002A     		cmp	r2, #0
  58 000c 08DD     		ble	.L8
 100:Src/LTC6811.c **** 				remainder = ((remainder << 1));
  59              		.loc 1 100 4 is_stmt 1 view .LVU11
 100:Src/LTC6811.c **** 				remainder = ((remainder << 1));
  60              		.loc 1 100 7 is_stmt 0 view .LVU12
  61 000e 13F4804F 		tst	r3, #16384
  62 0012 F7D0     		beq	.L4
 101:Src/LTC6811.c **** 				remainder = (remainder ^ CRC15_POLY);
ARM GAS  C:\cygwin64\tmp\cc7JEtnh.s 			page 4


  63              		.loc 1 101 5 is_stmt 1 view .LVU13
 101:Src/LTC6811.c **** 				remainder = (remainder ^ CRC15_POLY);
  64              		.loc 1 101 15 is_stmt 0 view .LVU14
  65 0014 5B00     		lsls	r3, r3, #1
  66              	.LVL5:
 101:Src/LTC6811.c **** 				remainder = (remainder ^ CRC15_POLY);
  67              		.loc 1 101 15 view .LVU15
  68 0016 9BB2     		uxth	r3, r3
  69              	.LVL6:
 102:Src/LTC6811.c **** 			}
  70              		.loc 1 102 5 is_stmt 1 view .LVU16
 102:Src/LTC6811.c **** 			}
  71              		.loc 1 102 15 is_stmt 0 view .LVU17
  72 0018 0749     		ldr	r1, .L10
  73 001a 0988     		ldrh	r1, [r1]
  74 001c 4B40     		eors	r3, r3, r1
  75              	.LVL7:
 102:Src/LTC6811.c **** 			}
  76              		.loc 1 102 15 view .LVU18
  77 001e F3E7     		b	.L5
  78              	.L8:
 102:Src/LTC6811.c **** 			}
  79              		.loc 1 102 15 view .LVU19
  80              	.LBE3:
 106:Src/LTC6811.c **** 			}
 107:Src/LTC6811.c **** 		}
 108:Src/LTC6811.c **** 		pec15Table[i] = remainder & 0xFFFF;
  81              		.loc 1 108 3 is_stmt 1 discriminator 2 view .LVU20
  82              		.loc 1 108 17 is_stmt 0 discriminator 2 view .LVU21
  83 0020 064A     		ldr	r2, .L10+4
  84              	.LVL8:
  85              		.loc 1 108 17 discriminator 2 view .LVU22
  86 0022 22F81030 		strh	r3, [r2, r0, lsl #1]	@ movhi
  97:Src/LTC6811.c **** 		remainder = i << 7;
  87              		.loc 1 97 28 discriminator 2 view .LVU23
  88 0026 0130     		adds	r0, r0, #1
  89              	.LVL9:
  90              	.L2:
  97:Src/LTC6811.c **** 		remainder = i << 7;
  91              		.loc 1 97 2 discriminator 1 view .LVU24
  92 0028 FF28     		cmp	r0, #255
  93 002a 04DC     		bgt	.L9
  98:Src/LTC6811.c **** 		for (int bit = 8; bit > 0; bit--) {
  94              		.loc 1 98 3 is_stmt 1 view .LVU25
  98:Src/LTC6811.c **** 		for (int bit = 8; bit > 0; bit--) {
  95              		.loc 1 98 17 is_stmt 0 view .LVU26
  96 002c 83B2     		uxth	r3, r0
  98:Src/LTC6811.c **** 		for (int bit = 8; bit > 0; bit--) {
  97              		.loc 1 98 13 view .LVU27
  98 002e DB01     		lsls	r3, r3, #7
  99 0030 9BB2     		uxth	r3, r3
 100              	.LVL10:
  99:Src/LTC6811.c **** 			if (remainder & 0x4000) {
 101              		.loc 1 99 3 is_stmt 1 view .LVU28
 102              	.LBB4:
  99:Src/LTC6811.c **** 			if (remainder & 0x4000) {
 103              		.loc 1 99 8 view .LVU29
ARM GAS  C:\cygwin64\tmp\cc7JEtnh.s 			page 5


  99:Src/LTC6811.c **** 			if (remainder & 0x4000) {
 104              		.loc 1 99 12 is_stmt 0 view .LVU30
 105 0032 0822     		movs	r2, #8
  99:Src/LTC6811.c **** 			if (remainder & 0x4000) {
 106              		.loc 1 99 3 view .LVU31
 107 0034 E9E7     		b	.L3
 108              	.LVL11:
 109              	.L9:
  99:Src/LTC6811.c **** 			if (remainder & 0x4000) {
 110              		.loc 1 99 3 view .LVU32
 111              	.LBE4:
 112              	.LBE2:
 109:Src/LTC6811.c **** 	}
 110:Src/LTC6811.c **** };
 113              		.loc 1 110 1 view .LVU33
 114 0036 7047     		bx	lr
 115              	.L11:
 116              		.align	2
 117              	.L10:
 118 0038 00000000 		.word	.LANCHOR0
 119 003c 00000000 		.word	pec15Table
 120              		.cfi_endproc
 121              	.LFE66:
 123              		.section	.text.calculatePEC,"ax",%progbits
 124              		.align	1
 125              		.global	calculatePEC
 126              		.syntax unified
 127              		.thumb
 128              		.thumb_func
 129              		.fpu softvfp
 131              	calculatePEC:
 132              	.LVL12:
 133              	.LFB79:
 111:Src/LTC6811.c **** 
 112:Src/LTC6811.c **** void writeConfigAddress(BMSconfigStructTypedef cfg, uint8_t address) {
 113:Src/LTC6811.c **** 
 114:Src/LTC6811.c **** 	uint8_t config[6];
 115:Src/LTC6811.c **** 	uint8_t *cmd;
 116:Src/LTC6811.c **** 	uint8_t cmd_len = 12;
 117:Src/LTC6811.c **** 	uint16_t PEC_return;
 118:Src/LTC6811.c **** 	uint8_t dummy[8];
 119:Src/LTC6811.c **** 
 120:Src/LTC6811.c **** 	readConfig(address, dummy);
 121:Src/LTC6811.c **** 	
 122:Src/LTC6811.c **** 	cmd = (uint8_t *)malloc(cmd_len*sizeof(uint8_t));
 123:Src/LTC6811.c **** 	
 124:Src/LTC6811.c **** 	config[0] = (uint8_t) (cfg.GPIO5PulldownOff << 7) | (cfg.GPIO4PulldownOff << 6) | (cfg.GPIO3Pulldo
 125:Src/LTC6811.c **** 	config[1] = (uint8_t) (cfg.UndervoltageComparisonVoltage & 0xFF);
 126:Src/LTC6811.c **** 	config[2] = (uint8_t) ((cfg.OvervoltageComparisonVoltage << 4) & 0xF0) | ((cfg.UndervoltageCompari
 127:Src/LTC6811.c **** 	config[3] = (uint8_t) ((cfg.OvervoltageComparisonVoltage >> 4) & 0xFF);
 128:Src/LTC6811.c **** 	config[4] = (uint8_t) (cfg.DischargeCell8 << 7) | (cfg.DischargeCell7 << 6) | (cfg.DischargeCell6 
 129:Src/LTC6811.c **** 	config[5] = (uint8_t) ((cfg.DischargeTimeoutValue << 4) & 0xF0) | (cfg.DischargeCell12 << 3) | (cf
 130:Src/LTC6811.c **** 	
 131:Src/LTC6811.c **** 	cmd[0] = (uint8_t) (0x80 | ((address << 3) & 0x78) | ((WriteConfigurationRegisterGroup >> 8) & 0x0
 132:Src/LTC6811.c **** 	cmd[1] = (uint8_t) (WriteConfigurationRegisterGroup & 0xFF);
 133:Src/LTC6811.c **** 	
 134:Src/LTC6811.c **** 	PEC_return = calculatePEC(2, cmd);
ARM GAS  C:\cygwin64\tmp\cc7JEtnh.s 			page 6


 135:Src/LTC6811.c **** 	
 136:Src/LTC6811.c **** 	cmd[2] = (PEC_return >> 8) & 0xFF;
 137:Src/LTC6811.c **** 	cmd[3] = PEC_return & 0xFF;
 138:Src/LTC6811.c **** 
 139:Src/LTC6811.c **** 	cmd[4] = config[0];
 140:Src/LTC6811.c **** 	cmd[5] = config[1];
 141:Src/LTC6811.c **** 	cmd[6] = config[2];
 142:Src/LTC6811.c **** 	cmd[7] = config[3];
 143:Src/LTC6811.c **** 	cmd[8] = config[4];
 144:Src/LTC6811.c **** 	cmd[9] = config[5];
 145:Src/LTC6811.c **** 	
 146:Src/LTC6811.c **** 	PEC_return = calculatePEC(6, cmd + 4);
 147:Src/LTC6811.c **** 
 148:Src/LTC6811.c **** 	cmd[10] = (PEC_return >> 8) & 0xFF;
 149:Src/LTC6811.c **** 	cmd[11] = PEC_return & 0xFF;
 150:Src/LTC6811.c **** 	
 151:Src/LTC6811.c **** 	SPIWrite(cmd, cmd_len);
 152:Src/LTC6811.c **** 
 153:Src/LTC6811.c **** 	readConfig(address, dummy);
 154:Src/LTC6811.c **** 	
 155:Src/LTC6811.c **** 	free(cmd);
 156:Src/LTC6811.c **** 
 157:Src/LTC6811.c **** };
 158:Src/LTC6811.c **** 
 159:Src/LTC6811.c **** void writeConfigAll(BMSconfigStructTypedef cfg) {
 160:Src/LTC6811.c **** 
 161:Src/LTC6811.c **** 	for (uint8_t i = 0; i < cfg.numOfICs; i++) {
 162:Src/LTC6811.c **** 		writeConfigAddress(cfg, cfg.address[i]);
 163:Src/LTC6811.c **** 	}
 164:Src/LTC6811.c **** };
 165:Src/LTC6811.c **** 
 166:Src/LTC6811.c **** bool readCellVoltage(uint8_t address, uint16_t cellVoltage[12]) {
 167:Src/LTC6811.c **** 	
 168:Src/LTC6811.c **** 	bool PEC_check = false;
 169:Src/LTC6811.c **** 	bool dataValid = true;
 170:Src/LTC6811.c **** 	uint16_t *voltage;
 171:Src/LTC6811.c **** 	
 172:Src/LTC6811.c **** 	voltage = (uint16_t *)malloc(12*sizeof(uint16_t));
 173:Src/LTC6811.c **** 	
 174:Src/LTC6811.c **** 	sendAddressCommand(StartCellVoltageADCConversionAll, address); // start conversion for every cell
 175:Src/LTC6811.c **** 
 176:Src/LTC6811.c **** 	HAL_Delay(15); // conversion time is 12.8ms at 422Hz, so wait 15ms
 177:Src/LTC6811.c **** 	
 178:Src/LTC6811.c **** 	PEC_check = readRegister(ReadCellVoltageRegisterGroup1to3, address, voltage);
 179:Src/LTC6811.c **** 	//dataValid = dataValid & PEC_check;
 180:Src/LTC6811.c **** 	PEC_check = readRegister(ReadCellVoltageRegisterGroup4to6, address, voltage);
 181:Src/LTC6811.c **** 	dataValid = dataValid & PEC_check;
 182:Src/LTC6811.c **** 	PEC_check = readRegister(ReadCellVoltageRegisterGroup7to9, address, voltage);
 183:Src/LTC6811.c **** 	dataValid = dataValid & PEC_check;
 184:Src/LTC6811.c **** 	PEC_check = readRegister(ReadCellVoltageRegisterGroup10to12, address, voltage);
 185:Src/LTC6811.c **** 	dataValid = dataValid & PEC_check;
 186:Src/LTC6811.c **** 	PEC_check = readRegister(ReadCellVoltageRegisterGroup1to3, address, voltage);
 187:Src/LTC6811.c **** 	dataValid = dataValid & PEC_check;
 188:Src/LTC6811.c **** 	
 189:Src/LTC6811.c **** 	for (uint8_t i = 0; i < 12; i++) {
 190:Src/LTC6811.c **** 		cellVoltage[i] = voltage[i];
 191:Src/LTC6811.c **** 	}
ARM GAS  C:\cygwin64\tmp\cc7JEtnh.s 			page 7


 192:Src/LTC6811.c **** 	
 193:Src/LTC6811.c **** 	free(voltage);
 194:Src/LTC6811.c **** 	
 195:Src/LTC6811.c **** 	return(dataValid);
 196:Src/LTC6811.c **** 	
 197:Src/LTC6811.c **** };
 198:Src/LTC6811.c **** 
 199:Src/LTC6811.c **** bool readAllCellVoltages(BMSconfigStructTypedef cfg, uint8_t bmsData[96][6]) {
 200:Src/LTC6811.c **** 
 201:Src/LTC6811.c **** 	uint16_t boardVoltage[cfg.numOfCellInputs];
 202:Src/LTC6811.c **** 	bool PEC_check[cfg.numOfICs];
 203:Src/LTC6811.c **** 	bool dataValid = true;
 204:Src/LTC6811.c **** 
 205:Src/LTC6811.c **** 	for (uint8_t board = 0; board < cfg.numOfICs; board++) {
 206:Src/LTC6811.c **** 
 207:Src/LTC6811.c **** 		//read voltage of every cell input (1-12) for a specific address, store in boardVoltage
 208:Src/LTC6811.c **** 		PEC_check[board] = readCellVoltage(cfg.address[board], boardVoltage);
 209:Src/LTC6811.c **** 
 210:Src/LTC6811.c **** 		//store cell number and valid data bit in bmsData
 211:Src/LTC6811.c **** 		for (uint8_t cell = 0; cell < cfg.numOfCellsPerIC; cell++) {
 212:Src/LTC6811.c **** 			bmsData[(board * cfg.numOfCellsPerIC) + cell][0] = (uint8_t) ((board * cfg.numOfCellsPerIC) + ce
 213:Src/LTC6811.c **** 			bmsData[(board * cfg.numOfCellsPerIC) + cell][1] = (uint8_t) (0x02 & (PEC_check[board] << 1)); /
 214:Src/LTC6811.c **** 		}
 215:Src/LTC6811.c **** 
 216:Src/LTC6811.c **** 		//store cell voltage in bmsData
 217:Src/LTC6811.c **** 		bmsData[(board * cfg.numOfCellsPerIC) + 0][2] = (uint8_t) ((boardVoltage[0] >> 8) & 0xFF); //cell
 218:Src/LTC6811.c **** 		bmsData[(board * cfg.numOfCellsPerIC) + 0][3] = (uint8_t) (boardVoltage[0] & 0xFF); //cell 1, vol
 219:Src/LTC6811.c **** 		bmsData[(board * cfg.numOfCellsPerIC) + 1][2] = (uint8_t) ((boardVoltage[1] >> 8) & 0xFF); //cell
 220:Src/LTC6811.c **** 		bmsData[(board * cfg.numOfCellsPerIC) + 1][3] = (uint8_t) (boardVoltage[1] & 0xFF); //cell 2, vol
 221:Src/LTC6811.c **** 		bmsData[(board * cfg.numOfCellsPerIC) + 2][2] = (uint8_t) ((boardVoltage[2] >> 8) & 0xFF); //cell
 222:Src/LTC6811.c **** 		bmsData[(board * cfg.numOfCellsPerIC) + 2][3] = (uint8_t) (boardVoltage[2] & 0xFF); //cell 3, vol
 223:Src/LTC6811.c **** 		bmsData[(board * cfg.numOfCellsPerIC) + 3][2] = (uint8_t) ((boardVoltage[3] >> 8) & 0xFF); //cell
 224:Src/LTC6811.c **** 		bmsData[(board * cfg.numOfCellsPerIC) + 3][3] = (uint8_t) (boardVoltage[3] & 0xFF); //cell 4, vol
 225:Src/LTC6811.c **** 		bmsData[(board * cfg.numOfCellsPerIC) + 4][2] = (uint8_t) ((boardVoltage[6] >> 8) & 0xFF); //cell
 226:Src/LTC6811.c **** 		bmsData[(board * cfg.numOfCellsPerIC) + 4][3] = (uint8_t) (boardVoltage[6] & 0xFF); //cell 7, vol
 227:Src/LTC6811.c **** 		bmsData[(board * cfg.numOfCellsPerIC) + 5][2] = (uint8_t) ((boardVoltage[7] >> 8) & 0xFF); //cell
 228:Src/LTC6811.c **** 		bmsData[(board * cfg.numOfCellsPerIC) + 5][3] = (uint8_t) (boardVoltage[7] & 0xFF); //cell 8, vol
 229:Src/LTC6811.c **** 		bmsData[(board * cfg.numOfCellsPerIC) + 6][2] = (uint8_t) ((boardVoltage[8] >> 8) & 0xFF); //cell
 230:Src/LTC6811.c **** 		bmsData[(board * cfg.numOfCellsPerIC) + 6][3] = (uint8_t) (boardVoltage[8] & 0xFF); //cell 9, vol
 231:Src/LTC6811.c **** 		bmsData[(board * cfg.numOfCellsPerIC) + 7][2] = (uint8_t) ((boardVoltage[9] >> 8) & 0xFF); //cell
 232:Src/LTC6811.c **** 		bmsData[(board * cfg.numOfCellsPerIC) + 7][3] = (uint8_t) (boardVoltage[9] & 0xFF); //cell 10, vo
 233:Src/LTC6811.c **** 	
 234:Src/LTC6811.c **** 	}
 235:Src/LTC6811.c **** 
 236:Src/LTC6811.c **** 	for (uint8_t board = 0; board < cfg.numOfICs; board++) {
 237:Src/LTC6811.c **** 		if (PEC_check[board] == 0)
 238:Src/LTC6811.c **** 			dataValid = false;
 239:Src/LTC6811.c **** 	}
 240:Src/LTC6811.c **** 
 241:Src/LTC6811.c **** 	return dataValid; //return true if no PEC errors for any board 
 242:Src/LTC6811.c **** }
 243:Src/LTC6811.c **** 
 244:Src/LTC6811.c **** bool readCellTemp(uint8_t address, uint16_t cellTemp[4], bool dcFault[4], bool tempFault[4]) {
 245:Src/LTC6811.c **** 	
 246:Src/LTC6811.c **** 	bool PEC_check = false;
 247:Src/LTC6811.c **** 	bool dataValid = true;
 248:Src/LTC6811.c **** 	uint16_t *temp;
ARM GAS  C:\cygwin64\tmp\cc7JEtnh.s 			page 8


 249:Src/LTC6811.c **** 	double dummy[4];
 250:Src/LTC6811.c **** 	double conversion[4];
 251:Src/LTC6811.c **** 	
 252:Src/LTC6811.c **** 	temp = (uint16_t *)malloc(4*sizeof(uint16_t));
 253:Src/LTC6811.c **** 	
 254:Src/LTC6811.c **** 	sendAddressCommand(StartCellTempVoltageADCConversionAll, address);
 255:Src/LTC6811.c **** 	
 256:Src/LTC6811.c **** 	HAL_Delay(15); // conversion time is 12.8ms at 422Hz, so wait 15ms
 257:Src/LTC6811.c **** 	
 258:Src/LTC6811.c **** 	PEC_check = readRegister(ReadAuxiliaryGroupA, address, temp);
 259:Src/LTC6811.c **** 	//dataValid = dataValid & PEC_check;
 260:Src/LTC6811.c **** 	PEC_check = readRegister(ReadAuxiliaryGroupB, address, temp);
 261:Src/LTC6811.c **** 	dataValid = dataValid & PEC_check;
 262:Src/LTC6811.c **** 	PEC_check = readRegister(ReadAuxiliaryGroupA, address, temp);
 263:Src/LTC6811.c **** 	dataValid = dataValid & PEC_check;
 264:Src/LTC6811.c **** 	
 265:Src/LTC6811.c **** 	for (uint8_t i = 0; i < 4; i++) {
 266:Src/LTC6811.c **** 		if ((temp[i] > 24400) || (temp[i] < 13000)) {
 267:Src/LTC6811.c **** 			dcFault[i] = true;
 268:Src/LTC6811.c **** 			cellTemp[i] = 0x0000;
 269:Src/LTC6811.c **** 		}
 270:Src/LTC6811.c **** 		else
 271:Src/LTC6811.c **** 			dcFault[i] = false;
 272:Src/LTC6811.c **** 		
 273:Src/LTC6811.c **** 		if ((temp[i] >= 13000) && (temp[i] < 15100)) {
 274:Src/LTC6811.c **** 			tempFault[i] = true;
 275:Src/LTC6811.c **** 			cellTemp[i] = 0xFFFF;
 276:Src/LTC6811.c **** 		}
 277:Src/LTC6811.c **** 		else
 278:Src/LTC6811.c **** 			tempFault[i] = false;
 279:Src/LTC6811.c **** 		
 280:Src/LTC6811.c **** 		if ((temp[i] >= 15100) && (temp[i] <= 24400)) {
 281:Src/LTC6811.c **** 			dummy[i] = (double) temp[i] / 10000; // convert from ADC value to voltage
 282:Src/LTC6811.c **** 			// convert from voltage to temperature
 283:Src/LTC6811.c **** 			conversion[i] = 37735 - 113923 * dummy[i] + 142663 * pow(dummy[i], 2) - 94465 * pow(dummy[i], 3)
 284:Src/LTC6811.c **** 			conversion[i] = 500 * (conversion[i] + 20); // map value to larger range
 285:Src/LTC6811.c **** 			cellTemp[i] = (uint16_t) conversion[i];
 286:Src/LTC6811.c **** 		}
 287:Src/LTC6811.c **** 	}
 288:Src/LTC6811.c **** 	
 289:Src/LTC6811.c **** 	free(temp);
 290:Src/LTC6811.c **** 	
 291:Src/LTC6811.c **** 	return (dataValid);
 292:Src/LTC6811.c **** 	
 293:Src/LTC6811.c **** };
 294:Src/LTC6811.c **** 
 295:Src/LTC6811.c **** bool readAllCellTemps(BMSconfigStructTypedef cfg, uint8_t bmsData[96][6]) {
 296:Src/LTC6811.c **** 
 297:Src/LTC6811.c **** 	uint16_t boardTemp[cfg.numOfTempPerIC];
 298:Src/LTC6811.c **** 	bool boardDCFault[cfg.numOfTempPerIC];
 299:Src/LTC6811.c **** 	bool boardTempFault[cfg.numOfTempPerIC];
 300:Src/LTC6811.c **** 	bool PEC_check[cfg.numOfICs];
 301:Src/LTC6811.c **** 	bool dataValid = true;
 302:Src/LTC6811.c **** 
 303:Src/LTC6811.c **** 	for (uint8_t board = 0; board < cfg.numOfICs; board++) {
 304:Src/LTC6811.c **** 
 305:Src/LTC6811.c **** 		//read temperature, check for OT and temp DC
ARM GAS  C:\cygwin64\tmp\cc7JEtnh.s 			page 9


 306:Src/LTC6811.c **** 		PEC_check[board] = readCellTemp(cfg.address[board], boardTemp, boardDCFault, boardTempFault);
 307:Src/LTC6811.c **** 
 308:Src/LTC6811.c **** 		//store OT and temp DC bits in status byte
 309:Src/LTC6811.c **** 		for (uint8_t cell = 0; cell < cfg.numOfCellsPerIC; cell++) {
 310:Src/LTC6811.c **** 			bmsData[(board * cfg.numOfCellsPerIC) + cell][1] &= (PEC_check[board] << 1);
 311:Src/LTC6811.c **** 			bmsData[(board * cfg.numOfCellsPerIC) + cell][1] |= (boardTempFault[cell / 2] << 4);
 312:Src/LTC6811.c **** 			bmsData[(board * cfg.numOfCellsPerIC) + cell][1] |= (boardDCFault[cell / 2] >> 3);
 313:Src/LTC6811.c **** 		}
 314:Src/LTC6811.c **** 
 315:Src/LTC6811.c **** 		//store cell temperature in bmsData
 316:Src/LTC6811.c **** 		bmsData[(board * cfg.numOfCellsPerIC) + 0][4] = (uint8_t) ((boardTemp[0] >> 8) & 0xFF); //temp1 H
 317:Src/LTC6811.c **** 		bmsData[(board * cfg.numOfCellsPerIC) + 0][5] = (uint8_t) (boardTemp[0] & 0xFF); //temp1 L
 318:Src/LTC6811.c **** 		bmsData[(board * cfg.numOfCellsPerIC) + 1][4] = (uint8_t) ((boardTemp[0] >> 8) & 0xFF); //temp1 H
 319:Src/LTC6811.c **** 		bmsData[(board * cfg.numOfCellsPerIC) + 1][5] = (uint8_t) (boardTemp[0] & 0xFF); //temp1 L
 320:Src/LTC6811.c **** 		bmsData[(board * cfg.numOfCellsPerIC) + 2][4] = (uint8_t) ((boardTemp[1] >> 8) & 0xFF); //temp2 H
 321:Src/LTC6811.c **** 		bmsData[(board * cfg.numOfCellsPerIC) + 2][5] = (uint8_t) (boardTemp[1] & 0xFF); //temp2 L
 322:Src/LTC6811.c **** 		bmsData[(board * cfg.numOfCellsPerIC) + 3][4] = (uint8_t) ((boardTemp[1] >> 8) & 0xFF); //temp2 H
 323:Src/LTC6811.c **** 		bmsData[(board * cfg.numOfCellsPerIC) + 3][5] = (uint8_t) (boardTemp[1] & 0xFF); //temp2 L
 324:Src/LTC6811.c **** 		bmsData[(board * cfg.numOfCellsPerIC) + 4][4] = (uint8_t) ((boardTemp[2] >> 8) & 0xFF); //temp3 H
 325:Src/LTC6811.c **** 		bmsData[(board * cfg.numOfCellsPerIC) + 4][5] = (uint8_t) (boardTemp[2] & 0xFF); //temp3 L
 326:Src/LTC6811.c **** 		bmsData[(board * cfg.numOfCellsPerIC) + 5][4] = (uint8_t) ((boardTemp[2] >> 8) & 0xFF); //temp3 H
 327:Src/LTC6811.c **** 		bmsData[(board * cfg.numOfCellsPerIC) + 5][5] = (uint8_t) (boardTemp[2] & 0xFF); //temp3 L
 328:Src/LTC6811.c **** 		bmsData[(board * cfg.numOfCellsPerIC) + 6][4] = (uint8_t) ((boardTemp[3] >> 8) & 0xFF); //temp4 H
 329:Src/LTC6811.c **** 		bmsData[(board * cfg.numOfCellsPerIC) + 6][5] = (uint8_t) (boardTemp[3] & 0xFF); //temp4 L
 330:Src/LTC6811.c **** 		bmsData[(board * cfg.numOfCellsPerIC) + 7][4] = (uint8_t) ((boardTemp[3] >> 8) & 0xFF); //temp4 H
 331:Src/LTC6811.c **** 		bmsData[(board * cfg.numOfCellsPerIC) + 7][5] = (uint8_t) (boardTemp[3] & 0xFF); //temp4 L
 332:Src/LTC6811.c **** 	}
 333:Src/LTC6811.c **** 	
 334:Src/LTC6811.c **** 	for (uint8_t board = 0; board < cfg.numOfICs; board++) {
 335:Src/LTC6811.c **** 		if (PEC_check[board] == 0)
 336:Src/LTC6811.c **** 			dataValid = false;
 337:Src/LTC6811.c **** 	}
 338:Src/LTC6811.c **** 
 339:Src/LTC6811.c **** 	return dataValid;
 340:Src/LTC6811.c **** }
 341:Src/LTC6811.c **** 
 342:Src/LTC6811.c **** bool readConfig(uint8_t address, uint8_t cfg[8]) {
 343:Src/LTC6811.c **** 	
 344:Src/LTC6811.c **** 	uint16_t *config;
 345:Src/LTC6811.c **** 	bool dataValid = false;
 346:Src/LTC6811.c **** 	
 347:Src/LTC6811.c **** 	config = (uint16_t *)malloc(4*sizeof(uint16_t));
 348:Src/LTC6811.c **** 	
 349:Src/LTC6811.c **** 	dataValid = readRegister(ReadConfigurationRegisterGroup, address, config);
 350:Src/LTC6811.c **** 	
 351:Src/LTC6811.c **** 	cfg[0] = (uint8_t) ((config[0] >> 8) & 0xFF);
 352:Src/LTC6811.c **** 	cfg[1] = (uint8_t) (config[0] & 0xFF);
 353:Src/LTC6811.c **** 	cfg[2] = (uint8_t) ((config[1] >> 8) & 0xFF);
 354:Src/LTC6811.c **** 	cfg[3] = (uint8_t) (config[1] & 0xFF);
 355:Src/LTC6811.c **** 	cfg[4] = (uint8_t) ((config[2] >> 8) & 0xFF);
 356:Src/LTC6811.c **** 	cfg[5] = (uint8_t) (config[2] & 0xFF);
 357:Src/LTC6811.c **** 	cfg[6] = (uint8_t) ((config[3] >> 8) & 0xFF);
 358:Src/LTC6811.c **** 	cfg[7] = (uint8_t) (config[3] & 0xFF);
 359:Src/LTC6811.c **** 	
 360:Src/LTC6811.c **** 	return dataValid;
 361:Src/LTC6811.c **** }
 362:Src/LTC6811.c **** 
ARM GAS  C:\cygwin64\tmp\cc7JEtnh.s 			page 10


 363:Src/LTC6811.c **** /*bool checkCellConnection(uint8_t address, uint16_t cellVoltage[12], bool cellConnection[12]) {
 364:Src/LTC6811.c **** 		
 365:Src/LTC6811.c **** 
 366:Src/LTC6811.c **** 	
 367:Src/LTC6811.c **** 	for (uint8_t i = 0; i < 12; i++) {
 368:Src/LTC6811.c **** 		// if voltage fell by > 100mV
 369:Src/LTC6811.c **** 		if ((cellVoltage[i] - ADOWvoltage[i]) > 1000) {
 370:Src/LTC6811.c **** 			cellConnection[i] = 0; // cell is disconnected
 371:Src/LTC6811.c **** 			disconnect = true;
 372:Src/LTC6811.c **** 		}
 373:Src/LTC6811.c **** 		else {
 374:Src/LTC6811.c **** 			cellConnection[i] = 1;
 375:Src/LTC6811.c **** 		}
 376:Src/LTC6811.c **** 	}
 377:Src/LTC6811.c **** 	return disconnect;
 378:Src/LTC6811.c **** }*/
 379:Src/LTC6811.c **** 
 380:Src/LTC6811.c **** bool checkAllCellConnections(BMSconfigStructTypedef cfg, uint8_t bmsData[96][6]) {
 381:Src/LTC6811.c **** 	
 382:Src/LTC6811.c **** 	uint16_t ADOWvoltage[cfg.numOfCellInputs];
 383:Src/LTC6811.c **** 	uint16_t cellVoltage;
 384:Src/LTC6811.c **** 	bool disconnect = false;
 385:Src/LTC6811.c **** 
 386:Src/LTC6811.c **** 	//at least 2
 387:Src/LTC6811.c **** 	sendBroadcastCommand(StartOpenWireConversionPulldown);
 388:Src/LTC6811.c **** 	sendBroadcastCommand(StartOpenWireConversionPulldown);
 389:Src/LTC6811.c **** 	sendBroadcastCommand(StartOpenWireConversionPulldown);
 390:Src/LTC6811.c **** 	sendBroadcastCommand(StartOpenWireConversionPulldown);
 391:Src/LTC6811.c **** 	sendBroadcastCommand(StartOpenWireConversionPulldown);
 392:Src/LTC6811.c **** 
 393:Src/LTC6811.c **** 	HAL_Delay(15);
 394:Src/LTC6811.c **** 
 395:Src/LTC6811.c **** 	for (uint8_t board = 0; board < cfg.numOfICs; board++) {
 396:Src/LTC6811.c **** 
 397:Src/LTC6811.c **** 		readCellVoltage(cfg.address[board], ADOWvoltage);
 398:Src/LTC6811.c **** 
 399:Src/LTC6811.c **** 		for (uint8_t cell = 0; cell < cfg.numOfCellsPerIC; cell++) {
 400:Src/LTC6811.c **** 
 401:Src/LTC6811.c **** 			cellVoltage = 0;
 402:Src/LTC6811.c **** 			cellVoltage = (uint16_t) (bmsData[(board * cfg.numOfCellsPerIC) + cell][2]);
 403:Src/LTC6811.c **** 			cellVoltage = cellVoltage << 8;
 404:Src/LTC6811.c **** 			cellVoltage += (uint16_t) (bmsData[(board * cfg.numOfCellsPerIC) + cell][3]);
 405:Src/LTC6811.c **** 
 406:Src/LTC6811.c **** 			if ((cellVoltage - ADOWvoltage[cell]) > 1000)
 407:Src/LTC6811.c **** 				bmsData[(board * cfg.numOfCellsPerIC) + cell][1] &= 0xFE;
 408:Src/LTC6811.c **** 			else
 409:Src/LTC6811.c **** 				bmsData[(board * cfg.numOfCellsPerIC) + cell][1] |= 0x01;
 410:Src/LTC6811.c **** 		}
 411:Src/LTC6811.c **** 	}
 412:Src/LTC6811.c **** 
 413:Src/LTC6811.c **** 	return 0;
 414:Src/LTC6811.c **** }
 415:Src/LTC6811.c **** 
 416:Src/LTC6811.c **** bool dischargeCellGroups(BMSconfigStructTypedef config, bool cellDischarge[12][8]) {
 417:Src/LTC6811.c **** 	
 418:Src/LTC6811.c **** 	BMSconfigStructTypedef *cfg;
 419:Src/LTC6811.c **** 
ARM GAS  C:\cygwin64\tmp\cc7JEtnh.s 			page 11


 420:Src/LTC6811.c **** 	cfg = &config;
 421:Src/LTC6811.c **** 
 422:Src/LTC6811.c **** 	for (uint8_t i = 0; i < config.numOfICs; i++) {
 423:Src/LTC6811.c **** 
 424:Src/LTC6811.c **** 		cfg->DischargeCell1 = cellDischarge[i][0];
 425:Src/LTC6811.c **** 		cfg->DischargeCell2 = cellDischarge[i][1];
 426:Src/LTC6811.c **** 		cfg->DischargeCell3 = cellDischarge[i][2];
 427:Src/LTC6811.c **** 		cfg->DischargeCell4 = cellDischarge[i][3];
 428:Src/LTC6811.c **** 		cfg->DischargeCell7 = cellDischarge[i][4];
 429:Src/LTC6811.c **** 		cfg->DischargeCell8 = cellDischarge[i][5];
 430:Src/LTC6811.c **** 		cfg->DischargeCell9 = cellDischarge[i][6];
 431:Src/LTC6811.c **** 		cfg->DischargeCell10 = cellDischarge[i][7];
 432:Src/LTC6811.c **** 
 433:Src/LTC6811.c **** 		writeConfigAddress(config, config.address[i]);
 434:Src/LTC6811.c **** 
 435:Src/LTC6811.c **** 	}
 436:Src/LTC6811.c **** 
 437:Src/LTC6811.c **** 	cfg->DischargeCell1 = 0;
 438:Src/LTC6811.c **** 	cfg->DischargeCell2 = 0;
 439:Src/LTC6811.c **** 	cfg->DischargeCell3 = 0;
 440:Src/LTC6811.c **** 	cfg->DischargeCell4 = 0;
 441:Src/LTC6811.c **** 	cfg->DischargeCell7 = 0;
 442:Src/LTC6811.c **** 	cfg->DischargeCell8 = 0;
 443:Src/LTC6811.c **** 	cfg->DischargeCell9 = 0;
 444:Src/LTC6811.c **** 	cfg->DischargeCell10 = 0;
 445:Src/LTC6811.c **** 
 446:Src/LTC6811.c **** 	return 0;
 447:Src/LTC6811.c **** 	
 448:Src/LTC6811.c **** }
 449:Src/LTC6811.c **** 
 450:Src/LTC6811.c **** /*bool dischargeCell(BMSconfigStructTypedef config, bool cellDischarge[8]) {
 451:Src/LTC6811.c **** 	
 452:Src/LTC6811.c **** 	BMSconfigStructTypedef *cfg;
 453:Src/LTC6811.c **** 	cfg = &config;
 454:Src/LTC6811.c **** 	
 455:Src/LTC6811.c **** 	cfg->DischargeCell1 = cellDischarge[0];
 456:Src/LTC6811.c **** 	cfg->DischargeCell2 = cellDischarge[1];
 457:Src/LTC6811.c **** 	cfg->DischargeCell3 = cellDischarge[2];
 458:Src/LTC6811.c **** 	cfg->DischargeCell4 = cellDischarge[3];
 459:Src/LTC6811.c **** 	cfg->DischargeCell7 = cellDischarge[4];
 460:Src/LTC6811.c **** 	cfg->DischargeCell8 = cellDischarge[5];
 461:Src/LTC6811.c **** 	cfg->DischargeCell9 = cellDischarge[6];
 462:Src/LTC6811.c **** 	cfg->DischargeCell10 = cellDischarge[7];
 463:Src/LTC6811.c **** 	
 464:Src/LTC6811.c **** 	writeConfig(config, 0, 1);
 465:Src/LTC6811.c **** 	
 466:Src/LTC6811.c **** 	return 0;
 467:Src/LTC6811.c **** 	
 468:Src/LTC6811.c **** }*/
 469:Src/LTC6811.c **** 
 470:Src/LTC6811.c **** bool readRegister(CommandCodeTypedef command, uint8_t address, uint16_t *data) {
 471:Src/LTC6811.c **** 	
 472:Src/LTC6811.c **** 	uint8_t cmd[12];
 473:Src/LTC6811.c **** 	uint8_t rx_data[12];
 474:Src/LTC6811.c **** 	uint16_t PEC_return;
 475:Src/LTC6811.c **** 	uint8_t *PEC_send;
 476:Src/LTC6811.c **** 	bool dataValid = true;
ARM GAS  C:\cygwin64\tmp\cc7JEtnh.s 			page 12


 477:Src/LTC6811.c **** 
 478:Src/LTC6811.c **** 	PEC_send = (uint8_t *)malloc(6*sizeof(uint8_t));
 479:Src/LTC6811.c **** 	
 480:Src/LTC6811.c **** 	PEC_send[0] = (uint8_t) (0x80 | ((address << 3) & 0x78) | ((command >> 8) & 0x07));
 481:Src/LTC6811.c **** 	PEC_send[1] = (uint8_t) (command & 0xFF);
 482:Src/LTC6811.c **** 
 483:Src/LTC6811.c **** 	cmd[0] = PEC_send[0];
 484:Src/LTC6811.c **** 	cmd[1] = PEC_send[1];
 485:Src/LTC6811.c **** 	
 486:Src/LTC6811.c **** 	PEC_return = calculatePEC(2, PEC_send);
 487:Src/LTC6811.c **** 	
 488:Src/LTC6811.c **** 	cmd[2] = (PEC_return >> 8) & 0xFF;
 489:Src/LTC6811.c **** 	cmd[3] = PEC_return & 0xFF;
 490:Src/LTC6811.c **** 	
 491:Src/LTC6811.c **** 	cmd[4] = 0;
 492:Src/LTC6811.c **** 	cmd[5] = 0;
 493:Src/LTC6811.c **** 	cmd[6] = 0;
 494:Src/LTC6811.c **** 	cmd[7] = 0;
 495:Src/LTC6811.c **** 	cmd[8] = 0;
 496:Src/LTC6811.c **** 	cmd[9] = 0;
 497:Src/LTC6811.c **** 	cmd[10] = 0;
 498:Src/LTC6811.c **** 	cmd[11] = 0;
 499:Src/LTC6811.c **** 	
 500:Src/LTC6811.c **** 	SPIWriteRead(cmd, rx_data, sizeof(cmd)); // send 4 command bytes, receive 6 cell voltage bytes (4-
 501:Src/LTC6811.c **** 	
 502:Src/LTC6811.c **** 	// calculate PEC based on cell voltage data received
 503:Src/LTC6811.c **** 	PEC_send[0] = rx_data[4]; // cell 1 voltage low bytes
 504:Src/LTC6811.c **** 	PEC_send[1] = rx_data[5]; // cell 1 voltage high bytes
 505:Src/LTC6811.c **** 	PEC_send[2] = rx_data[6]; // cell 2 voltage low bytes
 506:Src/LTC6811.c **** 	PEC_send[3] = rx_data[7]; // cell 2 voltage high bytes
 507:Src/LTC6811.c **** 	PEC_send[4] = rx_data[8]; // cell 3 voltage low bytes
 508:Src/LTC6811.c **** 	PEC_send[5] = rx_data[9]; // cell 3 voltage high bytes
 509:Src/LTC6811.c **** 	
 510:Src/LTC6811.c **** 	PEC_return = calculatePEC(6, PEC_send);
 511:Src/LTC6811.c **** 	
 512:Src/LTC6811.c **** 	// check if received PEC matches calculated PEC
 513:Src/LTC6811.c **** 	if (PEC_return != (((rx_data[10] << 8) & 0xFF00) | (rx_data[11] & 0x00FF))) {
 514:Src/LTC6811.c **** 		dataValid = false;
 515:Src/LTC6811.c **** 	}
 516:Src/LTC6811.c **** 	
 517:Src/LTC6811.c **** 	if (command == ReadCellVoltageRegisterGroup1to3) {
 518:Src/LTC6811.c **** 		
 519:Src/LTC6811.c **** 		data[0] = (uint16_t) ((rx_data[5] << 8) & 0xFF00) | (rx_data[4] & 0x00FF);
 520:Src/LTC6811.c **** 		data[1] = (uint16_t) ((rx_data[7] << 8) & 0xFF00) | (rx_data[6] & 0x00FF);
 521:Src/LTC6811.c **** 		data[2] = (uint16_t) ((rx_data[9] << 8) & 0xFF00) | (rx_data[8] & 0x00FF);
 522:Src/LTC6811.c **** 		//data[3] = (uint16_t) ((rx_data[10] << 8) & 0xFF00) | (rx_data[11] & 0x00FF);
 523:Src/LTC6811.c **** 		//data[4] = PEC_return;
 524:Src/LTC6811.c **** 	}
 525:Src/LTC6811.c **** 
 526:Src/LTC6811.c **** 	if (command == ReadCellVoltageRegisterGroup4to6) {
 527:Src/LTC6811.c **** 		
 528:Src/LTC6811.c **** 		data[3] = (uint16_t) ((rx_data[5] << 8) & 0xFF00) | (rx_data[4] & 0x00FF);
 529:Src/LTC6811.c **** 		data[4] = (uint16_t) ((rx_data[7] << 8) & 0xFF00) | (rx_data[6] & 0x00FF);
 530:Src/LTC6811.c **** 		data[5] = (uint16_t) ((rx_data[9] << 8) & 0xFF00) | (rx_data[8] & 0x00FF);
 531:Src/LTC6811.c **** 	}
 532:Src/LTC6811.c **** 	
 533:Src/LTC6811.c **** 	if (command == ReadCellVoltageRegisterGroup7to9) {
ARM GAS  C:\cygwin64\tmp\cc7JEtnh.s 			page 13


 534:Src/LTC6811.c **** 		
 535:Src/LTC6811.c **** 		data[6] = (uint16_t) ((rx_data[5] << 8) & 0xFF00) | (rx_data[4] & 0x00FF);
 536:Src/LTC6811.c **** 		data[7] = (uint16_t) ((rx_data[7] << 8) & 0xFF00) | (rx_data[6] & 0x00FF);
 537:Src/LTC6811.c **** 		data[8] = (uint16_t) ((rx_data[9] << 8) & 0xFF00) | (rx_data[8] & 0x00FF);
 538:Src/LTC6811.c **** 	}
 539:Src/LTC6811.c **** 	
 540:Src/LTC6811.c **** 	if (command == ReadCellVoltageRegisterGroup10to12) {
 541:Src/LTC6811.c **** 		
 542:Src/LTC6811.c **** 		data[9] = (uint16_t) ((rx_data[5] << 8) & 0xFF00) | (rx_data[4] & 0x00FF);
 543:Src/LTC6811.c **** 		data[10] = (uint16_t) ((rx_data[7] << 8) & 0xFF00) | (rx_data[6] & 0x00FF);
 544:Src/LTC6811.c **** 		data[11] = (uint16_t) ((rx_data[9] << 8) & 0xFF00) | (rx_data[8] & 0x00FF);
 545:Src/LTC6811.c **** 	}
 546:Src/LTC6811.c **** 	
 547:Src/LTC6811.c **** 	if (command == ReadAuxiliaryGroupA) {
 548:Src/LTC6811.c **** 		
 549:Src/LTC6811.c **** 		data[0] = (uint16_t) ((rx_data[5] << 8) & 0xFF00) | (rx_data[4] & 0x00FF);
 550:Src/LTC6811.c **** 		data[1] = (uint16_t) ((rx_data[7] << 8) & 0xFF00) | (rx_data[6] & 0x00FF);
 551:Src/LTC6811.c **** 		data[2] = (uint16_t) ((rx_data[9] << 8) & 0xFF00) | (rx_data[8] & 0x00FF);
 552:Src/LTC6811.c **** 	}
 553:Src/LTC6811.c **** 	
 554:Src/LTC6811.c **** 	if (command == ReadAuxiliaryGroupB) {
 555:Src/LTC6811.c **** 		data[3] = (uint16_t) ((rx_data[5] << 8) & 0xFF00) | (rx_data[4] & 0x00FF);
 556:Src/LTC6811.c **** 	}
 557:Src/LTC6811.c **** 	
 558:Src/LTC6811.c **** 	if (command == ReadConfigurationRegisterGroup) {
 559:Src/LTC6811.c **** 		data[0] = (uint16_t) ((rx_data[4] << 8) & 0xFF00) | (rx_data[5] & 0x00FF);
 560:Src/LTC6811.c **** 		data[1] = (uint16_t) ((rx_data[6] << 8) & 0xFF00) | (rx_data[7] & 0x00FF);
 561:Src/LTC6811.c **** 		data[2] = (uint16_t) ((rx_data[8] << 8) & 0xFF00) | (rx_data[9] & 0x00FF);
 562:Src/LTC6811.c **** 		data[3] = (uint16_t) ((rx_data[10] << 8) & 0xFF00) | (rx_data[11] & 0x00FF);
 563:Src/LTC6811.c **** 	}
 564:Src/LTC6811.c **** 	
 565:Src/LTC6811.c **** 	return(dataValid);
 566:Src/LTC6811.c **** 	
 567:Src/LTC6811.c **** };
 568:Src/LTC6811.c **** 
 569:Src/LTC6811.c **** void sendBroadcastCommand(CommandCodeTypedef command) {
 570:Src/LTC6811.c **** 	
 571:Src/LTC6811.c **** 	uint8_t cmd[4];
 572:Src/LTC6811.c **** 	uint16_t PEC_return;
 573:Src/LTC6811.c **** 	
 574:Src/LTC6811.c **** 	cmd[0] = (uint8_t) ((command >> 8) & 0x0F);
 575:Src/LTC6811.c **** 	cmd[1] = (uint8_t) (command & 0xFF);
 576:Src/LTC6811.c **** 	
 577:Src/LTC6811.c **** 	PEC_return = calculatePEC(2, (uint8_t *)&(cmd));
 578:Src/LTC6811.c **** 	
 579:Src/LTC6811.c **** 	cmd[2] = (PEC_return >> 8) & 0xFF;
 580:Src/LTC6811.c **** 	cmd[3] = PEC_return & 0xFF;
 581:Src/LTC6811.c **** 	
 582:Src/LTC6811.c **** 	SPIWrite(cmd, 4);
 583:Src/LTC6811.c **** };
 584:Src/LTC6811.c **** 
 585:Src/LTC6811.c **** void sendAddressCommand(CommandCodeTypedef command, uint8_t address) {
 586:Src/LTC6811.c **** 	
 587:Src/LTC6811.c **** 	uint8_t cmd[4];
 588:Src/LTC6811.c **** 	uint16_t PEC_return;
 589:Src/LTC6811.c **** 	uint8_t *msbytes;
 590:Src/LTC6811.c **** 	
ARM GAS  C:\cygwin64\tmp\cc7JEtnh.s 			page 14


 591:Src/LTC6811.c **** 	msbytes = (uint8_t *)malloc(2*sizeof(uint8_t));
 592:Src/LTC6811.c **** 	
 593:Src/LTC6811.c **** 	msbytes[0] = (uint8_t) (0x80 | ((address << 3) & 0x78) | ((command >> 8) & 0x07));
 594:Src/LTC6811.c **** 	msbytes[1] = (uint8_t) (command & 0xFF);
 595:Src/LTC6811.c **** 
 596:Src/LTC6811.c **** 	cmd[0] = msbytes[0];
 597:Src/LTC6811.c **** 	cmd[1] = msbytes[1];
 598:Src/LTC6811.c **** 	
 599:Src/LTC6811.c **** 	PEC_return = calculatePEC(2, msbytes);
 600:Src/LTC6811.c **** 	
 601:Src/LTC6811.c **** 	cmd[2] = (PEC_return >> 8) & 0xFF;
 602:Src/LTC6811.c **** 	cmd[3] = PEC_return & 0xFF;
 603:Src/LTC6811.c **** 	
 604:Src/LTC6811.c **** 	SPIWrite(cmd, 4);
 605:Src/LTC6811.c **** 	
 606:Src/LTC6811.c **** 	free(msbytes);
 607:Src/LTC6811.c **** };
 608:Src/LTC6811.c **** 
 609:Src/LTC6811.c **** uint16_t calculatePEC(uint8_t len, uint8_t *data) {
 134              		.loc 1 609 51 is_stmt 1 view -0
 135              		.cfi_startproc
 136              		@ args = 0, pretend = 0, frame = 0
 137              		@ frame_needed = 0, uses_anonymous_args = 0
 138              		@ link register save eliminated.
 139              		.loc 1 609 51 is_stmt 0 view .LVU35
 140 0000 30B4     		push	{r4, r5}
 141              	.LCFI0:
 142              		.cfi_def_cfa_offset 8
 143              		.cfi_offset 4, -8
 144              		.cfi_offset 5, -4
 610:Src/LTC6811.c **** 	
 611:Src/LTC6811.c **** 	uint16_t remainder, address;
 145              		.loc 1 611 2 is_stmt 1 view .LVU36
 612:Src/LTC6811.c **** 	remainder = 16; //PEC seed
 146              		.loc 1 612 2 view .LVU37
 147              	.LVL13:
 613:Src/LTC6811.c **** 	
 614:Src/LTC6811.c **** 	for (int i = 0; i < len; i++) {
 148              		.loc 1 614 2 view .LVU38
 149              	.LBB5:
 150              		.loc 1 614 7 view .LVU39
 151              		.loc 1 614 11 is_stmt 0 view .LVU40
 152 0002 0024     		movs	r4, #0
 153              	.LBE5:
 612:Src/LTC6811.c **** 	remainder = 16; //PEC seed
 154              		.loc 1 612 12 view .LVU41
 155 0004 1022     		movs	r2, #16
 156              	.LVL14:
 157              	.L13:
 158              	.LBB6:
 159              		.loc 1 614 2 discriminator 1 view .LVU42
 160 0006 A042     		cmp	r0, r4
 161 0008 0BDD     		ble	.L16
 615:Src/LTC6811.c **** 		address = ((remainder >> 7) ^ data[i]) & 0xFF; //calculate PEC table address
 162              		.loc 1 615 3 is_stmt 1 discriminator 3 view .LVU43
 163              		.loc 1 615 37 is_stmt 0 discriminator 3 view .LVU44
 164 000a 0B5D     		ldrb	r3, [r1, r4]	@ zero_extendqisi2
ARM GAS  C:\cygwin64\tmp\cc7JEtnh.s 			page 15


 165              		.loc 1 615 31 discriminator 3 view .LVU45
 166 000c 83EAD213 		eor	r3, r3, r2, lsr #7
 167              		.loc 1 615 11 discriminator 3 view .LVU46
 168 0010 DBB2     		uxtb	r3, r3
 169              	.LVL15:
 616:Src/LTC6811.c **** 		remainder = (remainder << 8) ^ pec15Table[address];
 170              		.loc 1 616 3 is_stmt 1 discriminator 3 view .LVU47
 171              		.loc 1 616 44 is_stmt 0 discriminator 3 view .LVU48
 172 0012 064D     		ldr	r5, .L17
 173 0014 35F91330 		ldrsh	r3, [r5, r3, lsl #1]
 174              	.LVL16:
 175              		.loc 1 616 32 discriminator 3 view .LVU49
 176 0018 83EA0222 		eor	r2, r3, r2, lsl #8
 177              	.LVL17:
 178              		.loc 1 616 13 discriminator 3 view .LVU50
 179 001c 92B2     		uxth	r2, r2
 180              	.LVL18:
 614:Src/LTC6811.c **** 		address = ((remainder >> 7) ^ data[i]) & 0xFF; //calculate PEC table address
 181              		.loc 1 614 28 discriminator 3 view .LVU51
 182 001e 0134     		adds	r4, r4, #1
 183              	.LVL19:
 614:Src/LTC6811.c **** 		address = ((remainder >> 7) ^ data[i]) & 0xFF; //calculate PEC table address
 184              		.loc 1 614 28 discriminator 3 view .LVU52
 185 0020 F1E7     		b	.L13
 186              	.L16:
 614:Src/LTC6811.c **** 		address = ((remainder >> 7) ^ data[i]) & 0xFF; //calculate PEC table address
 187              		.loc 1 614 28 discriminator 3 view .LVU53
 188              	.LBE6:
 617:Src/LTC6811.c **** 	}
 618:Src/LTC6811.c **** 	
 619:Src/LTC6811.c **** 	return (remainder * 2); //The CRC15 has a 0 in the LSB so the final value must be multiplied by 2
 189              		.loc 1 619 2 is_stmt 1 view .LVU54
 190              		.loc 1 619 20 is_stmt 0 view .LVU55
 191 0022 5000     		lsls	r0, r2, #1
 192              	.LVL20:
 193              		.loc 1 619 20 view .LVU56
 194 0024 80B2     		uxth	r0, r0
 620:Src/LTC6811.c **** };
 195              		.loc 1 620 1 view .LVU57
 196 0026 30BC     		pop	{r4, r5}
 197              	.LCFI1:
 198              		.cfi_restore 5
 199              		.cfi_restore 4
 200              		.cfi_def_cfa_offset 0
 201              	.LVL21:
 202              		.loc 1 620 1 view .LVU58
 203 0028 7047     		bx	lr
 204              	.L18:
 205 002a 00BF     		.align	2
 206              	.L17:
 207 002c 00000000 		.word	pec15Table
 208              		.cfi_endproc
 209              	.LFE79:
 211              		.section	.text.readRegister,"ax",%progbits
 212              		.align	1
 213              		.global	readRegister
 214              		.syntax unified
ARM GAS  C:\cygwin64\tmp\cc7JEtnh.s 			page 16


 215              		.thumb
 216              		.thumb_func
 217              		.fpu softvfp
 219              	readRegister:
 220              	.LVL22:
 221              	.LFB76:
 470:Src/LTC6811.c **** 	
 222              		.loc 1 470 80 is_stmt 1 view -0
 223              		.cfi_startproc
 224              		@ args = 0, pretend = 0, frame = 24
 225              		@ frame_needed = 0, uses_anonymous_args = 0
 470:Src/LTC6811.c **** 	
 226              		.loc 1 470 80 is_stmt 0 view .LVU60
 227 0000 F0B5     		push	{r4, r5, r6, r7, lr}
 228              	.LCFI2:
 229              		.cfi_def_cfa_offset 20
 230              		.cfi_offset 4, -20
 231              		.cfi_offset 5, -16
 232              		.cfi_offset 6, -12
 233              		.cfi_offset 7, -8
 234              		.cfi_offset 14, -4
 235 0002 87B0     		sub	sp, sp, #28
 236              	.LCFI3:
 237              		.cfi_def_cfa_offset 48
 238 0004 0646     		mov	r6, r0
 239 0006 0C46     		mov	r4, r1
 240 0008 1746     		mov	r7, r2
 472:Src/LTC6811.c **** 	uint8_t rx_data[12];
 241              		.loc 1 472 2 is_stmt 1 view .LVU61
 473:Src/LTC6811.c **** 	uint16_t PEC_return;
 242              		.loc 1 473 2 view .LVU62
 474:Src/LTC6811.c **** 	uint8_t *PEC_send;
 243              		.loc 1 474 2 view .LVU63
 475:Src/LTC6811.c **** 	bool dataValid = true;
 244              		.loc 1 475 2 view .LVU64
 476:Src/LTC6811.c **** 
 245              		.loc 1 476 2 view .LVU65
 246              	.LVL23:
 478:Src/LTC6811.c **** 	
 247              		.loc 1 478 2 view .LVU66
 478:Src/LTC6811.c **** 	
 248              		.loc 1 478 24 is_stmt 0 view .LVU67
 249 000a 0620     		movs	r0, #6
 250              	.LVL24:
 478:Src/LTC6811.c **** 	
 251              		.loc 1 478 24 view .LVU68
 252 000c FFF7FEFF 		bl	malloc
 253              	.LVL25:
 478:Src/LTC6811.c **** 	
 254              		.loc 1 478 24 view .LVU69
 255 0010 0546     		mov	r5, r0
 256              	.LVL26:
 480:Src/LTC6811.c **** 	PEC_send[1] = (uint8_t) (command & 0xFF);
 257              		.loc 1 480 2 is_stmt 1 view .LVU70
 480:Src/LTC6811.c **** 	PEC_send[1] = (uint8_t) (command & 0xFF);
 258              		.loc 1 480 44 is_stmt 0 view .LVU71
 259 0012 E300     		lsls	r3, r4, #3
ARM GAS  C:\cygwin64\tmp\cc7JEtnh.s 			page 17


 480:Src/LTC6811.c **** 	PEC_send[1] = (uint8_t) (command & 0xFF);
 260              		.loc 1 480 50 view .LVU72
 261 0014 03F07803 		and	r3, r3, #120
 480:Src/LTC6811.c **** 	PEC_send[1] = (uint8_t) (command & 0xFF);
 262              		.loc 1 480 32 view .LVU73
 263 0018 63F07F03 		orn	r3, r3, #127
 480:Src/LTC6811.c **** 	PEC_send[1] = (uint8_t) (command & 0xFF);
 264              		.loc 1 480 76 view .LVU74
 265 001c C6F30224 		ubfx	r4, r6, #8, #3
 480:Src/LTC6811.c **** 	PEC_send[1] = (uint8_t) (command & 0xFF);
 266              		.loc 1 480 58 view .LVU75
 267 0020 2343     		orrs	r3, r3, r4
 480:Src/LTC6811.c **** 	PEC_send[1] = (uint8_t) (command & 0xFF);
 268              		.loc 1 480 16 view .LVU76
 269 0022 DBB2     		uxtb	r3, r3
 480:Src/LTC6811.c **** 	PEC_send[1] = (uint8_t) (command & 0xFF);
 270              		.loc 1 480 14 view .LVU77
 271 0024 0370     		strb	r3, [r0]
 481:Src/LTC6811.c **** 
 272              		.loc 1 481 2 is_stmt 1 view .LVU78
 481:Src/LTC6811.c **** 
 273              		.loc 1 481 16 is_stmt 0 view .LVU79
 274 0026 F2B2     		uxtb	r2, r6
 481:Src/LTC6811.c **** 
 275              		.loc 1 481 14 view .LVU80
 276 0028 4270     		strb	r2, [r0, #1]
 483:Src/LTC6811.c **** 	cmd[1] = PEC_send[1];
 277              		.loc 1 483 2 is_stmt 1 view .LVU81
 483:Src/LTC6811.c **** 	cmd[1] = PEC_send[1];
 278              		.loc 1 483 9 is_stmt 0 view .LVU82
 279 002a 8DF80C30 		strb	r3, [sp, #12]
 484:Src/LTC6811.c **** 	
 280              		.loc 1 484 2 is_stmt 1 view .LVU83
 484:Src/LTC6811.c **** 	
 281              		.loc 1 484 9 is_stmt 0 view .LVU84
 282 002e 8DF80D20 		strb	r2, [sp, #13]
 486:Src/LTC6811.c **** 	
 283              		.loc 1 486 2 is_stmt 1 view .LVU85
 486:Src/LTC6811.c **** 	
 284              		.loc 1 486 15 is_stmt 0 view .LVU86
 285 0032 0146     		mov	r1, r0
 286 0034 0220     		movs	r0, #2
 287              	.LVL27:
 486:Src/LTC6811.c **** 	
 288              		.loc 1 486 15 view .LVU87
 289 0036 FFF7FEFF 		bl	calculatePEC
 290              	.LVL28:
 488:Src/LTC6811.c **** 	cmd[3] = PEC_return & 0xFF;
 291              		.loc 1 488 2 is_stmt 1 view .LVU88
 488:Src/LTC6811.c **** 	cmd[3] = PEC_return & 0xFF;
 292              		.loc 1 488 9 is_stmt 0 view .LVU89
 293 003a 030A     		lsrs	r3, r0, #8
 294 003c 8DF80E30 		strb	r3, [sp, #14]
 489:Src/LTC6811.c **** 	
 295              		.loc 1 489 2 is_stmt 1 view .LVU90
 489:Src/LTC6811.c **** 	
 296              		.loc 1 489 9 is_stmt 0 view .LVU91
ARM GAS  C:\cygwin64\tmp\cc7JEtnh.s 			page 18


 297 0040 8DF80F00 		strb	r0, [sp, #15]
 491:Src/LTC6811.c **** 	cmd[5] = 0;
 298              		.loc 1 491 2 is_stmt 1 view .LVU92
 491:Src/LTC6811.c **** 	cmd[5] = 0;
 299              		.loc 1 491 9 is_stmt 0 view .LVU93
 300 0044 0023     		movs	r3, #0
 301 0046 8DF81030 		strb	r3, [sp, #16]
 492:Src/LTC6811.c **** 	cmd[6] = 0;
 302              		.loc 1 492 2 is_stmt 1 view .LVU94
 492:Src/LTC6811.c **** 	cmd[6] = 0;
 303              		.loc 1 492 9 is_stmt 0 view .LVU95
 304 004a 8DF81130 		strb	r3, [sp, #17]
 493:Src/LTC6811.c **** 	cmd[7] = 0;
 305              		.loc 1 493 2 is_stmt 1 view .LVU96
 493:Src/LTC6811.c **** 	cmd[7] = 0;
 306              		.loc 1 493 9 is_stmt 0 view .LVU97
 307 004e 8DF81230 		strb	r3, [sp, #18]
 494:Src/LTC6811.c **** 	cmd[8] = 0;
 308              		.loc 1 494 2 is_stmt 1 view .LVU98
 494:Src/LTC6811.c **** 	cmd[8] = 0;
 309              		.loc 1 494 9 is_stmt 0 view .LVU99
 310 0052 8DF81330 		strb	r3, [sp, #19]
 495:Src/LTC6811.c **** 	cmd[9] = 0;
 311              		.loc 1 495 2 is_stmt 1 view .LVU100
 495:Src/LTC6811.c **** 	cmd[9] = 0;
 312              		.loc 1 495 9 is_stmt 0 view .LVU101
 313 0056 8DF81430 		strb	r3, [sp, #20]
 496:Src/LTC6811.c **** 	cmd[10] = 0;
 314              		.loc 1 496 2 is_stmt 1 view .LVU102
 496:Src/LTC6811.c **** 	cmd[10] = 0;
 315              		.loc 1 496 9 is_stmt 0 view .LVU103
 316 005a 8DF81530 		strb	r3, [sp, #21]
 497:Src/LTC6811.c **** 	cmd[11] = 0;
 317              		.loc 1 497 2 is_stmt 1 view .LVU104
 497:Src/LTC6811.c **** 	cmd[11] = 0;
 318              		.loc 1 497 10 is_stmt 0 view .LVU105
 319 005e 8DF81630 		strb	r3, [sp, #22]
 498:Src/LTC6811.c **** 	
 320              		.loc 1 498 2 is_stmt 1 view .LVU106
 498:Src/LTC6811.c **** 	
 321              		.loc 1 498 10 is_stmt 0 view .LVU107
 322 0062 8DF81730 		strb	r3, [sp, #23]
 500:Src/LTC6811.c **** 	
 323              		.loc 1 500 2 is_stmt 1 view .LVU108
 324 0066 0C22     		movs	r2, #12
 325 0068 6946     		mov	r1, sp
 326 006a 0DEB0200 		add	r0, sp, r2
 327              	.LVL29:
 500:Src/LTC6811.c **** 	
 328              		.loc 1 500 2 is_stmt 0 view .LVU109
 329 006e FFF7FEFF 		bl	SPIWriteRead
 330              	.LVL30:
 503:Src/LTC6811.c **** 	PEC_send[1] = rx_data[5]; // cell 1 voltage high bytes
 331              		.loc 1 503 2 is_stmt 1 view .LVU110
 503:Src/LTC6811.c **** 	PEC_send[1] = rx_data[5]; // cell 1 voltage high bytes
 332              		.loc 1 503 23 is_stmt 0 view .LVU111
 333 0072 9DF80430 		ldrb	r3, [sp, #4]	@ zero_extendqisi2
ARM GAS  C:\cygwin64\tmp\cc7JEtnh.s 			page 19


 503:Src/LTC6811.c **** 	PEC_send[1] = rx_data[5]; // cell 1 voltage high bytes
 334              		.loc 1 503 14 view .LVU112
 335 0076 2B70     		strb	r3, [r5]
 504:Src/LTC6811.c **** 	PEC_send[2] = rx_data[6]; // cell 2 voltage low bytes
 336              		.loc 1 504 2 is_stmt 1 view .LVU113
 504:Src/LTC6811.c **** 	PEC_send[2] = rx_data[6]; // cell 2 voltage low bytes
 337              		.loc 1 504 23 is_stmt 0 view .LVU114
 338 0078 9DF80530 		ldrb	r3, [sp, #5]	@ zero_extendqisi2
 504:Src/LTC6811.c **** 	PEC_send[2] = rx_data[6]; // cell 2 voltage low bytes
 339              		.loc 1 504 14 view .LVU115
 340 007c 6B70     		strb	r3, [r5, #1]
 505:Src/LTC6811.c **** 	PEC_send[3] = rx_data[7]; // cell 2 voltage high bytes
 341              		.loc 1 505 2 is_stmt 1 view .LVU116
 505:Src/LTC6811.c **** 	PEC_send[3] = rx_data[7]; // cell 2 voltage high bytes
 342              		.loc 1 505 23 is_stmt 0 view .LVU117
 343 007e 9DF80630 		ldrb	r3, [sp, #6]	@ zero_extendqisi2
 505:Src/LTC6811.c **** 	PEC_send[3] = rx_data[7]; // cell 2 voltage high bytes
 344              		.loc 1 505 14 view .LVU118
 345 0082 AB70     		strb	r3, [r5, #2]
 506:Src/LTC6811.c **** 	PEC_send[4] = rx_data[8]; // cell 3 voltage low bytes
 346              		.loc 1 506 2 is_stmt 1 view .LVU119
 506:Src/LTC6811.c **** 	PEC_send[4] = rx_data[8]; // cell 3 voltage low bytes
 347              		.loc 1 506 23 is_stmt 0 view .LVU120
 348 0084 9DF80730 		ldrb	r3, [sp, #7]	@ zero_extendqisi2
 506:Src/LTC6811.c **** 	PEC_send[4] = rx_data[8]; // cell 3 voltage low bytes
 349              		.loc 1 506 14 view .LVU121
 350 0088 EB70     		strb	r3, [r5, #3]
 507:Src/LTC6811.c **** 	PEC_send[5] = rx_data[9]; // cell 3 voltage high bytes
 351              		.loc 1 507 2 is_stmt 1 view .LVU122
 507:Src/LTC6811.c **** 	PEC_send[5] = rx_data[9]; // cell 3 voltage high bytes
 352              		.loc 1 507 23 is_stmt 0 view .LVU123
 353 008a 9DF80830 		ldrb	r3, [sp, #8]	@ zero_extendqisi2
 507:Src/LTC6811.c **** 	PEC_send[5] = rx_data[9]; // cell 3 voltage high bytes
 354              		.loc 1 507 14 view .LVU124
 355 008e 2B71     		strb	r3, [r5, #4]
 508:Src/LTC6811.c **** 	
 356              		.loc 1 508 2 is_stmt 1 view .LVU125
 508:Src/LTC6811.c **** 	
 357              		.loc 1 508 23 is_stmt 0 view .LVU126
 358 0090 9DF80930 		ldrb	r3, [sp, #9]	@ zero_extendqisi2
 508:Src/LTC6811.c **** 	
 359              		.loc 1 508 14 view .LVU127
 360 0094 6B71     		strb	r3, [r5, #5]
 510:Src/LTC6811.c **** 	
 361              		.loc 1 510 2 is_stmt 1 view .LVU128
 510:Src/LTC6811.c **** 	
 362              		.loc 1 510 15 is_stmt 0 view .LVU129
 363 0096 2946     		mov	r1, r5
 364 0098 0620     		movs	r0, #6
 365 009a FFF7FEFF 		bl	calculatePEC
 366              	.LVL31:
 513:Src/LTC6811.c **** 		dataValid = false;
 367              		.loc 1 513 2 is_stmt 1 view .LVU130
 513:Src/LTC6811.c **** 		dataValid = false;
 368              		.loc 1 513 30 is_stmt 0 view .LVU131
 369 009e 9DF80A20 		ldrb	r2, [sp, #10]	@ zero_extendqisi2
 513:Src/LTC6811.c **** 		dataValid = false;
ARM GAS  C:\cygwin64\tmp\cc7JEtnh.s 			page 20


 370              		.loc 1 513 61 view .LVU132
 371 00a2 9DF80B30 		ldrb	r3, [sp, #11]	@ zero_extendqisi2
 513:Src/LTC6811.c **** 		dataValid = false;
 372              		.loc 1 513 51 view .LVU133
 373 00a6 43EA0223 		orr	r3, r3, r2, lsl #8
 513:Src/LTC6811.c **** 		dataValid = false;
 374              		.loc 1 513 5 view .LVU134
 375 00aa 9842     		cmp	r0, r3
 376 00ac 12D0     		beq	.L30
 514:Src/LTC6811.c **** 	}
 377              		.loc 1 514 13 view .LVU135
 378 00ae 0020     		movs	r0, #0
 379              	.LVL32:
 380              	.L20:
 517:Src/LTC6811.c **** 		
 381              		.loc 1 517 2 is_stmt 1 view .LVU136
 517:Src/LTC6811.c **** 		
 382              		.loc 1 517 5 is_stmt 0 view .LVU137
 383 00b0 042E     		cmp	r6, #4
 384 00b2 11D0     		beq	.L31
 385              	.L21:
 526:Src/LTC6811.c **** 		
 386              		.loc 1 526 2 is_stmt 1 view .LVU138
 526:Src/LTC6811.c **** 		
 387              		.loc 1 526 5 is_stmt 0 view .LVU139
 388 00b4 062E     		cmp	r6, #6
 389 00b6 28D0     		beq	.L32
 390              	.L22:
 533:Src/LTC6811.c **** 		
 391              		.loc 1 533 2 is_stmt 1 view .LVU140
 533:Src/LTC6811.c **** 		
 392              		.loc 1 533 5 is_stmt 0 view .LVU141
 393 00b8 082E     		cmp	r6, #8
 394 00ba 3FD0     		beq	.L33
 395              	.L23:
 540:Src/LTC6811.c **** 		
 396              		.loc 1 540 2 is_stmt 1 view .LVU142
 540:Src/LTC6811.c **** 		
 397              		.loc 1 540 5 is_stmt 0 view .LVU143
 398 00bc 0A2E     		cmp	r6, #10
 399 00be 56D0     		beq	.L34
 400              	.L24:
 547:Src/LTC6811.c **** 		
 401              		.loc 1 547 2 is_stmt 1 view .LVU144
 547:Src/LTC6811.c **** 		
 402              		.loc 1 547 5 is_stmt 0 view .LVU145
 403 00c0 0C2E     		cmp	r6, #12
 404 00c2 6DD0     		beq	.L35
 405              	.L25:
 554:Src/LTC6811.c **** 		data[3] = (uint16_t) ((rx_data[5] << 8) & 0xFF00) | (rx_data[4] & 0x00FF);
 406              		.loc 1 554 2 is_stmt 1 view .LVU146
 554:Src/LTC6811.c **** 		data[3] = (uint16_t) ((rx_data[5] << 8) & 0xFF00) | (rx_data[4] & 0x00FF);
 407              		.loc 1 554 5 is_stmt 0 view .LVU147
 408 00c4 0E2E     		cmp	r6, #14
 409 00c6 00F08480 		beq	.L36
 410              	.L26:
 558:Src/LTC6811.c **** 		data[0] = (uint16_t) ((rx_data[4] << 8) & 0xFF00) | (rx_data[5] & 0x00FF);
ARM GAS  C:\cygwin64\tmp\cc7JEtnh.s 			page 21


 411              		.loc 1 558 2 is_stmt 1 view .LVU148
 558:Src/LTC6811.c **** 		data[0] = (uint16_t) ((rx_data[4] << 8) & 0xFF00) | (rx_data[5] & 0x00FF);
 412              		.loc 1 558 5 is_stmt 0 view .LVU149
 413 00ca 022E     		cmp	r6, #2
 414 00cc 00F08A80 		beq	.L37
 415              	.L27:
 565:Src/LTC6811.c **** 	
 416              		.loc 1 565 2 is_stmt 1 view .LVU150
 567:Src/LTC6811.c **** 
 417              		.loc 1 567 1 is_stmt 0 view .LVU151
 418 00d0 07B0     		add	sp, sp, #28
 419              	.LCFI4:
 420              		.cfi_remember_state
 421              		.cfi_def_cfa_offset 20
 422              		@ sp needed
 423 00d2 F0BD     		pop	{r4, r5, r6, r7, pc}
 424              	.LVL33:
 425              	.L30:
 426              	.LCFI5:
 427              		.cfi_restore_state
 476:Src/LTC6811.c **** 
 428              		.loc 1 476 7 view .LVU152
 429 00d4 0120     		movs	r0, #1
 430              	.LVL34:
 476:Src/LTC6811.c **** 
 431              		.loc 1 476 7 view .LVU153
 432 00d6 EBE7     		b	.L20
 433              	.LVL35:
 434              	.L31:
 519:Src/LTC6811.c **** 		data[1] = (uint16_t) ((rx_data[7] << 8) & 0xFF00) | (rx_data[6] & 0x00FF);
 435              		.loc 1 519 3 is_stmt 1 view .LVU154
 519:Src/LTC6811.c **** 		data[1] = (uint16_t) ((rx_data[7] << 8) & 0xFF00) | (rx_data[6] & 0x00FF);
 436              		.loc 1 519 33 is_stmt 0 view .LVU155
 437 00d8 9DF80530 		ldrb	r3, [sp, #5]	@ zero_extendqisi2
 519:Src/LTC6811.c **** 		data[1] = (uint16_t) ((rx_data[7] << 8) & 0xFF00) | (rx_data[6] & 0x00FF);
 438              		.loc 1 519 37 view .LVU156
 439 00dc 1B02     		lsls	r3, r3, #8
 519:Src/LTC6811.c **** 		data[1] = (uint16_t) ((rx_data[7] << 8) & 0xFF00) | (rx_data[6] & 0x00FF);
 440              		.loc 1 519 13 view .LVU157
 441 00de 1BB2     		sxth	r3, r3
 519:Src/LTC6811.c **** 		data[1] = (uint16_t) ((rx_data[7] << 8) & 0xFF00) | (rx_data[6] & 0x00FF);
 442              		.loc 1 519 63 view .LVU158
 443 00e0 9DF80420 		ldrb	r2, [sp, #4]	@ zero_extendqisi2
 519:Src/LTC6811.c **** 		data[1] = (uint16_t) ((rx_data[7] << 8) & 0xFF00) | (rx_data[6] & 0x00FF);
 444              		.loc 1 519 53 view .LVU159
 445 00e4 1343     		orrs	r3, r3, r2
 519:Src/LTC6811.c **** 		data[1] = (uint16_t) ((rx_data[7] << 8) & 0xFF00) | (rx_data[6] & 0x00FF);
 446              		.loc 1 519 11 view .LVU160
 447 00e6 3B80     		strh	r3, [r7]	@ movhi
 520:Src/LTC6811.c **** 		data[2] = (uint16_t) ((rx_data[9] << 8) & 0xFF00) | (rx_data[8] & 0x00FF);
 448              		.loc 1 520 3 is_stmt 1 view .LVU161
 520:Src/LTC6811.c **** 		data[2] = (uint16_t) ((rx_data[9] << 8) & 0xFF00) | (rx_data[8] & 0x00FF);
 449              		.loc 1 520 33 is_stmt 0 view .LVU162
 450 00e8 9DF80730 		ldrb	r3, [sp, #7]	@ zero_extendqisi2
 520:Src/LTC6811.c **** 		data[2] = (uint16_t) ((rx_data[9] << 8) & 0xFF00) | (rx_data[8] & 0x00FF);
 451              		.loc 1 520 37 view .LVU163
 452 00ec 1B02     		lsls	r3, r3, #8
ARM GAS  C:\cygwin64\tmp\cc7JEtnh.s 			page 22


 520:Src/LTC6811.c **** 		data[2] = (uint16_t) ((rx_data[9] << 8) & 0xFF00) | (rx_data[8] & 0x00FF);
 453              		.loc 1 520 13 view .LVU164
 454 00ee 1BB2     		sxth	r3, r3
 520:Src/LTC6811.c **** 		data[2] = (uint16_t) ((rx_data[9] << 8) & 0xFF00) | (rx_data[8] & 0x00FF);
 455              		.loc 1 520 63 view .LVU165
 456 00f0 9DF80620 		ldrb	r2, [sp, #6]	@ zero_extendqisi2
 520:Src/LTC6811.c **** 		data[2] = (uint16_t) ((rx_data[9] << 8) & 0xFF00) | (rx_data[8] & 0x00FF);
 457              		.loc 1 520 53 view .LVU166
 458 00f4 1343     		orrs	r3, r3, r2
 520:Src/LTC6811.c **** 		data[2] = (uint16_t) ((rx_data[9] << 8) & 0xFF00) | (rx_data[8] & 0x00FF);
 459              		.loc 1 520 11 view .LVU167
 460 00f6 7B80     		strh	r3, [r7, #2]	@ movhi
 521:Src/LTC6811.c **** 		//data[3] = (uint16_t) ((rx_data[10] << 8) & 0xFF00) | (rx_data[11] & 0x00FF);
 461              		.loc 1 521 3 is_stmt 1 view .LVU168
 521:Src/LTC6811.c **** 		//data[3] = (uint16_t) ((rx_data[10] << 8) & 0xFF00) | (rx_data[11] & 0x00FF);
 462              		.loc 1 521 33 is_stmt 0 view .LVU169
 463 00f8 9DF80930 		ldrb	r3, [sp, #9]	@ zero_extendqisi2
 521:Src/LTC6811.c **** 		//data[3] = (uint16_t) ((rx_data[10] << 8) & 0xFF00) | (rx_data[11] & 0x00FF);
 464              		.loc 1 521 37 view .LVU170
 465 00fc 1B02     		lsls	r3, r3, #8
 521:Src/LTC6811.c **** 		//data[3] = (uint16_t) ((rx_data[10] << 8) & 0xFF00) | (rx_data[11] & 0x00FF);
 466              		.loc 1 521 13 view .LVU171
 467 00fe 1BB2     		sxth	r3, r3
 521:Src/LTC6811.c **** 		//data[3] = (uint16_t) ((rx_data[10] << 8) & 0xFF00) | (rx_data[11] & 0x00FF);
 468              		.loc 1 521 63 view .LVU172
 469 0100 9DF80820 		ldrb	r2, [sp, #8]	@ zero_extendqisi2
 521:Src/LTC6811.c **** 		//data[3] = (uint16_t) ((rx_data[10] << 8) & 0xFF00) | (rx_data[11] & 0x00FF);
 470              		.loc 1 521 53 view .LVU173
 471 0104 1343     		orrs	r3, r3, r2
 521:Src/LTC6811.c **** 		//data[3] = (uint16_t) ((rx_data[10] << 8) & 0xFF00) | (rx_data[11] & 0x00FF);
 472              		.loc 1 521 11 view .LVU174
 473 0106 BB80     		strh	r3, [r7, #4]	@ movhi
 474 0108 D4E7     		b	.L21
 475              	.L32:
 528:Src/LTC6811.c **** 		data[4] = (uint16_t) ((rx_data[7] << 8) & 0xFF00) | (rx_data[6] & 0x00FF);
 476              		.loc 1 528 3 is_stmt 1 view .LVU175
 528:Src/LTC6811.c **** 		data[4] = (uint16_t) ((rx_data[7] << 8) & 0xFF00) | (rx_data[6] & 0x00FF);
 477              		.loc 1 528 33 is_stmt 0 view .LVU176
 478 010a 9DF80530 		ldrb	r3, [sp, #5]	@ zero_extendqisi2
 528:Src/LTC6811.c **** 		data[4] = (uint16_t) ((rx_data[7] << 8) & 0xFF00) | (rx_data[6] & 0x00FF);
 479              		.loc 1 528 37 view .LVU177
 480 010e 1B02     		lsls	r3, r3, #8
 528:Src/LTC6811.c **** 		data[4] = (uint16_t) ((rx_data[7] << 8) & 0xFF00) | (rx_data[6] & 0x00FF);
 481              		.loc 1 528 13 view .LVU178
 482 0110 1BB2     		sxth	r3, r3
 528:Src/LTC6811.c **** 		data[4] = (uint16_t) ((rx_data[7] << 8) & 0xFF00) | (rx_data[6] & 0x00FF);
 483              		.loc 1 528 63 view .LVU179
 484 0112 9DF80420 		ldrb	r2, [sp, #4]	@ zero_extendqisi2
 528:Src/LTC6811.c **** 		data[4] = (uint16_t) ((rx_data[7] << 8) & 0xFF00) | (rx_data[6] & 0x00FF);
 485              		.loc 1 528 53 view .LVU180
 486 0116 1343     		orrs	r3, r3, r2
 528:Src/LTC6811.c **** 		data[4] = (uint16_t) ((rx_data[7] << 8) & 0xFF00) | (rx_data[6] & 0x00FF);
 487              		.loc 1 528 11 view .LVU181
 488 0118 FB80     		strh	r3, [r7, #6]	@ movhi
 529:Src/LTC6811.c **** 		data[5] = (uint16_t) ((rx_data[9] << 8) & 0xFF00) | (rx_data[8] & 0x00FF);
 489              		.loc 1 529 3 is_stmt 1 view .LVU182
 529:Src/LTC6811.c **** 		data[5] = (uint16_t) ((rx_data[9] << 8) & 0xFF00) | (rx_data[8] & 0x00FF);
ARM GAS  C:\cygwin64\tmp\cc7JEtnh.s 			page 23


 490              		.loc 1 529 33 is_stmt 0 view .LVU183
 491 011a 9DF80730 		ldrb	r3, [sp, #7]	@ zero_extendqisi2
 529:Src/LTC6811.c **** 		data[5] = (uint16_t) ((rx_data[9] << 8) & 0xFF00) | (rx_data[8] & 0x00FF);
 492              		.loc 1 529 37 view .LVU184
 493 011e 1B02     		lsls	r3, r3, #8
 529:Src/LTC6811.c **** 		data[5] = (uint16_t) ((rx_data[9] << 8) & 0xFF00) | (rx_data[8] & 0x00FF);
 494              		.loc 1 529 13 view .LVU185
 495 0120 1BB2     		sxth	r3, r3
 529:Src/LTC6811.c **** 		data[5] = (uint16_t) ((rx_data[9] << 8) & 0xFF00) | (rx_data[8] & 0x00FF);
 496              		.loc 1 529 63 view .LVU186
 497 0122 9DF80620 		ldrb	r2, [sp, #6]	@ zero_extendqisi2
 529:Src/LTC6811.c **** 		data[5] = (uint16_t) ((rx_data[9] << 8) & 0xFF00) | (rx_data[8] & 0x00FF);
 498              		.loc 1 529 53 view .LVU187
 499 0126 1343     		orrs	r3, r3, r2
 529:Src/LTC6811.c **** 		data[5] = (uint16_t) ((rx_data[9] << 8) & 0xFF00) | (rx_data[8] & 0x00FF);
 500              		.loc 1 529 11 view .LVU188
 501 0128 3B81     		strh	r3, [r7, #8]	@ movhi
 530:Src/LTC6811.c **** 	}
 502              		.loc 1 530 3 is_stmt 1 view .LVU189
 530:Src/LTC6811.c **** 	}
 503              		.loc 1 530 33 is_stmt 0 view .LVU190
 504 012a 9DF80930 		ldrb	r3, [sp, #9]	@ zero_extendqisi2
 530:Src/LTC6811.c **** 	}
 505              		.loc 1 530 37 view .LVU191
 506 012e 1B02     		lsls	r3, r3, #8
 530:Src/LTC6811.c **** 	}
 507              		.loc 1 530 13 view .LVU192
 508 0130 1BB2     		sxth	r3, r3
 530:Src/LTC6811.c **** 	}
 509              		.loc 1 530 63 view .LVU193
 510 0132 9DF80820 		ldrb	r2, [sp, #8]	@ zero_extendqisi2
 530:Src/LTC6811.c **** 	}
 511              		.loc 1 530 53 view .LVU194
 512 0136 1343     		orrs	r3, r3, r2
 530:Src/LTC6811.c **** 	}
 513              		.loc 1 530 11 view .LVU195
 514 0138 7B81     		strh	r3, [r7, #10]	@ movhi
 515 013a BDE7     		b	.L22
 516              	.L33:
 535:Src/LTC6811.c **** 		data[7] = (uint16_t) ((rx_data[7] << 8) & 0xFF00) | (rx_data[6] & 0x00FF);
 517              		.loc 1 535 3 is_stmt 1 view .LVU196
 535:Src/LTC6811.c **** 		data[7] = (uint16_t) ((rx_data[7] << 8) & 0xFF00) | (rx_data[6] & 0x00FF);
 518              		.loc 1 535 33 is_stmt 0 view .LVU197
 519 013c 9DF80530 		ldrb	r3, [sp, #5]	@ zero_extendqisi2
 535:Src/LTC6811.c **** 		data[7] = (uint16_t) ((rx_data[7] << 8) & 0xFF00) | (rx_data[6] & 0x00FF);
 520              		.loc 1 535 37 view .LVU198
 521 0140 1B02     		lsls	r3, r3, #8
 535:Src/LTC6811.c **** 		data[7] = (uint16_t) ((rx_data[7] << 8) & 0xFF00) | (rx_data[6] & 0x00FF);
 522              		.loc 1 535 13 view .LVU199
 523 0142 1BB2     		sxth	r3, r3
 535:Src/LTC6811.c **** 		data[7] = (uint16_t) ((rx_data[7] << 8) & 0xFF00) | (rx_data[6] & 0x00FF);
 524              		.loc 1 535 63 view .LVU200
 525 0144 9DF80420 		ldrb	r2, [sp, #4]	@ zero_extendqisi2
 535:Src/LTC6811.c **** 		data[7] = (uint16_t) ((rx_data[7] << 8) & 0xFF00) | (rx_data[6] & 0x00FF);
 526              		.loc 1 535 53 view .LVU201
 527 0148 1343     		orrs	r3, r3, r2
 535:Src/LTC6811.c **** 		data[7] = (uint16_t) ((rx_data[7] << 8) & 0xFF00) | (rx_data[6] & 0x00FF);
ARM GAS  C:\cygwin64\tmp\cc7JEtnh.s 			page 24


 528              		.loc 1 535 11 view .LVU202
 529 014a BB81     		strh	r3, [r7, #12]	@ movhi
 536:Src/LTC6811.c **** 		data[8] = (uint16_t) ((rx_data[9] << 8) & 0xFF00) | (rx_data[8] & 0x00FF);
 530              		.loc 1 536 3 is_stmt 1 view .LVU203
 536:Src/LTC6811.c **** 		data[8] = (uint16_t) ((rx_data[9] << 8) & 0xFF00) | (rx_data[8] & 0x00FF);
 531              		.loc 1 536 33 is_stmt 0 view .LVU204
 532 014c 9DF80730 		ldrb	r3, [sp, #7]	@ zero_extendqisi2
 536:Src/LTC6811.c **** 		data[8] = (uint16_t) ((rx_data[9] << 8) & 0xFF00) | (rx_data[8] & 0x00FF);
 533              		.loc 1 536 37 view .LVU205
 534 0150 1B02     		lsls	r3, r3, #8
 536:Src/LTC6811.c **** 		data[8] = (uint16_t) ((rx_data[9] << 8) & 0xFF00) | (rx_data[8] & 0x00FF);
 535              		.loc 1 536 13 view .LVU206
 536 0152 1BB2     		sxth	r3, r3
 536:Src/LTC6811.c **** 		data[8] = (uint16_t) ((rx_data[9] << 8) & 0xFF00) | (rx_data[8] & 0x00FF);
 537              		.loc 1 536 63 view .LVU207
 538 0154 9DF80620 		ldrb	r2, [sp, #6]	@ zero_extendqisi2
 536:Src/LTC6811.c **** 		data[8] = (uint16_t) ((rx_data[9] << 8) & 0xFF00) | (rx_data[8] & 0x00FF);
 539              		.loc 1 536 53 view .LVU208
 540 0158 1343     		orrs	r3, r3, r2
 536:Src/LTC6811.c **** 		data[8] = (uint16_t) ((rx_data[9] << 8) & 0xFF00) | (rx_data[8] & 0x00FF);
 541              		.loc 1 536 11 view .LVU209
 542 015a FB81     		strh	r3, [r7, #14]	@ movhi
 537:Src/LTC6811.c **** 	}
 543              		.loc 1 537 3 is_stmt 1 view .LVU210
 537:Src/LTC6811.c **** 	}
 544              		.loc 1 537 33 is_stmt 0 view .LVU211
 545 015c 9DF80930 		ldrb	r3, [sp, #9]	@ zero_extendqisi2
 537:Src/LTC6811.c **** 	}
 546              		.loc 1 537 37 view .LVU212
 547 0160 1B02     		lsls	r3, r3, #8
 537:Src/LTC6811.c **** 	}
 548              		.loc 1 537 13 view .LVU213
 549 0162 1BB2     		sxth	r3, r3
 537:Src/LTC6811.c **** 	}
 550              		.loc 1 537 63 view .LVU214
 551 0164 9DF80820 		ldrb	r2, [sp, #8]	@ zero_extendqisi2
 537:Src/LTC6811.c **** 	}
 552              		.loc 1 537 53 view .LVU215
 553 0168 1343     		orrs	r3, r3, r2
 537:Src/LTC6811.c **** 	}
 554              		.loc 1 537 11 view .LVU216
 555 016a 3B82     		strh	r3, [r7, #16]	@ movhi
 556 016c A6E7     		b	.L23
 557              	.L34:
 542:Src/LTC6811.c **** 		data[10] = (uint16_t) ((rx_data[7] << 8) & 0xFF00) | (rx_data[6] & 0x00FF);
 558              		.loc 1 542 3 is_stmt 1 view .LVU217
 542:Src/LTC6811.c **** 		data[10] = (uint16_t) ((rx_data[7] << 8) & 0xFF00) | (rx_data[6] & 0x00FF);
 559              		.loc 1 542 33 is_stmt 0 view .LVU218
 560 016e 9DF80530 		ldrb	r3, [sp, #5]	@ zero_extendqisi2
 542:Src/LTC6811.c **** 		data[10] = (uint16_t) ((rx_data[7] << 8) & 0xFF00) | (rx_data[6] & 0x00FF);
 561              		.loc 1 542 37 view .LVU219
 562 0172 1B02     		lsls	r3, r3, #8
 542:Src/LTC6811.c **** 		data[10] = (uint16_t) ((rx_data[7] << 8) & 0xFF00) | (rx_data[6] & 0x00FF);
 563              		.loc 1 542 13 view .LVU220
 564 0174 1BB2     		sxth	r3, r3
 542:Src/LTC6811.c **** 		data[10] = (uint16_t) ((rx_data[7] << 8) & 0xFF00) | (rx_data[6] & 0x00FF);
 565              		.loc 1 542 63 view .LVU221
ARM GAS  C:\cygwin64\tmp\cc7JEtnh.s 			page 25


 566 0176 9DF80420 		ldrb	r2, [sp, #4]	@ zero_extendqisi2
 542:Src/LTC6811.c **** 		data[10] = (uint16_t) ((rx_data[7] << 8) & 0xFF00) | (rx_data[6] & 0x00FF);
 567              		.loc 1 542 53 view .LVU222
 568 017a 1343     		orrs	r3, r3, r2
 542:Src/LTC6811.c **** 		data[10] = (uint16_t) ((rx_data[7] << 8) & 0xFF00) | (rx_data[6] & 0x00FF);
 569              		.loc 1 542 11 view .LVU223
 570 017c 7B82     		strh	r3, [r7, #18]	@ movhi
 543:Src/LTC6811.c **** 		data[11] = (uint16_t) ((rx_data[9] << 8) & 0xFF00) | (rx_data[8] & 0x00FF);
 571              		.loc 1 543 3 is_stmt 1 view .LVU224
 543:Src/LTC6811.c **** 		data[11] = (uint16_t) ((rx_data[9] << 8) & 0xFF00) | (rx_data[8] & 0x00FF);
 572              		.loc 1 543 34 is_stmt 0 view .LVU225
 573 017e 9DF80730 		ldrb	r3, [sp, #7]	@ zero_extendqisi2
 543:Src/LTC6811.c **** 		data[11] = (uint16_t) ((rx_data[9] << 8) & 0xFF00) | (rx_data[8] & 0x00FF);
 574              		.loc 1 543 38 view .LVU226
 575 0182 1B02     		lsls	r3, r3, #8
 543:Src/LTC6811.c **** 		data[11] = (uint16_t) ((rx_data[9] << 8) & 0xFF00) | (rx_data[8] & 0x00FF);
 576              		.loc 1 543 14 view .LVU227
 577 0184 1BB2     		sxth	r3, r3
 543:Src/LTC6811.c **** 		data[11] = (uint16_t) ((rx_data[9] << 8) & 0xFF00) | (rx_data[8] & 0x00FF);
 578              		.loc 1 543 64 view .LVU228
 579 0186 9DF80620 		ldrb	r2, [sp, #6]	@ zero_extendqisi2
 543:Src/LTC6811.c **** 		data[11] = (uint16_t) ((rx_data[9] << 8) & 0xFF00) | (rx_data[8] & 0x00FF);
 580              		.loc 1 543 54 view .LVU229
 581 018a 1343     		orrs	r3, r3, r2
 543:Src/LTC6811.c **** 		data[11] = (uint16_t) ((rx_data[9] << 8) & 0xFF00) | (rx_data[8] & 0x00FF);
 582              		.loc 1 543 12 view .LVU230
 583 018c BB82     		strh	r3, [r7, #20]	@ movhi
 544:Src/LTC6811.c **** 	}
 584              		.loc 1 544 3 is_stmt 1 view .LVU231
 544:Src/LTC6811.c **** 	}
 585              		.loc 1 544 34 is_stmt 0 view .LVU232
 586 018e 9DF80930 		ldrb	r3, [sp, #9]	@ zero_extendqisi2
 544:Src/LTC6811.c **** 	}
 587              		.loc 1 544 38 view .LVU233
 588 0192 1B02     		lsls	r3, r3, #8
 544:Src/LTC6811.c **** 	}
 589              		.loc 1 544 14 view .LVU234
 590 0194 1BB2     		sxth	r3, r3
 544:Src/LTC6811.c **** 	}
 591              		.loc 1 544 64 view .LVU235
 592 0196 9DF80820 		ldrb	r2, [sp, #8]	@ zero_extendqisi2
 544:Src/LTC6811.c **** 	}
 593              		.loc 1 544 54 view .LVU236
 594 019a 1343     		orrs	r3, r3, r2
 544:Src/LTC6811.c **** 	}
 595              		.loc 1 544 12 view .LVU237
 596 019c FB82     		strh	r3, [r7, #22]	@ movhi
 597 019e 8FE7     		b	.L24
 598              	.L35:
 549:Src/LTC6811.c **** 		data[1] = (uint16_t) ((rx_data[7] << 8) & 0xFF00) | (rx_data[6] & 0x00FF);
 599              		.loc 1 549 3 is_stmt 1 view .LVU238
 549:Src/LTC6811.c **** 		data[1] = (uint16_t) ((rx_data[7] << 8) & 0xFF00) | (rx_data[6] & 0x00FF);
 600              		.loc 1 549 33 is_stmt 0 view .LVU239
 601 01a0 9DF80530 		ldrb	r3, [sp, #5]	@ zero_extendqisi2
 549:Src/LTC6811.c **** 		data[1] = (uint16_t) ((rx_data[7] << 8) & 0xFF00) | (rx_data[6] & 0x00FF);
 602              		.loc 1 549 37 view .LVU240
 603 01a4 1B02     		lsls	r3, r3, #8
ARM GAS  C:\cygwin64\tmp\cc7JEtnh.s 			page 26


 549:Src/LTC6811.c **** 		data[1] = (uint16_t) ((rx_data[7] << 8) & 0xFF00) | (rx_data[6] & 0x00FF);
 604              		.loc 1 549 13 view .LVU241
 605 01a6 1BB2     		sxth	r3, r3
 549:Src/LTC6811.c **** 		data[1] = (uint16_t) ((rx_data[7] << 8) & 0xFF00) | (rx_data[6] & 0x00FF);
 606              		.loc 1 549 63 view .LVU242
 607 01a8 9DF80420 		ldrb	r2, [sp, #4]	@ zero_extendqisi2
 549:Src/LTC6811.c **** 		data[1] = (uint16_t) ((rx_data[7] << 8) & 0xFF00) | (rx_data[6] & 0x00FF);
 608              		.loc 1 549 53 view .LVU243
 609 01ac 1343     		orrs	r3, r3, r2
 549:Src/LTC6811.c **** 		data[1] = (uint16_t) ((rx_data[7] << 8) & 0xFF00) | (rx_data[6] & 0x00FF);
 610              		.loc 1 549 11 view .LVU244
 611 01ae 3B80     		strh	r3, [r7]	@ movhi
 550:Src/LTC6811.c **** 		data[2] = (uint16_t) ((rx_data[9] << 8) & 0xFF00) | (rx_data[8] & 0x00FF);
 612              		.loc 1 550 3 is_stmt 1 view .LVU245
 550:Src/LTC6811.c **** 		data[2] = (uint16_t) ((rx_data[9] << 8) & 0xFF00) | (rx_data[8] & 0x00FF);
 613              		.loc 1 550 33 is_stmt 0 view .LVU246
 614 01b0 9DF80730 		ldrb	r3, [sp, #7]	@ zero_extendqisi2
 550:Src/LTC6811.c **** 		data[2] = (uint16_t) ((rx_data[9] << 8) & 0xFF00) | (rx_data[8] & 0x00FF);
 615              		.loc 1 550 37 view .LVU247
 616 01b4 1B02     		lsls	r3, r3, #8
 550:Src/LTC6811.c **** 		data[2] = (uint16_t) ((rx_data[9] << 8) & 0xFF00) | (rx_data[8] & 0x00FF);
 617              		.loc 1 550 13 view .LVU248
 618 01b6 1BB2     		sxth	r3, r3
 550:Src/LTC6811.c **** 		data[2] = (uint16_t) ((rx_data[9] << 8) & 0xFF00) | (rx_data[8] & 0x00FF);
 619              		.loc 1 550 63 view .LVU249
 620 01b8 9DF80620 		ldrb	r2, [sp, #6]	@ zero_extendqisi2
 550:Src/LTC6811.c **** 		data[2] = (uint16_t) ((rx_data[9] << 8) & 0xFF00) | (rx_data[8] & 0x00FF);
 621              		.loc 1 550 53 view .LVU250
 622 01bc 1343     		orrs	r3, r3, r2
 550:Src/LTC6811.c **** 		data[2] = (uint16_t) ((rx_data[9] << 8) & 0xFF00) | (rx_data[8] & 0x00FF);
 623              		.loc 1 550 11 view .LVU251
 624 01be 7B80     		strh	r3, [r7, #2]	@ movhi
 551:Src/LTC6811.c **** 	}
 625              		.loc 1 551 3 is_stmt 1 view .LVU252
 551:Src/LTC6811.c **** 	}
 626              		.loc 1 551 33 is_stmt 0 view .LVU253
 627 01c0 9DF80930 		ldrb	r3, [sp, #9]	@ zero_extendqisi2
 551:Src/LTC6811.c **** 	}
 628              		.loc 1 551 37 view .LVU254
 629 01c4 1B02     		lsls	r3, r3, #8
 551:Src/LTC6811.c **** 	}
 630              		.loc 1 551 13 view .LVU255
 631 01c6 1BB2     		sxth	r3, r3
 551:Src/LTC6811.c **** 	}
 632              		.loc 1 551 63 view .LVU256
 633 01c8 9DF80820 		ldrb	r2, [sp, #8]	@ zero_extendqisi2
 551:Src/LTC6811.c **** 	}
 634              		.loc 1 551 53 view .LVU257
 635 01cc 1343     		orrs	r3, r3, r2
 551:Src/LTC6811.c **** 	}
 636              		.loc 1 551 11 view .LVU258
 637 01ce BB80     		strh	r3, [r7, #4]	@ movhi
 638 01d0 78E7     		b	.L25
 639              	.L36:
 555:Src/LTC6811.c **** 	}
 640              		.loc 1 555 3 is_stmt 1 view .LVU259
 555:Src/LTC6811.c **** 	}
ARM GAS  C:\cygwin64\tmp\cc7JEtnh.s 			page 27


 641              		.loc 1 555 33 is_stmt 0 view .LVU260
 642 01d2 9DF80530 		ldrb	r3, [sp, #5]	@ zero_extendqisi2
 555:Src/LTC6811.c **** 	}
 643              		.loc 1 555 37 view .LVU261
 644 01d6 1B02     		lsls	r3, r3, #8
 555:Src/LTC6811.c **** 	}
 645              		.loc 1 555 13 view .LVU262
 646 01d8 1BB2     		sxth	r3, r3
 555:Src/LTC6811.c **** 	}
 647              		.loc 1 555 63 view .LVU263
 648 01da 9DF80420 		ldrb	r2, [sp, #4]	@ zero_extendqisi2
 555:Src/LTC6811.c **** 	}
 649              		.loc 1 555 53 view .LVU264
 650 01de 1343     		orrs	r3, r3, r2
 555:Src/LTC6811.c **** 	}
 651              		.loc 1 555 11 view .LVU265
 652 01e0 FB80     		strh	r3, [r7, #6]	@ movhi
 653 01e2 72E7     		b	.L26
 654              	.L37:
 559:Src/LTC6811.c **** 		data[1] = (uint16_t) ((rx_data[6] << 8) & 0xFF00) | (rx_data[7] & 0x00FF);
 655              		.loc 1 559 3 is_stmt 1 view .LVU266
 559:Src/LTC6811.c **** 		data[1] = (uint16_t) ((rx_data[6] << 8) & 0xFF00) | (rx_data[7] & 0x00FF);
 656              		.loc 1 559 33 is_stmt 0 view .LVU267
 657 01e4 9DF80430 		ldrb	r3, [sp, #4]	@ zero_extendqisi2
 559:Src/LTC6811.c **** 		data[1] = (uint16_t) ((rx_data[6] << 8) & 0xFF00) | (rx_data[7] & 0x00FF);
 658              		.loc 1 559 37 view .LVU268
 659 01e8 1B02     		lsls	r3, r3, #8
 559:Src/LTC6811.c **** 		data[1] = (uint16_t) ((rx_data[6] << 8) & 0xFF00) | (rx_data[7] & 0x00FF);
 660              		.loc 1 559 13 view .LVU269
 661 01ea 1BB2     		sxth	r3, r3
 559:Src/LTC6811.c **** 		data[1] = (uint16_t) ((rx_data[6] << 8) & 0xFF00) | (rx_data[7] & 0x00FF);
 662              		.loc 1 559 63 view .LVU270
 663 01ec 9DF80520 		ldrb	r2, [sp, #5]	@ zero_extendqisi2
 559:Src/LTC6811.c **** 		data[1] = (uint16_t) ((rx_data[6] << 8) & 0xFF00) | (rx_data[7] & 0x00FF);
 664              		.loc 1 559 53 view .LVU271
 665 01f0 1343     		orrs	r3, r3, r2
 559:Src/LTC6811.c **** 		data[1] = (uint16_t) ((rx_data[6] << 8) & 0xFF00) | (rx_data[7] & 0x00FF);
 666              		.loc 1 559 11 view .LVU272
 667 01f2 3B80     		strh	r3, [r7]	@ movhi
 560:Src/LTC6811.c **** 		data[2] = (uint16_t) ((rx_data[8] << 8) & 0xFF00) | (rx_data[9] & 0x00FF);
 668              		.loc 1 560 3 is_stmt 1 view .LVU273
 560:Src/LTC6811.c **** 		data[2] = (uint16_t) ((rx_data[8] << 8) & 0xFF00) | (rx_data[9] & 0x00FF);
 669              		.loc 1 560 33 is_stmt 0 view .LVU274
 670 01f4 9DF80630 		ldrb	r3, [sp, #6]	@ zero_extendqisi2
 560:Src/LTC6811.c **** 		data[2] = (uint16_t) ((rx_data[8] << 8) & 0xFF00) | (rx_data[9] & 0x00FF);
 671              		.loc 1 560 37 view .LVU275
 672 01f8 1B02     		lsls	r3, r3, #8
 560:Src/LTC6811.c **** 		data[2] = (uint16_t) ((rx_data[8] << 8) & 0xFF00) | (rx_data[9] & 0x00FF);
 673              		.loc 1 560 13 view .LVU276
 674 01fa 1BB2     		sxth	r3, r3
 560:Src/LTC6811.c **** 		data[2] = (uint16_t) ((rx_data[8] << 8) & 0xFF00) | (rx_data[9] & 0x00FF);
 675              		.loc 1 560 63 view .LVU277
 676 01fc 9DF80720 		ldrb	r2, [sp, #7]	@ zero_extendqisi2
 560:Src/LTC6811.c **** 		data[2] = (uint16_t) ((rx_data[8] << 8) & 0xFF00) | (rx_data[9] & 0x00FF);
 677              		.loc 1 560 53 view .LVU278
 678 0200 1343     		orrs	r3, r3, r2
 560:Src/LTC6811.c **** 		data[2] = (uint16_t) ((rx_data[8] << 8) & 0xFF00) | (rx_data[9] & 0x00FF);
ARM GAS  C:\cygwin64\tmp\cc7JEtnh.s 			page 28


 679              		.loc 1 560 11 view .LVU279
 680 0202 7B80     		strh	r3, [r7, #2]	@ movhi
 561:Src/LTC6811.c **** 		data[3] = (uint16_t) ((rx_data[10] << 8) & 0xFF00) | (rx_data[11] & 0x00FF);
 681              		.loc 1 561 3 is_stmt 1 view .LVU280
 561:Src/LTC6811.c **** 		data[3] = (uint16_t) ((rx_data[10] << 8) & 0xFF00) | (rx_data[11] & 0x00FF);
 682              		.loc 1 561 33 is_stmt 0 view .LVU281
 683 0204 9DF80830 		ldrb	r3, [sp, #8]	@ zero_extendqisi2
 561:Src/LTC6811.c **** 		data[3] = (uint16_t) ((rx_data[10] << 8) & 0xFF00) | (rx_data[11] & 0x00FF);
 684              		.loc 1 561 37 view .LVU282
 685 0208 1B02     		lsls	r3, r3, #8
 561:Src/LTC6811.c **** 		data[3] = (uint16_t) ((rx_data[10] << 8) & 0xFF00) | (rx_data[11] & 0x00FF);
 686              		.loc 1 561 13 view .LVU283
 687 020a 1BB2     		sxth	r3, r3
 561:Src/LTC6811.c **** 		data[3] = (uint16_t) ((rx_data[10] << 8) & 0xFF00) | (rx_data[11] & 0x00FF);
 688              		.loc 1 561 63 view .LVU284
 689 020c 9DF80920 		ldrb	r2, [sp, #9]	@ zero_extendqisi2
 561:Src/LTC6811.c **** 		data[3] = (uint16_t) ((rx_data[10] << 8) & 0xFF00) | (rx_data[11] & 0x00FF);
 690              		.loc 1 561 53 view .LVU285
 691 0210 1343     		orrs	r3, r3, r2
 561:Src/LTC6811.c **** 		data[3] = (uint16_t) ((rx_data[10] << 8) & 0xFF00) | (rx_data[11] & 0x00FF);
 692              		.loc 1 561 11 view .LVU286
 693 0212 BB80     		strh	r3, [r7, #4]	@ movhi
 562:Src/LTC6811.c **** 	}
 694              		.loc 1 562 3 is_stmt 1 view .LVU287
 562:Src/LTC6811.c **** 	}
 695              		.loc 1 562 33 is_stmt 0 view .LVU288
 696 0214 9DF80A30 		ldrb	r3, [sp, #10]	@ zero_extendqisi2
 562:Src/LTC6811.c **** 	}
 697              		.loc 1 562 38 view .LVU289
 698 0218 1B02     		lsls	r3, r3, #8
 562:Src/LTC6811.c **** 	}
 699              		.loc 1 562 13 view .LVU290
 700 021a 1BB2     		sxth	r3, r3
 562:Src/LTC6811.c **** 	}
 701              		.loc 1 562 64 view .LVU291
 702 021c 9DF80B20 		ldrb	r2, [sp, #11]	@ zero_extendqisi2
 562:Src/LTC6811.c **** 	}
 703              		.loc 1 562 54 view .LVU292
 704 0220 1343     		orrs	r3, r3, r2
 562:Src/LTC6811.c **** 	}
 705              		.loc 1 562 11 view .LVU293
 706 0222 FB80     		strh	r3, [r7, #6]	@ movhi
 707 0224 54E7     		b	.L27
 708              		.cfi_endproc
 709              	.LFE76:
 711              		.section	.text.readConfig,"ax",%progbits
 712              		.align	1
 713              		.global	readConfig
 714              		.syntax unified
 715              		.thumb
 716              		.thumb_func
 717              		.fpu softvfp
 719              	readConfig:
 720              	.LVL36:
 721              	.LFB73:
 342:Src/LTC6811.c **** 	
 722              		.loc 1 342 50 is_stmt 1 view -0
ARM GAS  C:\cygwin64\tmp\cc7JEtnh.s 			page 29


 723              		.cfi_startproc
 724              		@ args = 0, pretend = 0, frame = 0
 725              		@ frame_needed = 0, uses_anonymous_args = 0
 342:Src/LTC6811.c **** 	
 726              		.loc 1 342 50 is_stmt 0 view .LVU295
 727 0000 70B5     		push	{r4, r5, r6, lr}
 728              	.LCFI6:
 729              		.cfi_def_cfa_offset 16
 730              		.cfi_offset 4, -16
 731              		.cfi_offset 5, -12
 732              		.cfi_offset 6, -8
 733              		.cfi_offset 14, -4
 734 0002 0646     		mov	r6, r0
 735 0004 0C46     		mov	r4, r1
 344:Src/LTC6811.c **** 	bool dataValid = false;
 736              		.loc 1 344 2 is_stmt 1 view .LVU296
 345:Src/LTC6811.c **** 	
 737              		.loc 1 345 2 view .LVU297
 738              	.LVL37:
 347:Src/LTC6811.c **** 	
 739              		.loc 1 347 2 view .LVU298
 347:Src/LTC6811.c **** 	
 740              		.loc 1 347 23 is_stmt 0 view .LVU299
 741 0006 0820     		movs	r0, #8
 742              	.LVL38:
 347:Src/LTC6811.c **** 	
 743              		.loc 1 347 23 view .LVU300
 744 0008 FFF7FEFF 		bl	malloc
 745              	.LVL39:
 347:Src/LTC6811.c **** 	
 746              		.loc 1 347 23 view .LVU301
 747 000c 0546     		mov	r5, r0
 748              	.LVL40:
 349:Src/LTC6811.c **** 	
 749              		.loc 1 349 2 is_stmt 1 view .LVU302
 349:Src/LTC6811.c **** 	
 750              		.loc 1 349 14 is_stmt 0 view .LVU303
 751 000e 0246     		mov	r2, r0
 752 0010 3146     		mov	r1, r6
 753 0012 0220     		movs	r0, #2
 754              	.LVL41:
 349:Src/LTC6811.c **** 	
 755              		.loc 1 349 14 view .LVU304
 756 0014 FFF7FEFF 		bl	readRegister
 757              	.LVL42:
 351:Src/LTC6811.c **** 	cfg[1] = (uint8_t) (config[0] & 0xFF);
 758              		.loc 1 351 2 is_stmt 1 view .LVU305
 351:Src/LTC6811.c **** 	cfg[1] = (uint8_t) (config[0] & 0xFF);
 759              		.loc 1 351 29 is_stmt 0 view .LVU306
 760 0018 2B88     		ldrh	r3, [r5]
 351:Src/LTC6811.c **** 	cfg[1] = (uint8_t) (config[0] & 0xFF);
 761              		.loc 1 351 11 view .LVU307
 762 001a 1A0A     		lsrs	r2, r3, #8
 351:Src/LTC6811.c **** 	cfg[1] = (uint8_t) (config[0] & 0xFF);
 763              		.loc 1 351 9 view .LVU308
 764 001c 2270     		strb	r2, [r4]
 352:Src/LTC6811.c **** 	cfg[2] = (uint8_t) ((config[1] >> 8) & 0xFF);
ARM GAS  C:\cygwin64\tmp\cc7JEtnh.s 			page 30


 765              		.loc 1 352 2 is_stmt 1 view .LVU309
 352:Src/LTC6811.c **** 	cfg[2] = (uint8_t) ((config[1] >> 8) & 0xFF);
 766              		.loc 1 352 9 is_stmt 0 view .LVU310
 767 001e 6370     		strb	r3, [r4, #1]
 353:Src/LTC6811.c **** 	cfg[3] = (uint8_t) (config[1] & 0xFF);
 768              		.loc 1 353 2 is_stmt 1 view .LVU311
 353:Src/LTC6811.c **** 	cfg[3] = (uint8_t) (config[1] & 0xFF);
 769              		.loc 1 353 29 is_stmt 0 view .LVU312
 770 0020 6B88     		ldrh	r3, [r5, #2]
 353:Src/LTC6811.c **** 	cfg[3] = (uint8_t) (config[1] & 0xFF);
 771              		.loc 1 353 11 view .LVU313
 772 0022 1A0A     		lsrs	r2, r3, #8
 353:Src/LTC6811.c **** 	cfg[3] = (uint8_t) (config[1] & 0xFF);
 773              		.loc 1 353 9 view .LVU314
 774 0024 A270     		strb	r2, [r4, #2]
 354:Src/LTC6811.c **** 	cfg[4] = (uint8_t) ((config[2] >> 8) & 0xFF);
 775              		.loc 1 354 2 is_stmt 1 view .LVU315
 354:Src/LTC6811.c **** 	cfg[4] = (uint8_t) ((config[2] >> 8) & 0xFF);
 776              		.loc 1 354 9 is_stmt 0 view .LVU316
 777 0026 E370     		strb	r3, [r4, #3]
 355:Src/LTC6811.c **** 	cfg[5] = (uint8_t) (config[2] & 0xFF);
 778              		.loc 1 355 2 is_stmt 1 view .LVU317
 355:Src/LTC6811.c **** 	cfg[5] = (uint8_t) (config[2] & 0xFF);
 779              		.loc 1 355 29 is_stmt 0 view .LVU318
 780 0028 AB88     		ldrh	r3, [r5, #4]
 355:Src/LTC6811.c **** 	cfg[5] = (uint8_t) (config[2] & 0xFF);
 781              		.loc 1 355 11 view .LVU319
 782 002a 1A0A     		lsrs	r2, r3, #8
 355:Src/LTC6811.c **** 	cfg[5] = (uint8_t) (config[2] & 0xFF);
 783              		.loc 1 355 9 view .LVU320
 784 002c 2271     		strb	r2, [r4, #4]
 356:Src/LTC6811.c **** 	cfg[6] = (uint8_t) ((config[3] >> 8) & 0xFF);
 785              		.loc 1 356 2 is_stmt 1 view .LVU321
 356:Src/LTC6811.c **** 	cfg[6] = (uint8_t) ((config[3] >> 8) & 0xFF);
 786              		.loc 1 356 9 is_stmt 0 view .LVU322
 787 002e 6371     		strb	r3, [r4, #5]
 357:Src/LTC6811.c **** 	cfg[7] = (uint8_t) (config[3] & 0xFF);
 788              		.loc 1 357 2 is_stmt 1 view .LVU323
 357:Src/LTC6811.c **** 	cfg[7] = (uint8_t) (config[3] & 0xFF);
 789              		.loc 1 357 29 is_stmt 0 view .LVU324
 790 0030 EB88     		ldrh	r3, [r5, #6]
 357:Src/LTC6811.c **** 	cfg[7] = (uint8_t) (config[3] & 0xFF);
 791              		.loc 1 357 11 view .LVU325
 792 0032 1A0A     		lsrs	r2, r3, #8
 357:Src/LTC6811.c **** 	cfg[7] = (uint8_t) (config[3] & 0xFF);
 793              		.loc 1 357 9 view .LVU326
 794 0034 A271     		strb	r2, [r4, #6]
 358:Src/LTC6811.c **** 	
 795              		.loc 1 358 2 is_stmt 1 view .LVU327
 358:Src/LTC6811.c **** 	
 796              		.loc 1 358 9 is_stmt 0 view .LVU328
 797 0036 E371     		strb	r3, [r4, #7]
 360:Src/LTC6811.c **** }
 798              		.loc 1 360 2 is_stmt 1 view .LVU329
 361:Src/LTC6811.c **** 
 799              		.loc 1 361 1 is_stmt 0 view .LVU330
 800 0038 70BD     		pop	{r4, r5, r6, pc}
ARM GAS  C:\cygwin64\tmp\cc7JEtnh.s 			page 31


 361:Src/LTC6811.c **** 
 801              		.loc 1 361 1 view .LVU331
 802              		.cfi_endproc
 803              	.LFE73:
 805              		.section	.text.writeConfigAddress,"ax",%progbits
 806              		.align	1
 807              		.global	writeConfigAddress
 808              		.syntax unified
 809              		.thumb
 810              		.thumb_func
 811              		.fpu softvfp
 813              	writeConfigAddress:
 814              	.LVL43:
 815              	.LFB67:
 112:Src/LTC6811.c **** 
 816              		.loc 1 112 70 is_stmt 1 view -0
 817              		.cfi_startproc
 818              		@ args = 100, pretend = 16, frame = 8
 819              		@ frame_needed = 0, uses_anonymous_args = 0
 112:Src/LTC6811.c **** 
 820              		.loc 1 112 70 is_stmt 0 view .LVU333
 821 0000 84B0     		sub	sp, sp, #16
 822              	.LCFI7:
 823              		.cfi_def_cfa_offset 16
 824 0002 2DE9F04F 		push	{r4, r5, r6, r7, r8, r9, r10, fp, lr}
 825              	.LCFI8:
 826              		.cfi_def_cfa_offset 52
 827              		.cfi_offset 4, -52
 828              		.cfi_offset 5, -48
 829              		.cfi_offset 6, -44
 830              		.cfi_offset 7, -40
 831              		.cfi_offset 8, -36
 832              		.cfi_offset 9, -32
 833              		.cfi_offset 10, -28
 834              		.cfi_offset 11, -24
 835              		.cfi_offset 14, -20
 836 0006 83B0     		sub	sp, sp, #12
 837              	.LCFI9:
 838              		.cfi_def_cfa_offset 64
 839 0008 0CAC     		add	r4, sp, #48
 840 000a 84E80F00 		stm	r4, {r0, r1, r2, r3}
 841 000e 9DF89090 		ldrb	r9, [sp, #144]	@ zero_extendqisi2
 114:Src/LTC6811.c **** 	uint8_t *cmd;
 842              		.loc 1 114 2 is_stmt 1 view .LVU334
 115:Src/LTC6811.c **** 	uint8_t cmd_len = 12;
 843              		.loc 1 115 2 view .LVU335
 116:Src/LTC6811.c **** 	uint16_t PEC_return;
 844              		.loc 1 116 2 view .LVU336
 845              	.LVL44:
 117:Src/LTC6811.c **** 	uint8_t dummy[8];
 846              		.loc 1 117 2 view .LVU337
 118:Src/LTC6811.c **** 
 847              		.loc 1 118 2 view .LVU338
 120:Src/LTC6811.c **** 	
 848              		.loc 1 120 2 view .LVU339
 849 0012 6946     		mov	r1, sp
 850 0014 4846     		mov	r0, r9
ARM GAS  C:\cygwin64\tmp\cc7JEtnh.s 			page 32


 851 0016 FFF7FEFF 		bl	readConfig
 852              	.LVL45:
 122:Src/LTC6811.c **** 	
 853              		.loc 1 122 2 view .LVU340
 122:Src/LTC6811.c **** 	
 854              		.loc 1 122 19 is_stmt 0 view .LVU341
 855 001a 0C20     		movs	r0, #12
 856 001c FFF7FEFF 		bl	malloc
 857              	.LVL46:
 858 0020 0646     		mov	r6, r0
 859              	.LVL47:
 124:Src/LTC6811.c **** 	config[1] = (uint8_t) (cfg.UndervoltageComparisonVoltage & 0xFF);
 860              		.loc 1 124 2 is_stmt 1 view .LVU342
 124:Src/LTC6811.c **** 	config[1] = (uint8_t) (cfg.UndervoltageComparisonVoltage & 0xFF);
 861              		.loc 1 124 28 is_stmt 0 view .LVU343
 862 0022 9DF87250 		ldrb	r5, [sp, #114]	@ zero_extendqisi2
 124:Src/LTC6811.c **** 	config[1] = (uint8_t) (cfg.UndervoltageComparisonVoltage & 0xFF);
 863              		.loc 1 124 14 view .LVU344
 864 0026 ED01     		lsls	r5, r5, #7
 865 0028 6DB2     		sxtb	r5, r5
 124:Src/LTC6811.c **** 	config[1] = (uint8_t) (cfg.UndervoltageComparisonVoltage & 0xFF);
 866              		.loc 1 124 58 view .LVU345
 867 002a 9DF87330 		ldrb	r3, [sp, #115]	@ zero_extendqisi2
 124:Src/LTC6811.c **** 	config[1] = (uint8_t) (cfg.UndervoltageComparisonVoltage & 0xFF);
 868              		.loc 1 124 52 view .LVU346
 869 002e 45EA8315 		orr	r5, r5, r3, lsl #6
 870 0032 6DB2     		sxtb	r5, r5
 124:Src/LTC6811.c **** 	config[1] = (uint8_t) (cfg.UndervoltageComparisonVoltage & 0xFF);
 871              		.loc 1 124 88 view .LVU347
 872 0034 9DF87430 		ldrb	r3, [sp, #116]	@ zero_extendqisi2
 124:Src/LTC6811.c **** 	config[1] = (uint8_t) (cfg.UndervoltageComparisonVoltage & 0xFF);
 873              		.loc 1 124 82 view .LVU348
 874 0038 45EA4315 		orr	r5, r5, r3, lsl #5
 875 003c 6DB2     		sxtb	r5, r5
 124:Src/LTC6811.c **** 	config[1] = (uint8_t) (cfg.UndervoltageComparisonVoltage & 0xFF);
 876              		.loc 1 124 118 view .LVU349
 877 003e 9DF87530 		ldrb	r3, [sp, #117]	@ zero_extendqisi2
 124:Src/LTC6811.c **** 	config[1] = (uint8_t) (cfg.UndervoltageComparisonVoltage & 0xFF);
 878              		.loc 1 124 112 view .LVU350
 879 0042 45EA0315 		orr	r5, r5, r3, lsl #4
 880 0046 6DB2     		sxtb	r5, r5
 124:Src/LTC6811.c **** 	config[1] = (uint8_t) (cfg.UndervoltageComparisonVoltage & 0xFF);
 881              		.loc 1 124 148 view .LVU351
 882 0048 9DF87630 		ldrb	r3, [sp, #118]	@ zero_extendqisi2
 124:Src/LTC6811.c **** 	config[1] = (uint8_t) (cfg.UndervoltageComparisonVoltage & 0xFF);
 883              		.loc 1 124 142 view .LVU352
 884 004c 45EAC305 		orr	r5, r5, r3, lsl #3
 885 0050 6DB2     		sxtb	r5, r5
 124:Src/LTC6811.c **** 	config[1] = (uint8_t) (cfg.UndervoltageComparisonVoltage & 0xFF);
 886              		.loc 1 124 178 view .LVU353
 887 0052 9DF87730 		ldrb	r3, [sp, #119]	@ zero_extendqisi2
 124:Src/LTC6811.c **** 	config[1] = (uint8_t) (cfg.UndervoltageComparisonVoltage & 0xFF);
 888              		.loc 1 124 172 view .LVU354
 889 0056 45EA8305 		orr	r5, r5, r3, lsl #2
 890 005a 6DB2     		sxtb	r5, r5
 124:Src/LTC6811.c **** 	config[1] = (uint8_t) (cfg.UndervoltageComparisonVoltage & 0xFF);
 891              		.loc 1 124 203 view .LVU355
ARM GAS  C:\cygwin64\tmp\cc7JEtnh.s 			page 33


 892 005c 9DF97830 		ldrsb	r3, [sp, #120]
 124:Src/LTC6811.c **** 	config[1] = (uint8_t) (cfg.UndervoltageComparisonVoltage & 0xFF);
 893              		.loc 1 124 197 view .LVU356
 894 0060 1D43     		orrs	r5, r5, r3
 895 0062 EDB2     		uxtb	r5, r5
 125:Src/LTC6811.c **** 	config[2] = (uint8_t) ((cfg.OvervoltageComparisonVoltage << 4) & 0xF0) | ((cfg.UndervoltageCompari
 896              		.loc 1 125 2 is_stmt 1 view .LVU357
 125:Src/LTC6811.c **** 	config[2] = (uint8_t) ((cfg.OvervoltageComparisonVoltage << 4) & 0xF0) | ((cfg.UndervoltageCompari
 897              		.loc 1 125 28 is_stmt 0 view .LVU358
 898 0064 BDF87A30 		ldrh	r3, [sp, #122]
 125:Src/LTC6811.c **** 	config[2] = (uint8_t) ((cfg.OvervoltageComparisonVoltage << 4) & 0xF0) | ((cfg.UndervoltageCompari
 899              		.loc 1 125 14 view .LVU359
 900 0068 5FFA83FA 		uxtb	r10, r3
 126:Src/LTC6811.c **** 	config[3] = (uint8_t) ((cfg.OvervoltageComparisonVoltage >> 4) & 0xFF);
 901              		.loc 1 126 2 is_stmt 1 view .LVU360
 126:Src/LTC6811.c **** 	config[3] = (uint8_t) ((cfg.OvervoltageComparisonVoltage >> 4) & 0xFF);
 902              		.loc 1 126 29 is_stmt 0 view .LVU361
 903 006c BDF87C80 		ldrh	r8, [sp, #124]
 126:Src/LTC6811.c **** 	config[3] = (uint8_t) ((cfg.OvervoltageComparisonVoltage >> 4) & 0xFF);
 904              		.loc 1 126 59 view .LVU362
 905 0070 4FEA0817 		lsl	r7, r8, #4
 126:Src/LTC6811.c **** 	config[3] = (uint8_t) ((cfg.OvervoltageComparisonVoltage >> 4) & 0xFF);
 906              		.loc 1 126 14 view .LVU363
 907 0074 7FB2     		sxtb	r7, r7
 126:Src/LTC6811.c **** 	config[3] = (uint8_t) ((cfg.OvervoltageComparisonVoltage >> 4) & 0xFF);
 908              		.loc 1 126 117 view .LVU364
 909 0076 C3F30323 		ubfx	r3, r3, #8, #4
 126:Src/LTC6811.c **** 	config[3] = (uint8_t) ((cfg.OvervoltageComparisonVoltage >> 4) & 0xFF);
 910              		.loc 1 126 73 view .LVU365
 911 007a 1F43     		orrs	r7, r7, r3
 912 007c FFB2     		uxtb	r7, r7
 127:Src/LTC6811.c **** 	config[4] = (uint8_t) (cfg.DischargeCell8 << 7) | (cfg.DischargeCell7 << 6) | (cfg.DischargeCell6 
 913              		.loc 1 127 2 is_stmt 1 view .LVU366
 127:Src/LTC6811.c **** 	config[4] = (uint8_t) (cfg.DischargeCell8 << 7) | (cfg.DischargeCell7 << 6) | (cfg.DischargeCell6 
 914              		.loc 1 127 14 is_stmt 0 view .LVU367
 915 007e C8F30718 		ubfx	r8, r8, #4, #8
 128:Src/LTC6811.c **** 	config[5] = (uint8_t) ((cfg.DischargeTimeoutValue << 4) & 0xF0) | (cfg.DischargeCell12 << 3) | (cf
 916              		.loc 1 128 2 is_stmt 1 view .LVU368
 128:Src/LTC6811.c **** 	config[5] = (uint8_t) ((cfg.DischargeTimeoutValue << 4) & 0xF0) | (cfg.DischargeCell12 << 3) | (cf
 917              		.loc 1 128 28 is_stmt 0 view .LVU369
 918 0082 9DF88540 		ldrb	r4, [sp, #133]	@ zero_extendqisi2
 128:Src/LTC6811.c **** 	config[5] = (uint8_t) ((cfg.DischargeTimeoutValue << 4) & 0xF0) | (cfg.DischargeCell12 << 3) | (cf
 919              		.loc 1 128 14 view .LVU370
 920 0086 E401     		lsls	r4, r4, #7
 921 0088 64B2     		sxtb	r4, r4
 128:Src/LTC6811.c **** 	config[5] = (uint8_t) ((cfg.DischargeTimeoutValue << 4) & 0xF0) | (cfg.DischargeCell12 << 3) | (cf
 922              		.loc 1 128 56 view .LVU371
 923 008a 9DF88430 		ldrb	r3, [sp, #132]	@ zero_extendqisi2
 128:Src/LTC6811.c **** 	config[5] = (uint8_t) ((cfg.DischargeTimeoutValue << 4) & 0xF0) | (cfg.DischargeCell12 << 3) | (cf
 924              		.loc 1 128 50 view .LVU372
 925 008e 44EA8314 		orr	r4, r4, r3, lsl #6
 926 0092 64B2     		sxtb	r4, r4
 128:Src/LTC6811.c **** 	config[5] = (uint8_t) ((cfg.DischargeTimeoutValue << 4) & 0xF0) | (cfg.DischargeCell12 << 3) | (cf
 927              		.loc 1 128 84 view .LVU373
 928 0094 9DF88330 		ldrb	r3, [sp, #131]	@ zero_extendqisi2
 128:Src/LTC6811.c **** 	config[5] = (uint8_t) ((cfg.DischargeTimeoutValue << 4) & 0xF0) | (cfg.DischargeCell12 << 3) | (cf
 929              		.loc 1 128 78 view .LVU374
ARM GAS  C:\cygwin64\tmp\cc7JEtnh.s 			page 34


 930 0098 44EA4314 		orr	r4, r4, r3, lsl #5
 931 009c 64B2     		sxtb	r4, r4
 128:Src/LTC6811.c **** 	config[5] = (uint8_t) ((cfg.DischargeTimeoutValue << 4) & 0xF0) | (cfg.DischargeCell12 << 3) | (cf
 932              		.loc 1 128 112 view .LVU375
 933 009e 9DF88230 		ldrb	r3, [sp, #130]	@ zero_extendqisi2
 128:Src/LTC6811.c **** 	config[5] = (uint8_t) ((cfg.DischargeTimeoutValue << 4) & 0xF0) | (cfg.DischargeCell12 << 3) | (cf
 934              		.loc 1 128 106 view .LVU376
 935 00a2 44EA0314 		orr	r4, r4, r3, lsl #4
 936 00a6 64B2     		sxtb	r4, r4
 128:Src/LTC6811.c **** 	config[5] = (uint8_t) ((cfg.DischargeTimeoutValue << 4) & 0xF0) | (cfg.DischargeCell12 << 3) | (cf
 937              		.loc 1 128 140 view .LVU377
 938 00a8 9DF88130 		ldrb	r3, [sp, #129]	@ zero_extendqisi2
 128:Src/LTC6811.c **** 	config[5] = (uint8_t) ((cfg.DischargeTimeoutValue << 4) & 0xF0) | (cfg.DischargeCell12 << 3) | (cf
 939              		.loc 1 128 134 view .LVU378
 940 00ac 44EAC304 		orr	r4, r4, r3, lsl #3
 941 00b0 64B2     		sxtb	r4, r4
 128:Src/LTC6811.c **** 	config[5] = (uint8_t) ((cfg.DischargeTimeoutValue << 4) & 0xF0) | (cfg.DischargeCell12 << 3) | (cf
 942              		.loc 1 128 168 view .LVU379
 943 00b2 9DF88030 		ldrb	r3, [sp, #128]	@ zero_extendqisi2
 128:Src/LTC6811.c **** 	config[5] = (uint8_t) ((cfg.DischargeTimeoutValue << 4) & 0xF0) | (cfg.DischargeCell12 << 3) | (cf
 944              		.loc 1 128 162 view .LVU380
 945 00b6 44EA8304 		orr	r4, r4, r3, lsl #2
 946 00ba 64B2     		sxtb	r4, r4
 128:Src/LTC6811.c **** 	config[5] = (uint8_t) ((cfg.DischargeTimeoutValue << 4) & 0xF0) | (cfg.DischargeCell12 << 3) | (cf
 947              		.loc 1 128 196 view .LVU381
 948 00bc 9DF87F30 		ldrb	r3, [sp, #127]	@ zero_extendqisi2
 128:Src/LTC6811.c **** 	config[5] = (uint8_t) ((cfg.DischargeTimeoutValue << 4) & 0xF0) | (cfg.DischargeCell12 << 3) | (cf
 949              		.loc 1 128 190 view .LVU382
 950 00c0 44EA4304 		orr	r4, r4, r3, lsl #1
 951 00c4 64B2     		sxtb	r4, r4
 128:Src/LTC6811.c **** 	config[5] = (uint8_t) ((cfg.DischargeTimeoutValue << 4) & 0xF0) | (cfg.DischargeCell12 << 3) | (cf
 952              		.loc 1 128 224 view .LVU383
 953 00c6 9DF97E30 		ldrsb	r3, [sp, #126]
 128:Src/LTC6811.c **** 	config[5] = (uint8_t) ((cfg.DischargeTimeoutValue << 4) & 0xF0) | (cfg.DischargeCell12 << 3) | (cf
 954              		.loc 1 128 218 view .LVU384
 955 00ca 1C43     		orrs	r4, r4, r3
 956 00cc E4B2     		uxtb	r4, r4
 129:Src/LTC6811.c **** 	
 957              		.loc 1 129 2 is_stmt 1 view .LVU385
 129:Src/LTC6811.c **** 	
 958              		.loc 1 129 29 is_stmt 0 view .LVU386
 959 00ce 9DF88AB0 		ldrb	fp, [sp, #138]	@ zero_extendqisi2
 129:Src/LTC6811.c **** 	
 960              		.loc 1 129 52 view .LVU387
 961 00d2 4FEA0B1B 		lsl	fp, fp, #4
 129:Src/LTC6811.c **** 	
 962              		.loc 1 129 14 view .LVU388
 963 00d6 4FFA8BFB 		sxtb	fp, fp
 129:Src/LTC6811.c **** 	
 964              		.loc 1 129 72 view .LVU389
 965 00da 9DF88930 		ldrb	r3, [sp, #137]	@ zero_extendqisi2
 129:Src/LTC6811.c **** 	
 966              		.loc 1 129 66 view .LVU390
 967 00de 4BEAC30B 		orr	fp, fp, r3, lsl #3
 968 00e2 4FFA8BFB 		sxtb	fp, fp
 129:Src/LTC6811.c **** 	
 969              		.loc 1 129 101 view .LVU391
ARM GAS  C:\cygwin64\tmp\cc7JEtnh.s 			page 35


 970 00e6 9DF88830 		ldrb	r3, [sp, #136]	@ zero_extendqisi2
 129:Src/LTC6811.c **** 	
 971              		.loc 1 129 95 view .LVU392
 972 00ea 4BEA830B 		orr	fp, fp, r3, lsl #2
 973 00ee 4FFA8BFB 		sxtb	fp, fp
 129:Src/LTC6811.c **** 	
 974              		.loc 1 129 130 view .LVU393
 975 00f2 9DF88730 		ldrb	r3, [sp, #135]	@ zero_extendqisi2
 129:Src/LTC6811.c **** 	
 976              		.loc 1 129 124 view .LVU394
 977 00f6 4BEA430B 		orr	fp, fp, r3, lsl #1
 978 00fa 4FFA8BFB 		sxtb	fp, fp
 129:Src/LTC6811.c **** 	
 979              		.loc 1 129 159 view .LVU395
 980 00fe 9DF98630 		ldrsb	r3, [sp, #134]
 129:Src/LTC6811.c **** 	
 981              		.loc 1 129 153 view .LVU396
 982 0102 4BEA030B 		orr	fp, fp, r3
 983 0106 5FFA8BFB 		uxtb	fp, fp
 131:Src/LTC6811.c **** 	cmd[1] = (uint8_t) (WriteConfigurationRegisterGroup & 0xFF);
 984              		.loc 1 131 2 is_stmt 1 view .LVU397
 131:Src/LTC6811.c **** 	cmd[1] = (uint8_t) (WriteConfigurationRegisterGroup & 0xFF);
 985              		.loc 1 131 39 is_stmt 0 view .LVU398
 986 010a 4FEAC903 		lsl	r3, r9, #3
 131:Src/LTC6811.c **** 	cmd[1] = (uint8_t) (WriteConfigurationRegisterGroup & 0xFF);
 987              		.loc 1 131 45 view .LVU399
 988 010e 03F07803 		and	r3, r3, #120
 131:Src/LTC6811.c **** 	cmd[1] = (uint8_t) (WriteConfigurationRegisterGroup & 0xFF);
 989              		.loc 1 131 11 view .LVU400
 990 0112 43F08003 		orr	r3, r3, #128
 131:Src/LTC6811.c **** 	cmd[1] = (uint8_t) (WriteConfigurationRegisterGroup & 0xFF);
 991              		.loc 1 131 9 view .LVU401
 992 0116 0370     		strb	r3, [r0]
 132:Src/LTC6811.c **** 	
 993              		.loc 1 132 2 is_stmt 1 view .LVU402
 132:Src/LTC6811.c **** 	
 994              		.loc 1 132 9 is_stmt 0 view .LVU403
 995 0118 0123     		movs	r3, #1
 996 011a 4370     		strb	r3, [r0, #1]
 134:Src/LTC6811.c **** 	
 997              		.loc 1 134 2 is_stmt 1 view .LVU404
 134:Src/LTC6811.c **** 	
 998              		.loc 1 134 15 is_stmt 0 view .LVU405
 999 011c 0146     		mov	r1, r0
 1000 011e 0220     		movs	r0, #2
 1001              	.LVL48:
 134:Src/LTC6811.c **** 	
 1002              		.loc 1 134 15 view .LVU406
 1003 0120 FFF7FEFF 		bl	calculatePEC
 1004              	.LVL49:
 136:Src/LTC6811.c **** 	cmd[3] = PEC_return & 0xFF;
 1005              		.loc 1 136 2 is_stmt 1 view .LVU407
 136:Src/LTC6811.c **** 	cmd[3] = PEC_return & 0xFF;
 1006              		.loc 1 136 9 is_stmt 0 view .LVU408
 1007 0124 030A     		lsrs	r3, r0, #8
 1008 0126 B370     		strb	r3, [r6, #2]
 137:Src/LTC6811.c **** 
ARM GAS  C:\cygwin64\tmp\cc7JEtnh.s 			page 36


 1009              		.loc 1 137 2 is_stmt 1 view .LVU409
 137:Src/LTC6811.c **** 
 1010              		.loc 1 137 9 is_stmt 0 view .LVU410
 1011 0128 F070     		strb	r0, [r6, #3]
 139:Src/LTC6811.c **** 	cmd[5] = config[1];
 1012              		.loc 1 139 2 is_stmt 1 view .LVU411
 139:Src/LTC6811.c **** 	cmd[5] = config[1];
 1013              		.loc 1 139 9 is_stmt 0 view .LVU412
 1014 012a 3571     		strb	r5, [r6, #4]
 140:Src/LTC6811.c **** 	cmd[6] = config[2];
 1015              		.loc 1 140 2 is_stmt 1 view .LVU413
 140:Src/LTC6811.c **** 	cmd[6] = config[2];
 1016              		.loc 1 140 9 is_stmt 0 view .LVU414
 1017 012c 86F805A0 		strb	r10, [r6, #5]
 141:Src/LTC6811.c **** 	cmd[7] = config[3];
 1018              		.loc 1 141 2 is_stmt 1 view .LVU415
 141:Src/LTC6811.c **** 	cmd[7] = config[3];
 1019              		.loc 1 141 9 is_stmt 0 view .LVU416
 1020 0130 B771     		strb	r7, [r6, #6]
 142:Src/LTC6811.c **** 	cmd[8] = config[4];
 1021              		.loc 1 142 2 is_stmt 1 view .LVU417
 142:Src/LTC6811.c **** 	cmd[8] = config[4];
 1022              		.loc 1 142 9 is_stmt 0 view .LVU418
 1023 0132 86F80780 		strb	r8, [r6, #7]
 143:Src/LTC6811.c **** 	cmd[9] = config[5];
 1024              		.loc 1 143 2 is_stmt 1 view .LVU419
 143:Src/LTC6811.c **** 	cmd[9] = config[5];
 1025              		.loc 1 143 9 is_stmt 0 view .LVU420
 1026 0136 3472     		strb	r4, [r6, #8]
 144:Src/LTC6811.c **** 	
 1027              		.loc 1 144 2 is_stmt 1 view .LVU421
 144:Src/LTC6811.c **** 	
 1028              		.loc 1 144 9 is_stmt 0 view .LVU422
 1029 0138 86F809B0 		strb	fp, [r6, #9]
 146:Src/LTC6811.c **** 
 1030              		.loc 1 146 2 is_stmt 1 view .LVU423
 146:Src/LTC6811.c **** 
 1031              		.loc 1 146 15 is_stmt 0 view .LVU424
 1032 013c 311D     		adds	r1, r6, #4
 1033 013e 0620     		movs	r0, #6
 1034              	.LVL50:
 146:Src/LTC6811.c **** 
 1035              		.loc 1 146 15 view .LVU425
 1036 0140 FFF7FEFF 		bl	calculatePEC
 1037              	.LVL51:
 148:Src/LTC6811.c **** 	cmd[11] = PEC_return & 0xFF;
 1038              		.loc 1 148 2 is_stmt 1 view .LVU426
 148:Src/LTC6811.c **** 	cmd[11] = PEC_return & 0xFF;
 1039              		.loc 1 148 10 is_stmt 0 view .LVU427
 1040 0144 030A     		lsrs	r3, r0, #8
 1041 0146 B372     		strb	r3, [r6, #10]
 149:Src/LTC6811.c **** 	
 1042              		.loc 1 149 2 is_stmt 1 view .LVU428
 149:Src/LTC6811.c **** 	
 1043              		.loc 1 149 10 is_stmt 0 view .LVU429
 1044 0148 F072     		strb	r0, [r6, #11]
 151:Src/LTC6811.c **** 
ARM GAS  C:\cygwin64\tmp\cc7JEtnh.s 			page 37


 1045              		.loc 1 151 2 is_stmt 1 view .LVU430
 1046 014a 0C21     		movs	r1, #12
 1047 014c 3046     		mov	r0, r6
 1048              	.LVL52:
 151:Src/LTC6811.c **** 
 1049              		.loc 1 151 2 is_stmt 0 view .LVU431
 1050 014e FFF7FEFF 		bl	SPIWrite
 1051              	.LVL53:
 153:Src/LTC6811.c **** 	
 1052              		.loc 1 153 2 is_stmt 1 view .LVU432
 1053 0152 6946     		mov	r1, sp
 1054 0154 4846     		mov	r0, r9
 1055 0156 FFF7FEFF 		bl	readConfig
 1056              	.LVL54:
 155:Src/LTC6811.c **** 
 1057              		.loc 1 155 2 view .LVU433
 1058 015a 3046     		mov	r0, r6
 1059 015c FFF7FEFF 		bl	free
 1060              	.LVL55:
 157:Src/LTC6811.c **** 
 1061              		.loc 1 157 1 is_stmt 0 view .LVU434
 1062 0160 03B0     		add	sp, sp, #12
 1063              	.LCFI10:
 1064              		.cfi_def_cfa_offset 52
 1065              		@ sp needed
 1066 0162 BDE8F04F 		pop	{r4, r5, r6, r7, r8, r9, r10, fp, lr}
 1067              	.LCFI11:
 1068              		.cfi_restore 14
 1069              		.cfi_restore 11
 1070              		.cfi_restore 10
 1071              		.cfi_restore 9
 1072              		.cfi_restore 8
 1073              		.cfi_restore 7
 1074              		.cfi_restore 6
 1075              		.cfi_restore 5
 1076              		.cfi_restore 4
 1077              		.cfi_def_cfa_offset 16
 1078              	.LVL56:
 157:Src/LTC6811.c **** 
 1079              		.loc 1 157 1 view .LVU435
 1080 0166 04B0     		add	sp, sp, #16
 1081              	.LCFI12:
 1082              		.cfi_def_cfa_offset 0
 1083 0168 7047     		bx	lr
 1084              		.cfi_endproc
 1085              	.LFE67:
 1087              		.section	.text.writeConfigAll,"ax",%progbits
 1088              		.align	1
 1089              		.global	writeConfigAll
 1090              		.syntax unified
 1091              		.thumb
 1092              		.thumb_func
 1093              		.fpu softvfp
 1095              	writeConfigAll:
 1096              	.LFB68:
 159:Src/LTC6811.c **** 
 1097              		.loc 1 159 49 is_stmt 1 view -0
ARM GAS  C:\cygwin64\tmp\cc7JEtnh.s 			page 38


 1098              		.cfi_startproc
 1099              		@ args = 96, pretend = 16, frame = 0
 1100              		@ frame_needed = 0, uses_anonymous_args = 0
 1101 0000 84B0     		sub	sp, sp, #16
 1102              	.LCFI13:
 1103              		.cfi_def_cfa_offset 16
 1104 0002 10B5     		push	{r4, lr}
 1105              	.LCFI14:
 1106              		.cfi_def_cfa_offset 24
 1107              		.cfi_offset 4, -24
 1108              		.cfi_offset 14, -20
 1109 0004 96B0     		sub	sp, sp, #88
 1110              	.LCFI15:
 1111              		.cfi_def_cfa_offset 112
 1112 0006 18AC     		add	r4, sp, #96
 1113 0008 84E80F00 		stm	r4, {r0, r1, r2, r3}
 161:Src/LTC6811.c **** 		writeConfigAddress(cfg, cfg.address[i]);
 1114              		.loc 1 161 2 view .LVU437
 1115              	.LBB7:
 161:Src/LTC6811.c **** 		writeConfigAddress(cfg, cfg.address[i]);
 1116              		.loc 1 161 7 view .LVU438
 1117              	.LVL57:
 161:Src/LTC6811.c **** 		writeConfigAddress(cfg, cfg.address[i]);
 1118              		.loc 1 161 15 is_stmt 0 view .LVU439
 1119 000c 0024     		movs	r4, #0
 1120              	.LVL58:
 1121              	.L43:
 161:Src/LTC6811.c **** 		writeConfigAddress(cfg, cfg.address[i]);
 1122              		.loc 1 161 29 discriminator 1 view .LVU440
 1123 000e 9DF86030 		ldrb	r3, [sp, #96]	@ zero_extendqisi2
 161:Src/LTC6811.c **** 		writeConfigAddress(cfg, cfg.address[i]);
 1124              		.loc 1 161 2 discriminator 1 view .LVU441
 1125 0012 A342     		cmp	r3, r4
 1126 0014 0FD9     		bls	.L46
 162:Src/LTC6811.c **** 	}
 1127              		.loc 1 162 3 is_stmt 1 discriminator 3 view .LVU442
 1128 0016 18AB     		add	r3, sp, #96
 1129 0018 2344     		add	r3, r3, r4
 1130 001a 5B78     		ldrb	r3, [r3, #1]	@ zero_extendqisi2
 1131 001c 1493     		str	r3, [sp, #80]
 1132 001e 4E22     		movs	r2, #78
 1133 0020 1CA9     		add	r1, sp, #112
 1134 0022 6846     		mov	r0, sp
 1135 0024 FFF7FEFF 		bl	memcpy
 1136              	.LVL59:
 1137 0028 18AB     		add	r3, sp, #96
 1138 002a 0FCB     		ldm	r3, {r0, r1, r2, r3}
 1139 002c FFF7FEFF 		bl	writeConfigAddress
 1140              	.LVL60:
 161:Src/LTC6811.c **** 		writeConfigAddress(cfg, cfg.address[i]);
 1141              		.loc 1 161 41 is_stmt 0 discriminator 3 view .LVU443
 1142 0030 0134     		adds	r4, r4, #1
 1143              	.LVL61:
 161:Src/LTC6811.c **** 		writeConfigAddress(cfg, cfg.address[i]);
 1144              		.loc 1 161 41 discriminator 3 view .LVU444
 1145 0032 E4B2     		uxtb	r4, r4
 1146              	.LVL62:
ARM GAS  C:\cygwin64\tmp\cc7JEtnh.s 			page 39


 161:Src/LTC6811.c **** 		writeConfigAddress(cfg, cfg.address[i]);
 1147              		.loc 1 161 41 discriminator 3 view .LVU445
 1148 0034 EBE7     		b	.L43
 1149              	.L46:
 161:Src/LTC6811.c **** 		writeConfigAddress(cfg, cfg.address[i]);
 1150              		.loc 1 161 41 discriminator 3 view .LVU446
 1151              	.LBE7:
 164:Src/LTC6811.c **** 
 1152              		.loc 1 164 1 view .LVU447
 1153 0036 16B0     		add	sp, sp, #88
 1154              	.LCFI16:
 1155              		.cfi_def_cfa_offset 24
 1156              		@ sp needed
 1157 0038 BDE81040 		pop	{r4, lr}
 1158              	.LCFI17:
 1159              		.cfi_restore 14
 1160              		.cfi_restore 4
 1161              		.cfi_def_cfa_offset 16
 1162              	.LVL63:
 164:Src/LTC6811.c **** 
 1163              		.loc 1 164 1 view .LVU448
 1164 003c 04B0     		add	sp, sp, #16
 1165              	.LCFI18:
 1166              		.cfi_def_cfa_offset 0
 1167 003e 7047     		bx	lr
 1168              		.cfi_endproc
 1169              	.LFE68:
 1171              		.section	.text.dischargeCellGroups,"ax",%progbits
 1172              		.align	1
 1173              		.global	dischargeCellGroups
 1174              		.syntax unified
 1175              		.thumb
 1176              		.thumb_func
 1177              		.fpu softvfp
 1179              	dischargeCellGroups:
 1180              	.LVL64:
 1181              	.LFB75:
 416:Src/LTC6811.c **** 	
 1182              		.loc 1 416 84 is_stmt 1 view -0
 1183              		.cfi_startproc
 1184              		@ args = 100, pretend = 16, frame = 0
 1185              		@ frame_needed = 0, uses_anonymous_args = 0
 416:Src/LTC6811.c **** 	
 1186              		.loc 1 416 84 is_stmt 0 view .LVU450
 1187 0000 84B0     		sub	sp, sp, #16
 1188              	.LCFI19:
 1189              		.cfi_def_cfa_offset 16
 1190 0002 30B5     		push	{r4, r5, lr}
 1191              	.LCFI20:
 1192              		.cfi_def_cfa_offset 28
 1193              		.cfi_offset 4, -28
 1194              		.cfi_offset 5, -24
 1195              		.cfi_offset 14, -20
 1196 0004 97B0     		sub	sp, sp, #92
 1197              	.LCFI21:
 1198              		.cfi_def_cfa_offset 120
 1199 0006 1AAC     		add	r4, sp, #104
ARM GAS  C:\cygwin64\tmp\cc7JEtnh.s 			page 40


 1200 0008 84E80F00 		stm	r4, {r0, r1, r2, r3}
 1201 000c 329D     		ldr	r5, [sp, #200]
 418:Src/LTC6811.c **** 
 1202              		.loc 1 418 2 is_stmt 1 view .LVU451
 420:Src/LTC6811.c **** 
 1203              		.loc 1 420 2 view .LVU452
 1204              	.LVL65:
 422:Src/LTC6811.c **** 
 1205              		.loc 1 422 2 view .LVU453
 1206              	.LBB8:
 422:Src/LTC6811.c **** 
 1207              		.loc 1 422 7 view .LVU454
 422:Src/LTC6811.c **** 
 1208              		.loc 1 422 15 is_stmt 0 view .LVU455
 1209 000e 0024     		movs	r4, #0
 1210              	.LVL66:
 1211              	.L48:
 422:Src/LTC6811.c **** 
 1212              		.loc 1 422 32 discriminator 1 view .LVU456
 1213 0010 9DF86830 		ldrb	r3, [sp, #104]	@ zero_extendqisi2
 422:Src/LTC6811.c **** 
 1214              		.loc 1 422 2 discriminator 1 view .LVU457
 1215 0014 A342     		cmp	r3, r4
 1216 0016 2AD9     		bls	.L51
 424:Src/LTC6811.c **** 		cfg->DischargeCell2 = cellDischarge[i][1];
 1217              		.loc 1 424 3 is_stmt 1 discriminator 3 view .LVU458
 424:Src/LTC6811.c **** 		cfg->DischargeCell2 = cellDischarge[i][1];
 1218              		.loc 1 424 38 is_stmt 0 discriminator 3 view .LVU459
 1219 0018 05EBC403 		add	r3, r5, r4, lsl #3
 424:Src/LTC6811.c **** 		cfg->DischargeCell2 = cellDischarge[i][1];
 1220              		.loc 1 424 41 discriminator 3 view .LVU460
 1221 001c 15F83420 		ldrb	r2, [r5, r4, lsl #3]	@ zero_extendqisi2
 424:Src/LTC6811.c **** 		cfg->DischargeCell2 = cellDischarge[i][1];
 1222              		.loc 1 424 23 discriminator 3 view .LVU461
 1223 0020 8DF8B620 		strb	r2, [sp, #182]
 425:Src/LTC6811.c **** 		cfg->DischargeCell3 = cellDischarge[i][2];
 1224              		.loc 1 425 3 is_stmt 1 discriminator 3 view .LVU462
 425:Src/LTC6811.c **** 		cfg->DischargeCell3 = cellDischarge[i][2];
 1225              		.loc 1 425 41 is_stmt 0 discriminator 3 view .LVU463
 1226 0024 5A78     		ldrb	r2, [r3, #1]	@ zero_extendqisi2
 425:Src/LTC6811.c **** 		cfg->DischargeCell3 = cellDischarge[i][2];
 1227              		.loc 1 425 23 discriminator 3 view .LVU464
 1228 0026 8DF8B720 		strb	r2, [sp, #183]
 426:Src/LTC6811.c **** 		cfg->DischargeCell4 = cellDischarge[i][3];
 1229              		.loc 1 426 3 is_stmt 1 discriminator 3 view .LVU465
 426:Src/LTC6811.c **** 		cfg->DischargeCell4 = cellDischarge[i][3];
 1230              		.loc 1 426 41 is_stmt 0 discriminator 3 view .LVU466
 1231 002a 9A78     		ldrb	r2, [r3, #2]	@ zero_extendqisi2
 426:Src/LTC6811.c **** 		cfg->DischargeCell4 = cellDischarge[i][3];
 1232              		.loc 1 426 23 discriminator 3 view .LVU467
 1233 002c 8DF8B820 		strb	r2, [sp, #184]
 427:Src/LTC6811.c **** 		cfg->DischargeCell7 = cellDischarge[i][4];
 1234              		.loc 1 427 3 is_stmt 1 discriminator 3 view .LVU468
 427:Src/LTC6811.c **** 		cfg->DischargeCell7 = cellDischarge[i][4];
 1235              		.loc 1 427 41 is_stmt 0 discriminator 3 view .LVU469
 1236 0030 DA78     		ldrb	r2, [r3, #3]	@ zero_extendqisi2
 427:Src/LTC6811.c **** 		cfg->DischargeCell7 = cellDischarge[i][4];
ARM GAS  C:\cygwin64\tmp\cc7JEtnh.s 			page 41


 1237              		.loc 1 427 23 discriminator 3 view .LVU470
 1238 0032 8DF8B920 		strb	r2, [sp, #185]
 428:Src/LTC6811.c **** 		cfg->DischargeCell8 = cellDischarge[i][5];
 1239              		.loc 1 428 3 is_stmt 1 discriminator 3 view .LVU471
 428:Src/LTC6811.c **** 		cfg->DischargeCell8 = cellDischarge[i][5];
 1240              		.loc 1 428 41 is_stmt 0 discriminator 3 view .LVU472
 1241 0036 1A79     		ldrb	r2, [r3, #4]	@ zero_extendqisi2
 428:Src/LTC6811.c **** 		cfg->DischargeCell8 = cellDischarge[i][5];
 1242              		.loc 1 428 23 discriminator 3 view .LVU473
 1243 0038 8DF8BC20 		strb	r2, [sp, #188]
 429:Src/LTC6811.c **** 		cfg->DischargeCell9 = cellDischarge[i][6];
 1244              		.loc 1 429 3 is_stmt 1 discriminator 3 view .LVU474
 429:Src/LTC6811.c **** 		cfg->DischargeCell9 = cellDischarge[i][6];
 1245              		.loc 1 429 41 is_stmt 0 discriminator 3 view .LVU475
 1246 003c 5A79     		ldrb	r2, [r3, #5]	@ zero_extendqisi2
 429:Src/LTC6811.c **** 		cfg->DischargeCell9 = cellDischarge[i][6];
 1247              		.loc 1 429 23 discriminator 3 view .LVU476
 1248 003e 8DF8BD20 		strb	r2, [sp, #189]
 430:Src/LTC6811.c **** 		cfg->DischargeCell10 = cellDischarge[i][7];
 1249              		.loc 1 430 3 is_stmt 1 discriminator 3 view .LVU477
 430:Src/LTC6811.c **** 		cfg->DischargeCell10 = cellDischarge[i][7];
 1250              		.loc 1 430 41 is_stmt 0 discriminator 3 view .LVU478
 1251 0042 9A79     		ldrb	r2, [r3, #6]	@ zero_extendqisi2
 430:Src/LTC6811.c **** 		cfg->DischargeCell10 = cellDischarge[i][7];
 1252              		.loc 1 430 23 discriminator 3 view .LVU479
 1253 0044 8DF8BE20 		strb	r2, [sp, #190]
 431:Src/LTC6811.c **** 
 1254              		.loc 1 431 3 is_stmt 1 discriminator 3 view .LVU480
 431:Src/LTC6811.c **** 
 1255              		.loc 1 431 42 is_stmt 0 discriminator 3 view .LVU481
 1256 0048 DB79     		ldrb	r3, [r3, #7]	@ zero_extendqisi2
 431:Src/LTC6811.c **** 
 1257              		.loc 1 431 24 discriminator 3 view .LVU482
 1258 004a 8DF8BF30 		strb	r3, [sp, #191]
 433:Src/LTC6811.c **** 
 1259              		.loc 1 433 3 is_stmt 1 discriminator 3 view .LVU483
 1260 004e 1AAB     		add	r3, sp, #104
 1261              	.LVL67:
 433:Src/LTC6811.c **** 
 1262              		.loc 1 433 3 is_stmt 0 discriminator 3 view .LVU484
 1263 0050 2344     		add	r3, r3, r4
 1264              	.LVL68:
 433:Src/LTC6811.c **** 
 1265              		.loc 1 433 3 discriminator 3 view .LVU485
 1266 0052 5B78     		ldrb	r3, [r3, #1]	@ zero_extendqisi2
 1267 0054 1493     		str	r3, [sp, #80]
 1268 0056 4E22     		movs	r2, #78
 1269 0058 1EA9     		add	r1, sp, #120
 1270 005a 6846     		mov	r0, sp
 1271 005c FFF7FEFF 		bl	memcpy
 1272              	.LVL69:
 1273 0060 1AAB     		add	r3, sp, #104
 1274              	.LVL70:
 433:Src/LTC6811.c **** 
 1275              		.loc 1 433 3 discriminator 3 view .LVU486
 1276 0062 0FCB     		ldm	r3, {r0, r1, r2, r3}
 1277              	.LVL71:
ARM GAS  C:\cygwin64\tmp\cc7JEtnh.s 			page 42


 433:Src/LTC6811.c **** 
 1278              		.loc 1 433 3 discriminator 3 view .LVU487
 1279 0064 FFF7FEFF 		bl	writeConfigAddress
 1280              	.LVL72:
 422:Src/LTC6811.c **** 
 1281              		.loc 1 422 44 discriminator 3 view .LVU488
 1282 0068 0134     		adds	r4, r4, #1
 1283              	.LVL73:
 422:Src/LTC6811.c **** 
 1284              		.loc 1 422 44 discriminator 3 view .LVU489
 1285 006a E4B2     		uxtb	r4, r4
 1286              	.LVL74:
 422:Src/LTC6811.c **** 
 1287              		.loc 1 422 44 discriminator 3 view .LVU490
 1288 006c D0E7     		b	.L48
 1289              	.L51:
 422:Src/LTC6811.c **** 
 1290              		.loc 1 422 44 discriminator 3 view .LVU491
 1291              	.LBE8:
 437:Src/LTC6811.c **** 	cfg->DischargeCell2 = 0;
 1292              		.loc 1 437 2 is_stmt 1 view .LVU492
 438:Src/LTC6811.c **** 	cfg->DischargeCell3 = 0;
 1293              		.loc 1 438 2 view .LVU493
 439:Src/LTC6811.c **** 	cfg->DischargeCell4 = 0;
 1294              		.loc 1 439 2 view .LVU494
 440:Src/LTC6811.c **** 	cfg->DischargeCell7 = 0;
 1295              		.loc 1 440 2 view .LVU495
 441:Src/LTC6811.c **** 	cfg->DischargeCell8 = 0;
 1296              		.loc 1 441 2 view .LVU496
 442:Src/LTC6811.c **** 	cfg->DischargeCell9 = 0;
 1297              		.loc 1 442 2 view .LVU497
 443:Src/LTC6811.c **** 	cfg->DischargeCell10 = 0;
 1298              		.loc 1 443 2 view .LVU498
 444:Src/LTC6811.c **** 
 1299              		.loc 1 444 2 view .LVU499
 446:Src/LTC6811.c **** 	
 1300              		.loc 1 446 2 view .LVU500
 448:Src/LTC6811.c **** 
 1301              		.loc 1 448 1 is_stmt 0 view .LVU501
 1302 006e 0020     		movs	r0, #0
 1303 0070 17B0     		add	sp, sp, #92
 1304              	.LCFI22:
 1305              		.cfi_def_cfa_offset 28
 1306              		@ sp needed
 1307 0072 BDE83040 		pop	{r4, r5, lr}
 1308              	.LCFI23:
 1309              		.cfi_restore 14
 1310              		.cfi_restore 5
 1311              		.cfi_restore 4
 1312              		.cfi_def_cfa_offset 16
 1313              	.LVL75:
 448:Src/LTC6811.c **** 
 1314              		.loc 1 448 1 view .LVU502
 1315 0076 04B0     		add	sp, sp, #16
 1316              	.LCFI24:
 1317              		.cfi_def_cfa_offset 0
 1318              	.LVL76:
ARM GAS  C:\cygwin64\tmp\cc7JEtnh.s 			page 43


 448:Src/LTC6811.c **** 
 1319              		.loc 1 448 1 view .LVU503
 1320 0078 7047     		bx	lr
 1321              		.cfi_endproc
 1322              	.LFE75:
 1324              		.section	.text.sendBroadcastCommand,"ax",%progbits
 1325              		.align	1
 1326              		.global	sendBroadcastCommand
 1327              		.syntax unified
 1328              		.thumb
 1329              		.thumb_func
 1330              		.fpu softvfp
 1332              	sendBroadcastCommand:
 1333              	.LVL77:
 1334              	.LFB77:
 569:Src/LTC6811.c **** 	
 1335              		.loc 1 569 55 is_stmt 1 view -0
 1336              		.cfi_startproc
 1337              		@ args = 0, pretend = 0, frame = 8
 1338              		@ frame_needed = 0, uses_anonymous_args = 0
 569:Src/LTC6811.c **** 	
 1339              		.loc 1 569 55 is_stmt 0 view .LVU505
 1340 0000 00B5     		push	{lr}
 1341              	.LCFI25:
 1342              		.cfi_def_cfa_offset 4
 1343              		.cfi_offset 14, -4
 1344 0002 83B0     		sub	sp, sp, #12
 1345              	.LCFI26:
 1346              		.cfi_def_cfa_offset 16
 571:Src/LTC6811.c **** 	uint16_t PEC_return;
 1347              		.loc 1 571 2 is_stmt 1 view .LVU506
 572:Src/LTC6811.c **** 	
 1348              		.loc 1 572 2 view .LVU507
 574:Src/LTC6811.c **** 	cmd[1] = (uint8_t) (command & 0xFF);
 1349              		.loc 1 574 2 view .LVU508
 574:Src/LTC6811.c **** 	cmd[1] = (uint8_t) (command & 0xFF);
 1350              		.loc 1 574 11 is_stmt 0 view .LVU509
 1351 0004 C0F30323 		ubfx	r3, r0, #8, #4
 574:Src/LTC6811.c **** 	cmd[1] = (uint8_t) (command & 0xFF);
 1352              		.loc 1 574 9 view .LVU510
 1353 0008 8DF80430 		strb	r3, [sp, #4]
 575:Src/LTC6811.c **** 	
 1354              		.loc 1 575 2 is_stmt 1 view .LVU511
 575:Src/LTC6811.c **** 	
 1355              		.loc 1 575 9 is_stmt 0 view .LVU512
 1356 000c 8DF80500 		strb	r0, [sp, #5]
 577:Src/LTC6811.c **** 	
 1357              		.loc 1 577 2 is_stmt 1 view .LVU513
 577:Src/LTC6811.c **** 	
 1358              		.loc 1 577 15 is_stmt 0 view .LVU514
 1359 0010 01A9     		add	r1, sp, #4
 1360 0012 0220     		movs	r0, #2
 1361              	.LVL78:
 577:Src/LTC6811.c **** 	
 1362              		.loc 1 577 15 view .LVU515
 1363 0014 FFF7FEFF 		bl	calculatePEC
 1364              	.LVL79:
ARM GAS  C:\cygwin64\tmp\cc7JEtnh.s 			page 44


 579:Src/LTC6811.c **** 	cmd[3] = PEC_return & 0xFF;
 1365              		.loc 1 579 2 is_stmt 1 view .LVU516
 579:Src/LTC6811.c **** 	cmd[3] = PEC_return & 0xFF;
 1366              		.loc 1 579 9 is_stmt 0 view .LVU517
 1367 0018 030A     		lsrs	r3, r0, #8
 1368 001a 8DF80630 		strb	r3, [sp, #6]
 580:Src/LTC6811.c **** 	
 1369              		.loc 1 580 2 is_stmt 1 view .LVU518
 580:Src/LTC6811.c **** 	
 1370              		.loc 1 580 9 is_stmt 0 view .LVU519
 1371 001e 8DF80700 		strb	r0, [sp, #7]
 582:Src/LTC6811.c **** };
 1372              		.loc 1 582 2 is_stmt 1 view .LVU520
 1373 0022 0421     		movs	r1, #4
 1374 0024 0DEB0100 		add	r0, sp, r1
 1375              	.LVL80:
 582:Src/LTC6811.c **** };
 1376              		.loc 1 582 2 is_stmt 0 view .LVU521
 1377 0028 FFF7FEFF 		bl	SPIWrite
 1378              	.LVL81:
 583:Src/LTC6811.c **** 
 1379              		.loc 1 583 1 view .LVU522
 1380 002c 03B0     		add	sp, sp, #12
 1381              	.LCFI27:
 1382              		.cfi_def_cfa_offset 4
 1383              		@ sp needed
 1384 002e 5DF804FB 		ldr	pc, [sp], #4
 1385              		.cfi_endproc
 1386              	.LFE77:
 1388              		.section	.text.sendAddressCommand,"ax",%progbits
 1389              		.align	1
 1390              		.global	sendAddressCommand
 1391              		.syntax unified
 1392              		.thumb
 1393              		.thumb_func
 1394              		.fpu softvfp
 1396              	sendAddressCommand:
 1397              	.LVL82:
 1398              	.LFB78:
 585:Src/LTC6811.c **** 	
 1399              		.loc 1 585 70 is_stmt 1 view -0
 1400              		.cfi_startproc
 1401              		@ args = 0, pretend = 0, frame = 8
 1402              		@ frame_needed = 0, uses_anonymous_args = 0
 585:Src/LTC6811.c **** 	
 1403              		.loc 1 585 70 is_stmt 0 view .LVU524
 1404 0000 70B5     		push	{r4, r5, r6, lr}
 1405              	.LCFI28:
 1406              		.cfi_def_cfa_offset 16
 1407              		.cfi_offset 4, -16
 1408              		.cfi_offset 5, -12
 1409              		.cfi_offset 6, -8
 1410              		.cfi_offset 14, -4
 1411 0002 82B0     		sub	sp, sp, #8
 1412              	.LCFI29:
 1413              		.cfi_def_cfa_offset 24
 1414 0004 0546     		mov	r5, r0
ARM GAS  C:\cygwin64\tmp\cc7JEtnh.s 			page 45


 1415 0006 0C46     		mov	r4, r1
 587:Src/LTC6811.c **** 	uint16_t PEC_return;
 1416              		.loc 1 587 2 is_stmt 1 view .LVU525
 588:Src/LTC6811.c **** 	uint8_t *msbytes;
 1417              		.loc 1 588 2 view .LVU526
 589:Src/LTC6811.c **** 	
 1418              		.loc 1 589 2 view .LVU527
 591:Src/LTC6811.c **** 	
 1419              		.loc 1 591 2 view .LVU528
 591:Src/LTC6811.c **** 	
 1420              		.loc 1 591 23 is_stmt 0 view .LVU529
 1421 0008 0220     		movs	r0, #2
 1422              	.LVL83:
 591:Src/LTC6811.c **** 	
 1423              		.loc 1 591 23 view .LVU530
 1424 000a FFF7FEFF 		bl	malloc
 1425              	.LVL84:
 591:Src/LTC6811.c **** 	
 1426              		.loc 1 591 23 view .LVU531
 1427 000e 0646     		mov	r6, r0
 1428              	.LVL85:
 593:Src/LTC6811.c **** 	msbytes[1] = (uint8_t) (command & 0xFF);
 1429              		.loc 1 593 2 is_stmt 1 view .LVU532
 593:Src/LTC6811.c **** 	msbytes[1] = (uint8_t) (command & 0xFF);
 1430              		.loc 1 593 43 is_stmt 0 view .LVU533
 1431 0010 E300     		lsls	r3, r4, #3
 593:Src/LTC6811.c **** 	msbytes[1] = (uint8_t) (command & 0xFF);
 1432              		.loc 1 593 49 view .LVU534
 1433 0012 03F07803 		and	r3, r3, #120
 593:Src/LTC6811.c **** 	msbytes[1] = (uint8_t) (command & 0xFF);
 1434              		.loc 1 593 31 view .LVU535
 1435 0016 63F07F03 		orn	r3, r3, #127
 593:Src/LTC6811.c **** 	msbytes[1] = (uint8_t) (command & 0xFF);
 1436              		.loc 1 593 75 view .LVU536
 1437 001a C5F30224 		ubfx	r4, r5, #8, #3
 593:Src/LTC6811.c **** 	msbytes[1] = (uint8_t) (command & 0xFF);
 1438              		.loc 1 593 57 view .LVU537
 1439 001e 2343     		orrs	r3, r3, r4
 593:Src/LTC6811.c **** 	msbytes[1] = (uint8_t) (command & 0xFF);
 1440              		.loc 1 593 15 view .LVU538
 1441 0020 DBB2     		uxtb	r3, r3
 593:Src/LTC6811.c **** 	msbytes[1] = (uint8_t) (command & 0xFF);
 1442              		.loc 1 593 13 view .LVU539
 1443 0022 0370     		strb	r3, [r0]
 594:Src/LTC6811.c **** 
 1444              		.loc 1 594 2 is_stmt 1 view .LVU540
 594:Src/LTC6811.c **** 
 1445              		.loc 1 594 15 is_stmt 0 view .LVU541
 1446 0024 EDB2     		uxtb	r5, r5
 594:Src/LTC6811.c **** 
 1447              		.loc 1 594 13 view .LVU542
 1448 0026 4570     		strb	r5, [r0, #1]
 596:Src/LTC6811.c **** 	cmd[1] = msbytes[1];
 1449              		.loc 1 596 2 is_stmt 1 view .LVU543
 596:Src/LTC6811.c **** 	cmd[1] = msbytes[1];
 1450              		.loc 1 596 9 is_stmt 0 view .LVU544
 1451 0028 8DF80430 		strb	r3, [sp, #4]
ARM GAS  C:\cygwin64\tmp\cc7JEtnh.s 			page 46


 597:Src/LTC6811.c **** 	
 1452              		.loc 1 597 2 is_stmt 1 view .LVU545
 597:Src/LTC6811.c **** 	
 1453              		.loc 1 597 9 is_stmt 0 view .LVU546
 1454 002c 8DF80550 		strb	r5, [sp, #5]
 599:Src/LTC6811.c **** 	
 1455              		.loc 1 599 2 is_stmt 1 view .LVU547
 599:Src/LTC6811.c **** 	
 1456              		.loc 1 599 15 is_stmt 0 view .LVU548
 1457 0030 0146     		mov	r1, r0
 1458 0032 0220     		movs	r0, #2
 1459              	.LVL86:
 599:Src/LTC6811.c **** 	
 1460              		.loc 1 599 15 view .LVU549
 1461 0034 FFF7FEFF 		bl	calculatePEC
 1462              	.LVL87:
 601:Src/LTC6811.c **** 	cmd[3] = PEC_return & 0xFF;
 1463              		.loc 1 601 2 is_stmt 1 view .LVU550
 601:Src/LTC6811.c **** 	cmd[3] = PEC_return & 0xFF;
 1464              		.loc 1 601 9 is_stmt 0 view .LVU551
 1465 0038 030A     		lsrs	r3, r0, #8
 1466 003a 8DF80630 		strb	r3, [sp, #6]
 602:Src/LTC6811.c **** 	
 1467              		.loc 1 602 2 is_stmt 1 view .LVU552
 602:Src/LTC6811.c **** 	
 1468              		.loc 1 602 9 is_stmt 0 view .LVU553
 1469 003e 8DF80700 		strb	r0, [sp, #7]
 604:Src/LTC6811.c **** 	
 1470              		.loc 1 604 2 is_stmt 1 view .LVU554
 1471 0042 0421     		movs	r1, #4
 1472 0044 0DEB0100 		add	r0, sp, r1
 1473              	.LVL88:
 604:Src/LTC6811.c **** 	
 1474              		.loc 1 604 2 is_stmt 0 view .LVU555
 1475 0048 FFF7FEFF 		bl	SPIWrite
 1476              	.LVL89:
 606:Src/LTC6811.c **** };
 1477              		.loc 1 606 2 is_stmt 1 view .LVU556
 1478 004c 3046     		mov	r0, r6
 1479 004e FFF7FEFF 		bl	free
 1480              	.LVL90:
 607:Src/LTC6811.c **** 
 1481              		.loc 1 607 1 is_stmt 0 view .LVU557
 1482 0052 02B0     		add	sp, sp, #8
 1483              	.LCFI30:
 1484              		.cfi_def_cfa_offset 16
 1485              		@ sp needed
 1486 0054 70BD     		pop	{r4, r5, r6, pc}
 607:Src/LTC6811.c **** 
 1487              		.loc 1 607 1 view .LVU558
 1488              		.cfi_endproc
 1489              	.LFE78:
 1491              		.section	.text.readCellVoltage,"ax",%progbits
 1492              		.align	1
 1493              		.global	readCellVoltage
 1494              		.syntax unified
 1495              		.thumb
ARM GAS  C:\cygwin64\tmp\cc7JEtnh.s 			page 47


 1496              		.thumb_func
 1497              		.fpu softvfp
 1499              	readCellVoltage:
 1500              	.LVL91:
 1501              	.LFB69:
 166:Src/LTC6811.c **** 	
 1502              		.loc 1 166 65 is_stmt 1 view -0
 1503              		.cfi_startproc
 1504              		@ args = 0, pretend = 0, frame = 0
 1505              		@ frame_needed = 0, uses_anonymous_args = 0
 166:Src/LTC6811.c **** 	
 1506              		.loc 1 166 65 is_stmt 0 view .LVU560
 1507 0000 F8B5     		push	{r3, r4, r5, r6, r7, lr}
 1508              	.LCFI31:
 1509              		.cfi_def_cfa_offset 24
 1510              		.cfi_offset 3, -24
 1511              		.cfi_offset 4, -20
 1512              		.cfi_offset 5, -16
 1513              		.cfi_offset 6, -12
 1514              		.cfi_offset 7, -8
 1515              		.cfi_offset 14, -4
 1516 0002 0746     		mov	r7, r0
 1517 0004 0D46     		mov	r5, r1
 168:Src/LTC6811.c **** 	bool dataValid = true;
 1518              		.loc 1 168 2 is_stmt 1 view .LVU561
 1519              	.LVL92:
 169:Src/LTC6811.c **** 	uint16_t *voltage;
 1520              		.loc 1 169 2 view .LVU562
 170:Src/LTC6811.c **** 	
 1521              		.loc 1 170 2 view .LVU563
 172:Src/LTC6811.c **** 	
 1522              		.loc 1 172 2 view .LVU564
 172:Src/LTC6811.c **** 	
 1523              		.loc 1 172 24 is_stmt 0 view .LVU565
 1524 0006 1820     		movs	r0, #24
 1525              	.LVL93:
 172:Src/LTC6811.c **** 	
 1526              		.loc 1 172 24 view .LVU566
 1527 0008 FFF7FEFF 		bl	malloc
 1528              	.LVL94:
 172:Src/LTC6811.c **** 	
 1529              		.loc 1 172 24 view .LVU567
 1530 000c 0446     		mov	r4, r0
 1531              	.LVL95:
 174:Src/LTC6811.c **** 
 1532              		.loc 1 174 2 is_stmt 1 view .LVU568
 1533 000e 3946     		mov	r1, r7
 1534 0010 4FF41870 		mov	r0, #608
 1535              	.LVL96:
 174:Src/LTC6811.c **** 
 1536              		.loc 1 174 2 is_stmt 0 view .LVU569
 1537 0014 FFF7FEFF 		bl	sendAddressCommand
 1538              	.LVL97:
 176:Src/LTC6811.c **** 	
 1539              		.loc 1 176 2 is_stmt 1 view .LVU570
 1540 0018 0F20     		movs	r0, #15
 1541 001a FFF7FEFF 		bl	HAL_Delay
ARM GAS  C:\cygwin64\tmp\cc7JEtnh.s 			page 48


 1542              	.LVL98:
 178:Src/LTC6811.c **** 	//dataValid = dataValid & PEC_check;
 1543              		.loc 1 178 2 view .LVU571
 178:Src/LTC6811.c **** 	//dataValid = dataValid & PEC_check;
 1544              		.loc 1 178 14 is_stmt 0 view .LVU572
 1545 001e 2246     		mov	r2, r4
 1546 0020 3946     		mov	r1, r7
 1547 0022 0420     		movs	r0, #4
 1548 0024 FFF7FEFF 		bl	readRegister
 1549              	.LVL99:
 180:Src/LTC6811.c **** 	dataValid = dataValid & PEC_check;
 1550              		.loc 1 180 2 is_stmt 1 view .LVU573
 180:Src/LTC6811.c **** 	dataValid = dataValid & PEC_check;
 1551              		.loc 1 180 14 is_stmt 0 view .LVU574
 1552 0028 2246     		mov	r2, r4
 1553 002a 3946     		mov	r1, r7
 1554 002c 0620     		movs	r0, #6
 1555 002e FFF7FEFF 		bl	readRegister
 1556              	.LVL100:
 1557 0032 0646     		mov	r6, r0
 1558              	.LVL101:
 181:Src/LTC6811.c **** 	PEC_check = readRegister(ReadCellVoltageRegisterGroup7to9, address, voltage);
 1559              		.loc 1 181 2 is_stmt 1 view .LVU575
 182:Src/LTC6811.c **** 	dataValid = dataValid & PEC_check;
 1560              		.loc 1 182 2 view .LVU576
 182:Src/LTC6811.c **** 	dataValid = dataValid & PEC_check;
 1561              		.loc 1 182 14 is_stmt 0 view .LVU577
 1562 0034 2246     		mov	r2, r4
 1563 0036 3946     		mov	r1, r7
 1564 0038 0820     		movs	r0, #8
 1565 003a FFF7FEFF 		bl	readRegister
 1566              	.LVL102:
 183:Src/LTC6811.c **** 	PEC_check = readRegister(ReadCellVoltageRegisterGroup10to12, address, voltage);
 1567              		.loc 1 183 2 is_stmt 1 view .LVU578
 1568 003e 0640     		ands	r6, r6, r0
 1569              	.LVL103:
 183:Src/LTC6811.c **** 	PEC_check = readRegister(ReadCellVoltageRegisterGroup10to12, address, voltage);
 1570              		.loc 1 183 2 is_stmt 0 view .LVU579
 1571 0040 F6B2     		uxtb	r6, r6
 1572              	.LVL104:
 184:Src/LTC6811.c **** 	dataValid = dataValid & PEC_check;
 1573              		.loc 1 184 2 is_stmt 1 view .LVU580
 184:Src/LTC6811.c **** 	dataValid = dataValid & PEC_check;
 1574              		.loc 1 184 14 is_stmt 0 view .LVU581
 1575 0042 2246     		mov	r2, r4
 1576 0044 3946     		mov	r1, r7
 1577 0046 0A20     		movs	r0, #10
 1578              	.LVL105:
 184:Src/LTC6811.c **** 	dataValid = dataValid & PEC_check;
 1579              		.loc 1 184 14 view .LVU582
 1580 0048 FFF7FEFF 		bl	readRegister
 1581              	.LVL106:
 185:Src/LTC6811.c **** 	PEC_check = readRegister(ReadCellVoltageRegisterGroup1to3, address, voltage);
 1582              		.loc 1 185 2 is_stmt 1 view .LVU583
 1583 004c 0640     		ands	r6, r6, r0
 1584              	.LVL107:
 186:Src/LTC6811.c **** 	dataValid = dataValid & PEC_check;
ARM GAS  C:\cygwin64\tmp\cc7JEtnh.s 			page 49


 1585              		.loc 1 186 2 view .LVU584
 186:Src/LTC6811.c **** 	dataValid = dataValid & PEC_check;
 1586              		.loc 1 186 14 is_stmt 0 view .LVU585
 1587 004e 2246     		mov	r2, r4
 1588 0050 3946     		mov	r1, r7
 1589 0052 0420     		movs	r0, #4
 1590              	.LVL108:
 186:Src/LTC6811.c **** 	dataValid = dataValid & PEC_check;
 1591              		.loc 1 186 14 view .LVU586
 1592 0054 FFF7FEFF 		bl	readRegister
 1593              	.LVL109:
 187:Src/LTC6811.c **** 	
 1594              		.loc 1 187 2 is_stmt 1 view .LVU587
 1595 0058 0640     		ands	r6, r6, r0
 1596              	.LVL110:
 189:Src/LTC6811.c **** 		cellVoltage[i] = voltage[i];
 1597              		.loc 1 189 2 view .LVU588
 1598              	.LBB9:
 189:Src/LTC6811.c **** 		cellVoltage[i] = voltage[i];
 1599              		.loc 1 189 7 view .LVU589
 189:Src/LTC6811.c **** 		cellVoltage[i] = voltage[i];
 1600              		.loc 1 189 15 is_stmt 0 view .LVU590
 1601 005a 0023     		movs	r3, #0
 1602              	.LVL111:
 1603              	.L57:
 189:Src/LTC6811.c **** 		cellVoltage[i] = voltage[i];
 1604              		.loc 1 189 2 discriminator 1 view .LVU591
 1605 005c 0B2B     		cmp	r3, #11
 1606 005e 06D8     		bhi	.L60
 190:Src/LTC6811.c **** 	}
 1607              		.loc 1 190 3 is_stmt 1 discriminator 3 view .LVU592
 190:Src/LTC6811.c **** 	}
 1608              		.loc 1 190 27 is_stmt 0 discriminator 3 view .LVU593
 1609 0060 34F81320 		ldrh	r2, [r4, r3, lsl #1]
 190:Src/LTC6811.c **** 	}
 1610              		.loc 1 190 18 discriminator 3 view .LVU594
 1611 0064 25F81320 		strh	r2, [r5, r3, lsl #1]	@ movhi
 189:Src/LTC6811.c **** 		cellVoltage[i] = voltage[i];
 1612              		.loc 1 189 31 discriminator 3 view .LVU595
 1613 0068 0133     		adds	r3, r3, #1
 1614              	.LVL112:
 189:Src/LTC6811.c **** 		cellVoltage[i] = voltage[i];
 1615              		.loc 1 189 31 discriminator 3 view .LVU596
 1616 006a DBB2     		uxtb	r3, r3
 1617              	.LVL113:
 189:Src/LTC6811.c **** 		cellVoltage[i] = voltage[i];
 1618              		.loc 1 189 31 discriminator 3 view .LVU597
 1619 006c F6E7     		b	.L57
 1620              	.L60:
 189:Src/LTC6811.c **** 		cellVoltage[i] = voltage[i];
 1621              		.loc 1 189 31 discriminator 3 view .LVU598
 1622              	.LBE9:
 193:Src/LTC6811.c **** 	
 1623              		.loc 1 193 2 is_stmt 1 view .LVU599
 1624 006e 2046     		mov	r0, r4
 1625              	.LVL114:
 193:Src/LTC6811.c **** 	
ARM GAS  C:\cygwin64\tmp\cc7JEtnh.s 			page 50


 1626              		.loc 1 193 2 is_stmt 0 view .LVU600
 1627 0070 FFF7FEFF 		bl	free
 1628              	.LVL115:
 195:Src/LTC6811.c **** 	
 1629              		.loc 1 195 2 is_stmt 1 view .LVU601
 197:Src/LTC6811.c **** 
 1630              		.loc 1 197 1 is_stmt 0 view .LVU602
 1631 0074 3046     		mov	r0, r6
 1632 0076 F8BD     		pop	{r3, r4, r5, r6, r7, pc}
 197:Src/LTC6811.c **** 
 1633              		.loc 1 197 1 view .LVU603
 1634              		.cfi_endproc
 1635              	.LFE69:
 1637              		.section	.text.readAllCellVoltages,"ax",%progbits
 1638              		.align	1
 1639              		.global	readAllCellVoltages
 1640              		.syntax unified
 1641              		.thumb
 1642              		.thumb_func
 1643              		.fpu softvfp
 1645              	readAllCellVoltages:
 1646              	.LVL116:
 1647              	.LFB70:
 199:Src/LTC6811.c **** 
 1648              		.loc 1 199 78 is_stmt 1 view -0
 1649              		.cfi_startproc
 1650              		@ args = 100, pretend = 16, frame = 0
 1651              		@ frame_needed = 1, uses_anonymous_args = 0
 199:Src/LTC6811.c **** 
 1652              		.loc 1 199 78 is_stmt 0 view .LVU605
 1653 0000 84B0     		sub	sp, sp, #16
 1654              	.LCFI32:
 1655              		.cfi_def_cfa_offset 16
 1656 0002 2DE9F047 		push	{r4, r5, r6, r7, r8, r9, r10, lr}
 1657              	.LCFI33:
 1658              		.cfi_def_cfa_offset 48
 1659              		.cfi_offset 4, -48
 1660              		.cfi_offset 5, -44
 1661              		.cfi_offset 6, -40
 1662              		.cfi_offset 7, -36
 1663              		.cfi_offset 8, -32
 1664              		.cfi_offset 9, -28
 1665              		.cfi_offset 10, -24
 1666              		.cfi_offset 14, -20
 1667 0006 00AF     		add	r7, sp, #0
 1668              	.LCFI34:
 1669              		.cfi_def_cfa_register 7
 1670 0008 07F12004 		add	r4, r7, #32
 1671 000c 84E80F00 		stm	r4, {r0, r1, r2, r3}
 1672 0010 D7F88040 		ldr	r4, [r7, #128]
 201:Src/LTC6811.c **** 	bool PEC_check[cfg.numOfICs];
 1673              		.loc 1 201 2 is_stmt 1 view .LVU606
 201:Src/LTC6811.c **** 	bool PEC_check[cfg.numOfICs];
 1674              		.loc 1 201 27 is_stmt 0 view .LVU607
 1675 0014 97F84130 		ldrb	r3, [r7, #65]	@ zero_extendqisi2
 1676              	.LVL117:
 201:Src/LTC6811.c **** 	bool PEC_check[cfg.numOfICs];
ARM GAS  C:\cygwin64\tmp\cc7JEtnh.s 			page 51


 1677              		.loc 1 201 11 view .LVU608
 1678 0018 5B00     		lsls	r3, r3, #1
 1679              	.LVL118:
 201:Src/LTC6811.c **** 	bool PEC_check[cfg.numOfICs];
 1680              		.loc 1 201 11 view .LVU609
 1681 001a 0733     		adds	r3, r3, #7
 1682 001c 03F47E73 		and	r3, r3, #1016
 1683 0020 ADEB030D 		sub	sp, sp, r3
 1684 0024 6E46     		mov	r6, sp
 1685              	.LVL119:
 202:Src/LTC6811.c **** 	bool dataValid = true;
 1686              		.loc 1 202 2 is_stmt 1 view .LVU610
 202:Src/LTC6811.c **** 	bool dataValid = true;
 1687              		.loc 1 202 20 is_stmt 0 view .LVU611
 1688 0026 97F820A0 		ldrb	r10, [r7, #32]	@ zero_extendqisi2
 1689              	.LVL120:
 202:Src/LTC6811.c **** 	bool dataValid = true;
 1690              		.loc 1 202 7 view .LVU612
 1691 002a 0AF10703 		add	r3, r10, #7
 1692 002e 03F4FC73 		and	r3, r3, #504
 1693 0032 ADEB030D 		sub	sp, sp, r3
 1694 0036 E946     		mov	r9, sp
 1695              	.LVL121:
 203:Src/LTC6811.c **** 
 1696              		.loc 1 203 2 is_stmt 1 view .LVU613
 205:Src/LTC6811.c **** 
 1697              		.loc 1 205 2 view .LVU614
 1698              	.LBB10:
 205:Src/LTC6811.c **** 
 1699              		.loc 1 205 7 view .LVU615
 205:Src/LTC6811.c **** 
 1700              		.loc 1 205 15 is_stmt 0 view .LVU616
 1701 0038 4FF00008 		mov	r8, #0
 205:Src/LTC6811.c **** 
 1702              		.loc 1 205 2 view .LVU617
 1703 003c 47E0     		b	.L62
 1704              	.LVL122:
 1705              	.L72:
 217:Src/LTC6811.c **** 		bmsData[(board * cfg.numOfCellsPerIC) + 0][3] = (uint8_t) (boardVoltage[0] & 0xFF); //cell 1, vol
 1706              		.loc 1 217 3 is_stmt 1 discriminator 2 view .LVU618
 217:Src/LTC6811.c **** 		bmsData[(board * cfg.numOfCellsPerIC) + 0][3] = (uint8_t) (boardVoltage[0] & 0xFF); //cell 1, vol
 1707              		.loc 1 217 75 is_stmt 0 discriminator 2 view .LVU619
 1708 003e 3188     		ldrh	r1, [r6]
 1709              	.LVL123:
 217:Src/LTC6811.c **** 		bmsData[(board * cfg.numOfCellsPerIC) + 0][3] = (uint8_t) (boardVoltage[0] & 0xFF); //cell 1, vol
 1710              		.loc 1 217 18 discriminator 2 view .LVU620
 1711 0040 03FB05F3 		mul	r3, r3, r5
 217:Src/LTC6811.c **** 		bmsData[(board * cfg.numOfCellsPerIC) + 0][3] = (uint8_t) (boardVoltage[0] & 0xFF); //cell 1, vol
 1712              		.loc 1 217 10 discriminator 2 view .LVU621
 1713 0044 03EB4300 		add	r0, r3, r3, lsl #1
 1714 0048 4200     		lsls	r2, r0, #1
 1715 004a A018     		adds	r0, r4, r2
 217:Src/LTC6811.c **** 		bmsData[(board * cfg.numOfCellsPerIC) + 0][3] = (uint8_t) (boardVoltage[0] & 0xFF); //cell 1, vol
 1716              		.loc 1 217 51 discriminator 2 view .LVU622
 1717 004c 090A     		lsrs	r1, r1, #8
 217:Src/LTC6811.c **** 		bmsData[(board * cfg.numOfCellsPerIC) + 0][3] = (uint8_t) (boardVoltage[0] & 0xFF); //cell 1, vol
 1718              		.loc 1 217 49 discriminator 2 view .LVU623
ARM GAS  C:\cygwin64\tmp\cc7JEtnh.s 			page 52


 1719 004e 8170     		strb	r1, [r0, #2]
 218:Src/LTC6811.c **** 		bmsData[(board * cfg.numOfCellsPerIC) + 1][2] = (uint8_t) ((boardVoltage[1] >> 8) & 0xFF); //cell
 1720              		.loc 1 218 3 is_stmt 1 discriminator 2 view .LVU624
 218:Src/LTC6811.c **** 		bmsData[(board * cfg.numOfCellsPerIC) + 1][2] = (uint8_t) ((boardVoltage[1] >> 8) & 0xFF); //cell
 1721              		.loc 1 218 51 is_stmt 0 discriminator 2 view .LVU625
 1722 0050 3178     		ldrb	r1, [r6]	@ zero_extendqisi2
 218:Src/LTC6811.c **** 		bmsData[(board * cfg.numOfCellsPerIC) + 1][2] = (uint8_t) ((boardVoltage[1] >> 8) & 0xFF); //cell
 1723              		.loc 1 218 49 discriminator 2 view .LVU626
 1724 0052 C170     		strb	r1, [r0, #3]
 219:Src/LTC6811.c **** 		bmsData[(board * cfg.numOfCellsPerIC) + 1][3] = (uint8_t) (boardVoltage[1] & 0xFF); //cell 2, vol
 1725              		.loc 1 219 3 is_stmt 1 discriminator 2 view .LVU627
 219:Src/LTC6811.c **** 		bmsData[(board * cfg.numOfCellsPerIC) + 1][3] = (uint8_t) (boardVoltage[1] & 0xFF); //cell 2, vol
 1726              		.loc 1 219 75 is_stmt 0 discriminator 2 view .LVU628
 1727 0054 7088     		ldrh	r0, [r6, #2]
 219:Src/LTC6811.c **** 		bmsData[(board * cfg.numOfCellsPerIC) + 1][3] = (uint8_t) (boardVoltage[1] & 0xFF); //cell 2, vol
 1728              		.loc 1 219 10 discriminator 2 view .LVU629
 1729 0056 0133     		adds	r3, r3, #1
 1730 0058 03EB4303 		add	r3, r3, r3, lsl #1
 1731 005c 5900     		lsls	r1, r3, #1
 1732 005e 6318     		adds	r3, r4, r1
 219:Src/LTC6811.c **** 		bmsData[(board * cfg.numOfCellsPerIC) + 1][3] = (uint8_t) (boardVoltage[1] & 0xFF); //cell 2, vol
 1733              		.loc 1 219 51 discriminator 2 view .LVU630
 1734 0060 010A     		lsrs	r1, r0, #8
 219:Src/LTC6811.c **** 		bmsData[(board * cfg.numOfCellsPerIC) + 1][3] = (uint8_t) (boardVoltage[1] & 0xFF); //cell 2, vol
 1735              		.loc 1 219 49 discriminator 2 view .LVU631
 1736 0062 9970     		strb	r1, [r3, #2]
 220:Src/LTC6811.c **** 		bmsData[(board * cfg.numOfCellsPerIC) + 2][2] = (uint8_t) ((boardVoltage[2] >> 8) & 0xFF); //cell
 1737              		.loc 1 220 3 is_stmt 1 discriminator 2 view .LVU632
 220:Src/LTC6811.c **** 		bmsData[(board * cfg.numOfCellsPerIC) + 2][2] = (uint8_t) ((boardVoltage[2] >> 8) & 0xFF); //cell
 1738              		.loc 1 220 51 is_stmt 0 discriminator 2 view .LVU633
 1739 0064 B178     		ldrb	r1, [r6, #2]	@ zero_extendqisi2
 220:Src/LTC6811.c **** 		bmsData[(board * cfg.numOfCellsPerIC) + 2][2] = (uint8_t) ((boardVoltage[2] >> 8) & 0xFF); //cell
 1740              		.loc 1 220 49 discriminator 2 view .LVU634
 1741 0066 D970     		strb	r1, [r3, #3]
 221:Src/LTC6811.c **** 		bmsData[(board * cfg.numOfCellsPerIC) + 2][3] = (uint8_t) (boardVoltage[2] & 0xFF); //cell 3, vol
 1742              		.loc 1 221 3 is_stmt 1 discriminator 2 view .LVU635
 221:Src/LTC6811.c **** 		bmsData[(board * cfg.numOfCellsPerIC) + 2][3] = (uint8_t) (boardVoltage[2] & 0xFF); //cell 3, vol
 1743              		.loc 1 221 75 is_stmt 0 discriminator 2 view .LVU636
 1744 0068 B188     		ldrh	r1, [r6, #4]
 221:Src/LTC6811.c **** 		bmsData[(board * cfg.numOfCellsPerIC) + 2][3] = (uint8_t) (boardVoltage[2] & 0xFF); //cell 3, vol
 1745              		.loc 1 221 10 discriminator 2 view .LVU637
 1746 006a 02F10C03 		add	r3, r2, #12
 1747 006e 2344     		add	r3, r3, r4
 221:Src/LTC6811.c **** 		bmsData[(board * cfg.numOfCellsPerIC) + 2][3] = (uint8_t) (boardVoltage[2] & 0xFF); //cell 3, vol
 1748              		.loc 1 221 51 discriminator 2 view .LVU638
 1749 0070 090A     		lsrs	r1, r1, #8
 221:Src/LTC6811.c **** 		bmsData[(board * cfg.numOfCellsPerIC) + 2][3] = (uint8_t) (boardVoltage[2] & 0xFF); //cell 3, vol
 1750              		.loc 1 221 49 discriminator 2 view .LVU639
 1751 0072 9970     		strb	r1, [r3, #2]
 222:Src/LTC6811.c **** 		bmsData[(board * cfg.numOfCellsPerIC) + 3][2] = (uint8_t) ((boardVoltage[3] >> 8) & 0xFF); //cell
 1752              		.loc 1 222 3 is_stmt 1 discriminator 2 view .LVU640
 222:Src/LTC6811.c **** 		bmsData[(board * cfg.numOfCellsPerIC) + 3][2] = (uint8_t) ((boardVoltage[3] >> 8) & 0xFF); //cell
 1753              		.loc 1 222 51 is_stmt 0 discriminator 2 view .LVU641
 1754 0074 3179     		ldrb	r1, [r6, #4]	@ zero_extendqisi2
 222:Src/LTC6811.c **** 		bmsData[(board * cfg.numOfCellsPerIC) + 3][2] = (uint8_t) ((boardVoltage[3] >> 8) & 0xFF); //cell
 1755              		.loc 1 222 49 discriminator 2 view .LVU642
 1756 0076 D970     		strb	r1, [r3, #3]
ARM GAS  C:\cygwin64\tmp\cc7JEtnh.s 			page 53


 223:Src/LTC6811.c **** 		bmsData[(board * cfg.numOfCellsPerIC) + 3][3] = (uint8_t) (boardVoltage[3] & 0xFF); //cell 4, vol
 1757              		.loc 1 223 3 is_stmt 1 discriminator 2 view .LVU643
 223:Src/LTC6811.c **** 		bmsData[(board * cfg.numOfCellsPerIC) + 3][3] = (uint8_t) (boardVoltage[3] & 0xFF); //cell 4, vol
 1758              		.loc 1 223 75 is_stmt 0 discriminator 2 view .LVU644
 1759 0078 F188     		ldrh	r1, [r6, #6]
 223:Src/LTC6811.c **** 		bmsData[(board * cfg.numOfCellsPerIC) + 3][3] = (uint8_t) (boardVoltage[3] & 0xFF); //cell 4, vol
 1760              		.loc 1 223 10 discriminator 2 view .LVU645
 1761 007a 02F11203 		add	r3, r2, #18
 1762 007e 2344     		add	r3, r3, r4
 223:Src/LTC6811.c **** 		bmsData[(board * cfg.numOfCellsPerIC) + 3][3] = (uint8_t) (boardVoltage[3] & 0xFF); //cell 4, vol
 1763              		.loc 1 223 51 discriminator 2 view .LVU646
 1764 0080 090A     		lsrs	r1, r1, #8
 223:Src/LTC6811.c **** 		bmsData[(board * cfg.numOfCellsPerIC) + 3][3] = (uint8_t) (boardVoltage[3] & 0xFF); //cell 4, vol
 1765              		.loc 1 223 49 discriminator 2 view .LVU647
 1766 0082 9970     		strb	r1, [r3, #2]
 224:Src/LTC6811.c **** 		bmsData[(board * cfg.numOfCellsPerIC) + 4][2] = (uint8_t) ((boardVoltage[6] >> 8) & 0xFF); //cell
 1767              		.loc 1 224 3 is_stmt 1 discriminator 2 view .LVU648
 224:Src/LTC6811.c **** 		bmsData[(board * cfg.numOfCellsPerIC) + 4][2] = (uint8_t) ((boardVoltage[6] >> 8) & 0xFF); //cell
 1768              		.loc 1 224 51 is_stmt 0 discriminator 2 view .LVU649
 1769 0084 B179     		ldrb	r1, [r6, #6]	@ zero_extendqisi2
 224:Src/LTC6811.c **** 		bmsData[(board * cfg.numOfCellsPerIC) + 4][2] = (uint8_t) ((boardVoltage[6] >> 8) & 0xFF); //cell
 1770              		.loc 1 224 49 discriminator 2 view .LVU650
 1771 0086 D970     		strb	r1, [r3, #3]
 225:Src/LTC6811.c **** 		bmsData[(board * cfg.numOfCellsPerIC) + 4][3] = (uint8_t) (boardVoltage[6] & 0xFF); //cell 7, vol
 1772              		.loc 1 225 3 is_stmt 1 discriminator 2 view .LVU651
 225:Src/LTC6811.c **** 		bmsData[(board * cfg.numOfCellsPerIC) + 4][3] = (uint8_t) (boardVoltage[6] & 0xFF); //cell 7, vol
 1773              		.loc 1 225 75 is_stmt 0 discriminator 2 view .LVU652
 1774 0088 B189     		ldrh	r1, [r6, #12]
 225:Src/LTC6811.c **** 		bmsData[(board * cfg.numOfCellsPerIC) + 4][3] = (uint8_t) (boardVoltage[6] & 0xFF); //cell 7, vol
 1775              		.loc 1 225 10 discriminator 2 view .LVU653
 1776 008a 02F11803 		add	r3, r2, #24
 1777 008e 2344     		add	r3, r3, r4
 225:Src/LTC6811.c **** 		bmsData[(board * cfg.numOfCellsPerIC) + 4][3] = (uint8_t) (boardVoltage[6] & 0xFF); //cell 7, vol
 1778              		.loc 1 225 51 discriminator 2 view .LVU654
 1779 0090 090A     		lsrs	r1, r1, #8
 225:Src/LTC6811.c **** 		bmsData[(board * cfg.numOfCellsPerIC) + 4][3] = (uint8_t) (boardVoltage[6] & 0xFF); //cell 7, vol
 1780              		.loc 1 225 49 discriminator 2 view .LVU655
 1781 0092 9970     		strb	r1, [r3, #2]
 226:Src/LTC6811.c **** 		bmsData[(board * cfg.numOfCellsPerIC) + 5][2] = (uint8_t) ((boardVoltage[7] >> 8) & 0xFF); //cell
 1782              		.loc 1 226 3 is_stmt 1 discriminator 2 view .LVU656
 226:Src/LTC6811.c **** 		bmsData[(board * cfg.numOfCellsPerIC) + 5][2] = (uint8_t) ((boardVoltage[7] >> 8) & 0xFF); //cell
 1783              		.loc 1 226 51 is_stmt 0 discriminator 2 view .LVU657
 1784 0094 317B     		ldrb	r1, [r6, #12]	@ zero_extendqisi2
 226:Src/LTC6811.c **** 		bmsData[(board * cfg.numOfCellsPerIC) + 5][2] = (uint8_t) ((boardVoltage[7] >> 8) & 0xFF); //cell
 1785              		.loc 1 226 49 discriminator 2 view .LVU658
 1786 0096 D970     		strb	r1, [r3, #3]
 227:Src/LTC6811.c **** 		bmsData[(board * cfg.numOfCellsPerIC) + 5][3] = (uint8_t) (boardVoltage[7] & 0xFF); //cell 8, vol
 1787              		.loc 1 227 3 is_stmt 1 discriminator 2 view .LVU659
 227:Src/LTC6811.c **** 		bmsData[(board * cfg.numOfCellsPerIC) + 5][3] = (uint8_t) (boardVoltage[7] & 0xFF); //cell 8, vol
 1788              		.loc 1 227 75 is_stmt 0 discriminator 2 view .LVU660
 1789 0098 F189     		ldrh	r1, [r6, #14]
 227:Src/LTC6811.c **** 		bmsData[(board * cfg.numOfCellsPerIC) + 5][3] = (uint8_t) (boardVoltage[7] & 0xFF); //cell 8, vol
 1790              		.loc 1 227 10 discriminator 2 view .LVU661
 1791 009a 02F11E03 		add	r3, r2, #30
 1792 009e 2344     		add	r3, r3, r4
 227:Src/LTC6811.c **** 		bmsData[(board * cfg.numOfCellsPerIC) + 5][3] = (uint8_t) (boardVoltage[7] & 0xFF); //cell 8, vol
 1793              		.loc 1 227 51 discriminator 2 view .LVU662
ARM GAS  C:\cygwin64\tmp\cc7JEtnh.s 			page 54


 1794 00a0 090A     		lsrs	r1, r1, #8
 227:Src/LTC6811.c **** 		bmsData[(board * cfg.numOfCellsPerIC) + 5][3] = (uint8_t) (boardVoltage[7] & 0xFF); //cell 8, vol
 1795              		.loc 1 227 49 discriminator 2 view .LVU663
 1796 00a2 9970     		strb	r1, [r3, #2]
 228:Src/LTC6811.c **** 		bmsData[(board * cfg.numOfCellsPerIC) + 6][2] = (uint8_t) ((boardVoltage[8] >> 8) & 0xFF); //cell
 1797              		.loc 1 228 3 is_stmt 1 discriminator 2 view .LVU664
 228:Src/LTC6811.c **** 		bmsData[(board * cfg.numOfCellsPerIC) + 6][2] = (uint8_t) ((boardVoltage[8] >> 8) & 0xFF); //cell
 1798              		.loc 1 228 51 is_stmt 0 discriminator 2 view .LVU665
 1799 00a4 B17B     		ldrb	r1, [r6, #14]	@ zero_extendqisi2
 228:Src/LTC6811.c **** 		bmsData[(board * cfg.numOfCellsPerIC) + 6][2] = (uint8_t) ((boardVoltage[8] >> 8) & 0xFF); //cell
 1800              		.loc 1 228 49 discriminator 2 view .LVU666
 1801 00a6 D970     		strb	r1, [r3, #3]
 229:Src/LTC6811.c **** 		bmsData[(board * cfg.numOfCellsPerIC) + 6][3] = (uint8_t) (boardVoltage[8] & 0xFF); //cell 9, vol
 1802              		.loc 1 229 3 is_stmt 1 discriminator 2 view .LVU667
 229:Src/LTC6811.c **** 		bmsData[(board * cfg.numOfCellsPerIC) + 6][3] = (uint8_t) (boardVoltage[8] & 0xFF); //cell 9, vol
 1803              		.loc 1 229 75 is_stmt 0 discriminator 2 view .LVU668
 1804 00a8 318A     		ldrh	r1, [r6, #16]
 229:Src/LTC6811.c **** 		bmsData[(board * cfg.numOfCellsPerIC) + 6][3] = (uint8_t) (boardVoltage[8] & 0xFF); //cell 9, vol
 1805              		.loc 1 229 10 discriminator 2 view .LVU669
 1806 00aa 02F12403 		add	r3, r2, #36
 1807 00ae 2344     		add	r3, r3, r4
 229:Src/LTC6811.c **** 		bmsData[(board * cfg.numOfCellsPerIC) + 6][3] = (uint8_t) (boardVoltage[8] & 0xFF); //cell 9, vol
 1808              		.loc 1 229 51 discriminator 2 view .LVU670
 1809 00b0 090A     		lsrs	r1, r1, #8
 229:Src/LTC6811.c **** 		bmsData[(board * cfg.numOfCellsPerIC) + 6][3] = (uint8_t) (boardVoltage[8] & 0xFF); //cell 9, vol
 1810              		.loc 1 229 49 discriminator 2 view .LVU671
 1811 00b2 9970     		strb	r1, [r3, #2]
 230:Src/LTC6811.c **** 		bmsData[(board * cfg.numOfCellsPerIC) + 7][2] = (uint8_t) ((boardVoltage[9] >> 8) & 0xFF); //cell
 1812              		.loc 1 230 3 is_stmt 1 discriminator 2 view .LVU672
 230:Src/LTC6811.c **** 		bmsData[(board * cfg.numOfCellsPerIC) + 7][2] = (uint8_t) ((boardVoltage[9] >> 8) & 0xFF); //cell
 1813              		.loc 1 230 51 is_stmt 0 discriminator 2 view .LVU673
 1814 00b4 317C     		ldrb	r1, [r6, #16]	@ zero_extendqisi2
 230:Src/LTC6811.c **** 		bmsData[(board * cfg.numOfCellsPerIC) + 7][2] = (uint8_t) ((boardVoltage[9] >> 8) & 0xFF); //cell
 1815              		.loc 1 230 49 discriminator 2 view .LVU674
 1816 00b6 D970     		strb	r1, [r3, #3]
 231:Src/LTC6811.c **** 		bmsData[(board * cfg.numOfCellsPerIC) + 7][3] = (uint8_t) (boardVoltage[9] & 0xFF); //cell 10, vo
 1817              		.loc 1 231 3 is_stmt 1 discriminator 2 view .LVU675
 231:Src/LTC6811.c **** 		bmsData[(board * cfg.numOfCellsPerIC) + 7][3] = (uint8_t) (boardVoltage[9] & 0xFF); //cell 10, vo
 1818              		.loc 1 231 75 is_stmt 0 discriminator 2 view .LVU676
 1819 00b8 738A     		ldrh	r3, [r6, #18]
 231:Src/LTC6811.c **** 		bmsData[(board * cfg.numOfCellsPerIC) + 7][3] = (uint8_t) (boardVoltage[9] & 0xFF); //cell 10, vo
 1820              		.loc 1 231 10 discriminator 2 view .LVU677
 1821 00ba 2A32     		adds	r2, r2, #42
 1822 00bc 2244     		add	r2, r2, r4
 231:Src/LTC6811.c **** 		bmsData[(board * cfg.numOfCellsPerIC) + 7][3] = (uint8_t) (boardVoltage[9] & 0xFF); //cell 10, vo
 1823              		.loc 1 231 51 discriminator 2 view .LVU678
 1824 00be 1B0A     		lsrs	r3, r3, #8
 231:Src/LTC6811.c **** 		bmsData[(board * cfg.numOfCellsPerIC) + 7][3] = (uint8_t) (boardVoltage[9] & 0xFF); //cell 10, vo
 1825              		.loc 1 231 49 discriminator 2 view .LVU679
 1826 00c0 9370     		strb	r3, [r2, #2]
 232:Src/LTC6811.c **** 	
 1827              		.loc 1 232 3 is_stmt 1 discriminator 2 view .LVU680
 232:Src/LTC6811.c **** 	
 1828              		.loc 1 232 51 is_stmt 0 discriminator 2 view .LVU681
 1829 00c2 B37C     		ldrb	r3, [r6, #18]	@ zero_extendqisi2
 232:Src/LTC6811.c **** 	
 1830              		.loc 1 232 49 discriminator 2 view .LVU682
ARM GAS  C:\cygwin64\tmp\cc7JEtnh.s 			page 55


 1831 00c4 D370     		strb	r3, [r2, #3]
 205:Src/LTC6811.c **** 
 1832              		.loc 1 205 53 discriminator 2 view .LVU683
 1833 00c6 08F10108 		add	r8, r8, #1
 1834              	.LVL124:
 205:Src/LTC6811.c **** 
 1835              		.loc 1 205 53 discriminator 2 view .LVU684
 1836 00ca 5FFA88F8 		uxtb	r8, r8
 1837              	.LVL125:
 1838              	.L62:
 205:Src/LTC6811.c **** 
 1839              		.loc 1 205 2 discriminator 1 view .LVU685
 1840 00ce D045     		cmp	r8, r10
 1841 00d0 27D2     		bcs	.L71
 208:Src/LTC6811.c **** 
 1842              		.loc 1 208 3 is_stmt 1 view .LVU686
 208:Src/LTC6811.c **** 
 1843              		.loc 1 208 22 is_stmt 0 view .LVU687
 1844 00d2 4546     		mov	r5, r8
 1845 00d4 07F12003 		add	r3, r7, #32
 1846 00d8 4344     		add	r3, r3, r8
 1847 00da 3146     		mov	r1, r6
 1848 00dc 5878     		ldrb	r0, [r3, #1]	@ zero_extendqisi2
 1849 00de FFF7FEFF 		bl	readCellVoltage
 1850              	.LVL126:
 208:Src/LTC6811.c **** 
 1851              		.loc 1 208 20 view .LVU688
 1852 00e2 09F80800 		strb	r0, [r9, r8]
 211:Src/LTC6811.c **** 			bmsData[(board * cfg.numOfCellsPerIC) + cell][0] = (uint8_t) ((board * cfg.numOfCellsPerIC) + ce
 1853              		.loc 1 211 3 is_stmt 1 view .LVU689
 1854              	.LBB11:
 211:Src/LTC6811.c **** 			bmsData[(board * cfg.numOfCellsPerIC) + cell][0] = (uint8_t) ((board * cfg.numOfCellsPerIC) + ce
 1855              		.loc 1 211 8 view .LVU690
 1856              	.LVL127:
 211:Src/LTC6811.c **** 			bmsData[(board * cfg.numOfCellsPerIC) + cell][0] = (uint8_t) ((board * cfg.numOfCellsPerIC) + ce
 1857              		.loc 1 211 16 is_stmt 0 view .LVU691
 1858 00e6 0021     		movs	r1, #0
 1859              	.LVL128:
 1860              	.L63:
 211:Src/LTC6811.c **** 			bmsData[(board * cfg.numOfCellsPerIC) + cell][0] = (uint8_t) ((board * cfg.numOfCellsPerIC) + ce
 1861              		.loc 1 211 36 discriminator 1 view .LVU692
 1862 00e8 97F84230 		ldrb	r3, [r7, #66]	@ zero_extendqisi2
 211:Src/LTC6811.c **** 			bmsData[(board * cfg.numOfCellsPerIC) + cell][0] = (uint8_t) ((board * cfg.numOfCellsPerIC) + ce
 1863              		.loc 1 211 3 discriminator 1 view .LVU693
 1864 00ec 9942     		cmp	r1, r3
 1865 00ee A6D2     		bcs	.L72
 212:Src/LTC6811.c **** 			bmsData[(board * cfg.numOfCellsPerIC) + cell][1] = (uint8_t) (0x02 & (PEC_check[board] << 1)); /
 1866              		.loc 1 212 4 is_stmt 1 discriminator 3 view .LVU694
 212:Src/LTC6811.c **** 			bmsData[(board * cfg.numOfCellsPerIC) + cell][1] = (uint8_t) (0x02 & (PEC_check[board] << 1)); /
 1867              		.loc 1 212 73 is_stmt 0 discriminator 3 view .LVU695
 1868 00f0 03FB08F2 		mul	r2, r3, r8
 1869 00f4 D2B2     		uxtb	r2, r2
 212:Src/LTC6811.c **** 			bmsData[(board * cfg.numOfCellsPerIC) + cell][1] = (uint8_t) (0x02 & (PEC_check[board] << 1)); /
 1870              		.loc 1 212 96 discriminator 3 view .LVU696
 1871 00f6 0A44     		add	r2, r2, r1
 1872 00f8 D2B2     		uxtb	r2, r2
 212:Src/LTC6811.c **** 			bmsData[(board * cfg.numOfCellsPerIC) + cell][1] = (uint8_t) (0x02 & (PEC_check[board] << 1)); /
ARM GAS  C:\cygwin64\tmp\cc7JEtnh.s 			page 56


 1873              		.loc 1 212 42 discriminator 3 view .LVU697
 1874 00fa 03FB0513 		mla	r3, r3, r5, r1
 212:Src/LTC6811.c **** 			bmsData[(board * cfg.numOfCellsPerIC) + cell][1] = (uint8_t) (0x02 & (PEC_check[board] << 1)); /
 1875              		.loc 1 212 11 discriminator 3 view .LVU698
 1876 00fe 03EB4303 		add	r3, r3, r3, lsl #1
 1877 0102 4FEA430C 		lsl	ip, r3, #1
 1878 0106 04EB0C00 		add	r0, r4, ip
 212:Src/LTC6811.c **** 			bmsData[(board * cfg.numOfCellsPerIC) + cell][1] = (uint8_t) (0x02 & (PEC_check[board] << 1)); /
 1879              		.loc 1 212 55 discriminator 3 view .LVU699
 1880 010a 531C     		adds	r3, r2, #1
 212:Src/LTC6811.c **** 			bmsData[(board * cfg.numOfCellsPerIC) + cell][1] = (uint8_t) (0x02 & (PEC_check[board] << 1)); /
 1881              		.loc 1 212 53 discriminator 3 view .LVU700
 1882 010c 04F80C30 		strb	r3, [r4, ip]
 213:Src/LTC6811.c **** 		}
 1883              		.loc 1 213 4 is_stmt 1 discriminator 3 view .LVU701
 213:Src/LTC6811.c **** 		}
 1884              		.loc 1 213 83 is_stmt 0 discriminator 3 view .LVU702
 1885 0110 19F80530 		ldrb	r3, [r9, r5]	@ zero_extendqisi2
 213:Src/LTC6811.c **** 		}
 1886              		.loc 1 213 91 discriminator 3 view .LVU703
 1887 0114 5B00     		lsls	r3, r3, #1
 213:Src/LTC6811.c **** 		}
 1888              		.loc 1 213 55 discriminator 3 view .LVU704
 1889 0116 03F00203 		and	r3, r3, #2
 213:Src/LTC6811.c **** 		}
 1890              		.loc 1 213 53 discriminator 3 view .LVU705
 1891 011a 4370     		strb	r3, [r0, #1]
 211:Src/LTC6811.c **** 			bmsData[(board * cfg.numOfCellsPerIC) + cell][0] = (uint8_t) ((board * cfg.numOfCellsPerIC) + ce
 1892              		.loc 1 211 58 discriminator 3 view .LVU706
 1893 011c 0131     		adds	r1, r1, #1
 1894              	.LVL129:
 211:Src/LTC6811.c **** 			bmsData[(board * cfg.numOfCellsPerIC) + cell][0] = (uint8_t) ((board * cfg.numOfCellsPerIC) + ce
 1895              		.loc 1 211 58 discriminator 3 view .LVU707
 1896 011e C9B2     		uxtb	r1, r1
 1897              	.LVL130:
 211:Src/LTC6811.c **** 			bmsData[(board * cfg.numOfCellsPerIC) + cell][0] = (uint8_t) ((board * cfg.numOfCellsPerIC) + ce
 1898              		.loc 1 211 58 discriminator 3 view .LVU708
 1899 0120 E2E7     		b	.L63
 1900              	.LVL131:
 1901              	.L71:
 211:Src/LTC6811.c **** 			bmsData[(board * cfg.numOfCellsPerIC) + cell][0] = (uint8_t) ((board * cfg.numOfCellsPerIC) + ce
 1902              		.loc 1 211 58 discriminator 3 view .LVU709
 1903              	.LBE11:
 1904              	.LBE10:
 1905              	.LBB12:
 236:Src/LTC6811.c **** 		if (PEC_check[board] == 0)
 1906              		.loc 1 236 15 view .LVU710
 1907 0122 0023     		movs	r3, #0
 1908              	.LBE12:
 203:Src/LTC6811.c **** 
 1909              		.loc 1 203 7 view .LVU711
 1910 0124 0120     		movs	r0, #1
 1911 0126 01E0     		b	.L66
 1912              	.LVL132:
 1913              	.L67:
 1914              	.LBB13:
 236:Src/LTC6811.c **** 		if (PEC_check[board] == 0)
ARM GAS  C:\cygwin64\tmp\cc7JEtnh.s 			page 57


 1915              		.loc 1 236 53 discriminator 2 view .LVU712
 1916 0128 0133     		adds	r3, r3, #1
 1917              	.LVL133:
 236:Src/LTC6811.c **** 		if (PEC_check[board] == 0)
 1918              		.loc 1 236 53 discriminator 2 view .LVU713
 1919 012a DBB2     		uxtb	r3, r3
 1920              	.LVL134:
 1921              	.L66:
 236:Src/LTC6811.c **** 		if (PEC_check[board] == 0)
 1922              		.loc 1 236 2 discriminator 1 view .LVU714
 1923 012c 5345     		cmp	r3, r10
 1924 012e 05D2     		bcs	.L73
 237:Src/LTC6811.c **** 			dataValid = false;
 1925              		.loc 1 237 3 is_stmt 1 view .LVU715
 237:Src/LTC6811.c **** 			dataValid = false;
 1926              		.loc 1 237 16 is_stmt 0 view .LVU716
 1927 0130 19F80320 		ldrb	r2, [r9, r3]	@ zero_extendqisi2
 237:Src/LTC6811.c **** 			dataValid = false;
 1928              		.loc 1 237 6 view .LVU717
 1929 0134 002A     		cmp	r2, #0
 1930 0136 F7D1     		bne	.L67
 238:Src/LTC6811.c **** 	}
 1931              		.loc 1 238 14 view .LVU718
 1932 0138 1046     		mov	r0, r2
 1933              	.LVL135:
 238:Src/LTC6811.c **** 	}
 1934              		.loc 1 238 14 view .LVU719
 1935 013a F5E7     		b	.L67
 1936              	.LVL136:
 1937              	.L73:
 238:Src/LTC6811.c **** 	}
 1938              		.loc 1 238 14 view .LVU720
 1939              	.LBE13:
 242:Src/LTC6811.c **** 
 1940              		.loc 1 242 1 view .LVU721
 1941 013c BD46     		mov	sp, r7
 1942              	.LCFI35:
 1943              		.cfi_def_cfa_register 13
 1944              		@ sp needed
 1945 013e BDE8F047 		pop	{r4, r5, r6, r7, r8, r9, r10, lr}
 1946              	.LCFI36:
 1947              		.cfi_restore 14
 1948              		.cfi_restore 10
 1949              		.cfi_restore 9
 1950              		.cfi_restore 8
 1951              		.cfi_restore 7
 1952              		.cfi_restore 6
 1953              		.cfi_restore 5
 1954              		.cfi_restore 4
 1955              		.cfi_def_cfa_offset 16
 1956              	.LVL137:
 242:Src/LTC6811.c **** 
 1957              		.loc 1 242 1 view .LVU722
 1958 0142 04B0     		add	sp, sp, #16
 1959              	.LCFI37:
 1960              		.cfi_def_cfa_offset 0
 1961 0144 7047     		bx	lr
ARM GAS  C:\cygwin64\tmp\cc7JEtnh.s 			page 58


 1962              		.cfi_endproc
 1963              	.LFE70:
 1965              		.section	.text.checkAllCellConnections,"ax",%progbits
 1966              		.align	1
 1967              		.global	checkAllCellConnections
 1968              		.syntax unified
 1969              		.thumb
 1970              		.thumb_func
 1971              		.fpu softvfp
 1973              	checkAllCellConnections:
 1974              	.LVL138:
 1975              	.LFB74:
 380:Src/LTC6811.c **** 	
 1976              		.loc 1 380 82 is_stmt 1 view -0
 1977              		.cfi_startproc
 1978              		@ args = 100, pretend = 16, frame = 0
 1979              		@ frame_needed = 1, uses_anonymous_args = 0
 380:Src/LTC6811.c **** 	
 1980              		.loc 1 380 82 is_stmt 0 view .LVU724
 1981 0000 84B0     		sub	sp, sp, #16
 1982              	.LCFI38:
 1983              		.cfi_def_cfa_offset 16
 1984 0002 2DE9F041 		push	{r4, r5, r6, r7, r8, lr}
 1985              	.LCFI39:
 1986              		.cfi_def_cfa_offset 40
 1987              		.cfi_offset 4, -40
 1988              		.cfi_offset 5, -36
 1989              		.cfi_offset 6, -32
 1990              		.cfi_offset 7, -28
 1991              		.cfi_offset 8, -24
 1992              		.cfi_offset 14, -20
 1993 0006 00AF     		add	r7, sp, #0
 1994              	.LCFI40:
 1995              		.cfi_def_cfa_register 7
 1996 0008 07F11804 		add	r4, r7, #24
 1997 000c 84E80F00 		stm	r4, {r0, r1, r2, r3}
 1998 0010 BE6F     		ldr	r6, [r7, #120]
 382:Src/LTC6811.c **** 	uint16_t cellVoltage;
 1999              		.loc 1 382 2 is_stmt 1 view .LVU725
 382:Src/LTC6811.c **** 	uint16_t cellVoltage;
 2000              		.loc 1 382 26 is_stmt 0 view .LVU726
 2001 0012 97F83930 		ldrb	r3, [r7, #57]	@ zero_extendqisi2
 2002              	.LVL139:
 382:Src/LTC6811.c **** 	uint16_t cellVoltage;
 2003              		.loc 1 382 11 view .LVU727
 2004 0016 5B00     		lsls	r3, r3, #1
 2005              	.LVL140:
 382:Src/LTC6811.c **** 	uint16_t cellVoltage;
 2006              		.loc 1 382 11 view .LVU728
 2007 0018 0733     		adds	r3, r3, #7
 2008 001a 03F47E73 		and	r3, r3, #1016
 2009 001e ADEB030D 		sub	sp, sp, r3
 2010 0022 6C46     		mov	r4, sp
 2011              	.LVL141:
 383:Src/LTC6811.c **** 	bool disconnect = false;
 2012              		.loc 1 383 2 is_stmt 1 view .LVU729
 384:Src/LTC6811.c **** 
ARM GAS  C:\cygwin64\tmp\cc7JEtnh.s 			page 59


 2013              		.loc 1 384 2 view .LVU730
 387:Src/LTC6811.c **** 	sendBroadcastCommand(StartOpenWireConversionPulldown);
 2014              		.loc 1 387 2 view .LVU731
 2015 0024 40F22920 		movw	r0, #553
 2016 0028 FFF7FEFF 		bl	sendBroadcastCommand
 2017              	.LVL142:
 388:Src/LTC6811.c **** 	sendBroadcastCommand(StartOpenWireConversionPulldown);
 2018              		.loc 1 388 2 view .LVU732
 2019 002c 40F22920 		movw	r0, #553
 2020 0030 FFF7FEFF 		bl	sendBroadcastCommand
 2021              	.LVL143:
 389:Src/LTC6811.c **** 	sendBroadcastCommand(StartOpenWireConversionPulldown);
 2022              		.loc 1 389 2 view .LVU733
 2023 0034 40F22920 		movw	r0, #553
 2024 0038 FFF7FEFF 		bl	sendBroadcastCommand
 2025              	.LVL144:
 390:Src/LTC6811.c **** 	sendBroadcastCommand(StartOpenWireConversionPulldown);
 2026              		.loc 1 390 2 view .LVU734
 2027 003c 40F22920 		movw	r0, #553
 2028 0040 FFF7FEFF 		bl	sendBroadcastCommand
 2029              	.LVL145:
 391:Src/LTC6811.c **** 
 2030              		.loc 1 391 2 view .LVU735
 2031 0044 40F22920 		movw	r0, #553
 2032 0048 FFF7FEFF 		bl	sendBroadcastCommand
 2033              	.LVL146:
 393:Src/LTC6811.c **** 
 2034              		.loc 1 393 2 view .LVU736
 2035 004c 0F20     		movs	r0, #15
 2036 004e FFF7FEFF 		bl	HAL_Delay
 2037              	.LVL147:
 395:Src/LTC6811.c **** 
 2038              		.loc 1 395 2 view .LVU737
 2039              	.LBB14:
 395:Src/LTC6811.c **** 
 2040              		.loc 1 395 7 view .LVU738
 395:Src/LTC6811.c **** 
 2041              		.loc 1 395 15 is_stmt 0 view .LVU739
 2042 0052 4FF00008 		mov	r8, #0
 395:Src/LTC6811.c **** 
 2043              		.loc 1 395 2 view .LVU740
 2044 0056 23E0     		b	.L75
 2045              	.LVL148:
 2046              	.L77:
 2047              	.LBB15:
 409:Src/LTC6811.c **** 		}
 2048              		.loc 1 409 5 is_stmt 1 view .LVU741
 409:Src/LTC6811.c **** 		}
 2049              		.loc 1 409 54 is_stmt 0 view .LVU742
 2050 0058 5A78     		ldrb	r2, [r3, #1]	@ zero_extendqisi2
 2051 005a 42F00102 		orr	r2, r2, #1
 2052 005e 5A70     		strb	r2, [r3, #1]
 2053              	.LVL149:
 2054              	.L78:
 399:Src/LTC6811.c **** 
 2055              		.loc 1 399 58 discriminator 2 view .LVU743
 2056 0060 0131     		adds	r1, r1, #1
ARM GAS  C:\cygwin64\tmp\cc7JEtnh.s 			page 60


 2057              	.LVL150:
 399:Src/LTC6811.c **** 
 2058              		.loc 1 399 58 discriminator 2 view .LVU744
 2059 0062 C9B2     		uxtb	r1, r1
 2060              	.LVL151:
 2061              	.L76:
 399:Src/LTC6811.c **** 
 2062              		.loc 1 399 36 discriminator 1 view .LVU745
 2063 0064 97F83A30 		ldrb	r3, [r7, #58]	@ zero_extendqisi2
 399:Src/LTC6811.c **** 
 2064              		.loc 1 399 3 discriminator 1 view .LVU746
 2065 0068 9942     		cmp	r1, r3
 2066 006a 15D2     		bcs	.L82
 401:Src/LTC6811.c **** 			cellVoltage = (uint16_t) (bmsData[(board * cfg.numOfCellsPerIC) + cell][2]);
 2067              		.loc 1 401 4 is_stmt 1 view .LVU747
 2068              	.LVL152:
 402:Src/LTC6811.c **** 			cellVoltage = cellVoltage << 8;
 2069              		.loc 1 402 4 view .LVU748
 402:Src/LTC6811.c **** 			cellVoltage = cellVoltage << 8;
 2070              		.loc 1 402 68 is_stmt 0 view .LVU749
 2071 006c 03FB0513 		mla	r3, r3, r5, r1
 402:Src/LTC6811.c **** 			cellVoltage = cellVoltage << 8;
 2072              		.loc 1 402 37 view .LVU750
 2073 0070 03EB4303 		add	r3, r3, r3, lsl #1
 2074 0074 5A00     		lsls	r2, r3, #1
 2075 0076 B318     		adds	r3, r6, r2
 402:Src/LTC6811.c **** 			cellVoltage = cellVoltage << 8;
 2076              		.loc 1 402 16 view .LVU751
 2077 0078 9878     		ldrb	r0, [r3, #2]	@ zero_extendqisi2
 2078              	.LVL153:
 403:Src/LTC6811.c **** 			cellVoltage += (uint16_t) (bmsData[(board * cfg.numOfCellsPerIC) + cell][3]);
 2079              		.loc 1 403 4 is_stmt 1 view .LVU752
 404:Src/LTC6811.c **** 
 2080              		.loc 1 404 4 view .LVU753
 404:Src/LTC6811.c **** 
 2081              		.loc 1 404 76 is_stmt 0 view .LVU754
 2082 007a DA78     		ldrb	r2, [r3, #3]	@ zero_extendqisi2
 404:Src/LTC6811.c **** 
 2083              		.loc 1 404 16 view .LVU755
 2084 007c 02EB0022 		add	r2, r2, r0, lsl #8
 2085 0080 92B2     		uxth	r2, r2
 2086              	.LVL154:
 406:Src/LTC6811.c **** 				bmsData[(board * cfg.numOfCellsPerIC) + cell][1] &= 0xFE;
 2087              		.loc 1 406 4 is_stmt 1 view .LVU756
 406:Src/LTC6811.c **** 				bmsData[(board * cfg.numOfCellsPerIC) + cell][1] &= 0xFE;
 2088              		.loc 1 406 34 is_stmt 0 view .LVU757
 2089 0082 34F81100 		ldrh	r0, [r4, r1, lsl #1]
 406:Src/LTC6811.c **** 				bmsData[(board * cfg.numOfCellsPerIC) + cell][1] &= 0xFE;
 2090              		.loc 1 406 21 view .LVU758
 2091 0086 121A     		subs	r2, r2, r0
 2092              	.LVL155:
 406:Src/LTC6811.c **** 				bmsData[(board * cfg.numOfCellsPerIC) + cell][1] &= 0xFE;
 2093              		.loc 1 406 7 view .LVU759
 2094 0088 B2F57A7F 		cmp	r2, #1000
 2095 008c E4DD     		ble	.L77
 407:Src/LTC6811.c **** 			else
 2096              		.loc 1 407 5 is_stmt 1 view .LVU760
ARM GAS  C:\cygwin64\tmp\cc7JEtnh.s 			page 61


 407:Src/LTC6811.c **** 			else
 2097              		.loc 1 407 54 is_stmt 0 view .LVU761
 2098 008e 5A78     		ldrb	r2, [r3, #1]	@ zero_extendqisi2
 2099 0090 22F00102 		bic	r2, r2, #1
 2100 0094 5A70     		strb	r2, [r3, #1]
 2101 0096 E3E7     		b	.L78
 2102              	.LVL156:
 2103              	.L82:
 407:Src/LTC6811.c **** 			else
 2104              		.loc 1 407 54 view .LVU762
 2105              	.LBE15:
 395:Src/LTC6811.c **** 
 2106              		.loc 1 395 53 discriminator 2 view .LVU763
 2107 0098 08F10108 		add	r8, r8, #1
 2108              	.LVL157:
 395:Src/LTC6811.c **** 
 2109              		.loc 1 395 53 discriminator 2 view .LVU764
 2110 009c 5FFA88F8 		uxtb	r8, r8
 2111              	.LVL158:
 2112              	.L75:
 395:Src/LTC6811.c **** 
 2113              		.loc 1 395 37 discriminator 1 view .LVU765
 2114 00a0 3B7E     		ldrb	r3, [r7, #24]	@ zero_extendqisi2
 395:Src/LTC6811.c **** 
 2115              		.loc 1 395 2 discriminator 1 view .LVU766
 2116 00a2 9845     		cmp	r8, r3
 2117 00a4 09D2     		bcs	.L83
 397:Src/LTC6811.c **** 
 2118              		.loc 1 397 3 is_stmt 1 view .LVU767
 2119 00a6 4546     		mov	r5, r8
 2120 00a8 07F11803 		add	r3, r7, #24
 2121 00ac 4344     		add	r3, r3, r8
 2122 00ae 2146     		mov	r1, r4
 2123 00b0 5878     		ldrb	r0, [r3, #1]	@ zero_extendqisi2
 2124 00b2 FFF7FEFF 		bl	readCellVoltage
 2125              	.LVL159:
 399:Src/LTC6811.c **** 
 2126              		.loc 1 399 3 view .LVU768
 2127              	.LBB16:
 399:Src/LTC6811.c **** 
 2128              		.loc 1 399 8 view .LVU769
 399:Src/LTC6811.c **** 
 2129              		.loc 1 399 16 is_stmt 0 view .LVU770
 2130 00b6 0021     		movs	r1, #0
 399:Src/LTC6811.c **** 
 2131              		.loc 1 399 3 view .LVU771
 2132 00b8 D4E7     		b	.L76
 2133              	.LVL160:
 2134              	.L83:
 399:Src/LTC6811.c **** 
 2135              		.loc 1 399 3 view .LVU772
 2136              	.LBE16:
 2137              	.LBE14:
 413:Src/LTC6811.c **** }
 2138              		.loc 1 413 2 is_stmt 1 view .LVU773
 414:Src/LTC6811.c **** 
 2139              		.loc 1 414 1 is_stmt 0 view .LVU774
ARM GAS  C:\cygwin64\tmp\cc7JEtnh.s 			page 62


 2140 00ba 0020     		movs	r0, #0
 2141 00bc BD46     		mov	sp, r7
 2142              	.LCFI41:
 2143              		.cfi_def_cfa_register 13
 2144              		@ sp needed
 2145 00be BDE8F041 		pop	{r4, r5, r6, r7, r8, lr}
 2146              	.LCFI42:
 2147              		.cfi_restore 14
 2148              		.cfi_restore 8
 2149              		.cfi_restore 7
 2150              		.cfi_restore 6
 2151              		.cfi_restore 5
 2152              		.cfi_restore 4
 2153              		.cfi_def_cfa_offset 16
 2154              	.LVL161:
 414:Src/LTC6811.c **** 
 2155              		.loc 1 414 1 view .LVU775
 2156 00c2 04B0     		add	sp, sp, #16
 2157              	.LCFI43:
 2158              		.cfi_def_cfa_offset 0
 2159 00c4 7047     		bx	lr
 2160              		.cfi_endproc
 2161              	.LFE74:
 2163              		.global	__aeabi_ui2d
 2164              		.global	__aeabi_ddiv
 2165              		.global	__aeabi_dmul
 2166              		.global	__aeabi_dsub
 2167              		.global	__aeabi_dadd
 2168              		.global	__aeabi_d2uiz
 2169              		.section	.text.readCellTemp,"ax",%progbits
 2170              		.align	1
 2171              		.global	readCellTemp
 2172              		.syntax unified
 2173              		.thumb
 2174              		.thumb_func
 2175              		.fpu softvfp
 2177              	readCellTemp:
 2178              	.LVL162:
 2179              	.LFB71:
 244:Src/LTC6811.c **** 	
 2180              		.loc 1 244 94 is_stmt 1 view -0
 2181              		.cfi_startproc
 2182              		@ args = 0, pretend = 0, frame = 16
 2183              		@ frame_needed = 0, uses_anonymous_args = 0
 244:Src/LTC6811.c **** 	
 2184              		.loc 1 244 94 is_stmt 0 view .LVU777
 2185 0000 2DE9F04F 		push	{r4, r5, r6, r7, r8, r9, r10, fp, lr}
 2186              	.LCFI44:
 2187              		.cfi_def_cfa_offset 36
 2188              		.cfi_offset 4, -36
 2189              		.cfi_offset 5, -32
 2190              		.cfi_offset 6, -28
 2191              		.cfi_offset 7, -24
 2192              		.cfi_offset 8, -20
 2193              		.cfi_offset 9, -16
 2194              		.cfi_offset 10, -12
 2195              		.cfi_offset 11, -8
ARM GAS  C:\cygwin64\tmp\cc7JEtnh.s 			page 63


 2196              		.cfi_offset 14, -4
 2197 0004 85B0     		sub	sp, sp, #20
 2198              	.LCFI45:
 2199              		.cfi_def_cfa_offset 56
 2200 0006 0446     		mov	r4, r0
 2201 0008 8B46     		mov	fp, r1
 2202 000a 1646     		mov	r6, r2
 2203 000c 1F46     		mov	r7, r3
 246:Src/LTC6811.c **** 	bool dataValid = true;
 2204              		.loc 1 246 2 is_stmt 1 view .LVU778
 2205              	.LVL163:
 247:Src/LTC6811.c **** 	uint16_t *temp;
 2206              		.loc 1 247 2 view .LVU779
 248:Src/LTC6811.c **** 	double dummy[4];
 2207              		.loc 1 248 2 view .LVU780
 249:Src/LTC6811.c **** 	double conversion[4];
 2208              		.loc 1 249 2 view .LVU781
 250:Src/LTC6811.c **** 	
 2209              		.loc 1 250 2 view .LVU782
 252:Src/LTC6811.c **** 	
 2210              		.loc 1 252 2 view .LVU783
 252:Src/LTC6811.c **** 	
 2211              		.loc 1 252 21 is_stmt 0 view .LVU784
 2212 000e 0820     		movs	r0, #8
 2213              	.LVL164:
 252:Src/LTC6811.c **** 	
 2214              		.loc 1 252 21 view .LVU785
 2215 0010 FFF7FEFF 		bl	malloc
 2216              	.LVL165:
 252:Src/LTC6811.c **** 	
 2217              		.loc 1 252 21 view .LVU786
 2218 0014 8246     		mov	r10, r0
 2219              	.LVL166:
 254:Src/LTC6811.c **** 	
 2220              		.loc 1 254 2 is_stmt 1 view .LVU787
 2221 0016 2146     		mov	r1, r4
 2222 0018 4FF48C60 		mov	r0, #1120
 2223              	.LVL167:
 254:Src/LTC6811.c **** 	
 2224              		.loc 1 254 2 is_stmt 0 view .LVU788
 2225 001c FFF7FEFF 		bl	sendAddressCommand
 2226              	.LVL168:
 256:Src/LTC6811.c **** 	
 2227              		.loc 1 256 2 is_stmt 1 view .LVU789
 2228 0020 0F20     		movs	r0, #15
 2229 0022 FFF7FEFF 		bl	HAL_Delay
 2230              	.LVL169:
 258:Src/LTC6811.c **** 	//dataValid = dataValid & PEC_check;
 2231              		.loc 1 258 2 view .LVU790
 258:Src/LTC6811.c **** 	//dataValid = dataValid & PEC_check;
 2232              		.loc 1 258 14 is_stmt 0 view .LVU791
 2233 0026 5246     		mov	r2, r10
 2234 0028 2146     		mov	r1, r4
 2235 002a 0C20     		movs	r0, #12
 2236 002c FFF7FEFF 		bl	readRegister
 2237              	.LVL170:
 260:Src/LTC6811.c **** 	dataValid = dataValid & PEC_check;
ARM GAS  C:\cygwin64\tmp\cc7JEtnh.s 			page 64


 2238              		.loc 1 260 2 is_stmt 1 view .LVU792
 260:Src/LTC6811.c **** 	dataValid = dataValid & PEC_check;
 2239              		.loc 1 260 14 is_stmt 0 view .LVU793
 2240 0030 5246     		mov	r2, r10
 2241 0032 2146     		mov	r1, r4
 2242 0034 0E20     		movs	r0, #14
 2243 0036 FFF7FEFF 		bl	readRegister
 2244              	.LVL171:
 2245 003a 0546     		mov	r5, r0
 2246              	.LVL172:
 261:Src/LTC6811.c **** 	PEC_check = readRegister(ReadAuxiliaryGroupA, address, temp);
 2247              		.loc 1 261 2 is_stmt 1 view .LVU794
 262:Src/LTC6811.c **** 	dataValid = dataValid & PEC_check;
 2248              		.loc 1 262 2 view .LVU795
 262:Src/LTC6811.c **** 	dataValid = dataValid & PEC_check;
 2249              		.loc 1 262 14 is_stmt 0 view .LVU796
 2250 003c 5246     		mov	r2, r10
 2251 003e 2146     		mov	r1, r4
 2252 0040 0C20     		movs	r0, #12
 2253 0042 FFF7FEFF 		bl	readRegister
 2254              	.LVL173:
 263:Src/LTC6811.c **** 	
 2255              		.loc 1 263 2 is_stmt 1 view .LVU797
 2256 0046 2840     		ands	r0, r0, r5
 2257              	.LVL174:
 263:Src/LTC6811.c **** 	
 2258              		.loc 1 263 2 is_stmt 0 view .LVU798
 2259 0048 C3B2     		uxtb	r3, r0
 2260 004a 0393     		str	r3, [sp, #12]
 2261              	.LVL175:
 265:Src/LTC6811.c **** 		if ((temp[i] > 24400) || (temp[i] < 13000)) {
 2262              		.loc 1 265 2 is_stmt 1 view .LVU799
 2263              	.LBB17:
 265:Src/LTC6811.c **** 		if ((temp[i] > 24400) || (temp[i] < 13000)) {
 2264              		.loc 1 265 7 view .LVU800
 265:Src/LTC6811.c **** 		if ((temp[i] > 24400) || (temp[i] < 13000)) {
 2265              		.loc 1 265 15 is_stmt 0 view .LVU801
 2266 004c 0025     		movs	r5, #0
 265:Src/LTC6811.c **** 		if ((temp[i] > 24400) || (temp[i] < 13000)) {
 2267              		.loc 1 265 2 view .LVU802
 2268 004e 10E0     		b	.L85
 2269              	.LVL176:
 2270              	.L86:
 271:Src/LTC6811.c **** 		
 2271              		.loc 1 271 4 is_stmt 1 view .LVU803
 271:Src/LTC6811.c **** 		
 2272              		.loc 1 271 15 is_stmt 0 view .LVU804
 2273 0050 0023     		movs	r3, #0
 2274 0052 7355     		strb	r3, [r6, r5]
 2275 0054 21E0     		b	.L87
 2276              	.L88:
 278:Src/LTC6811.c **** 		
 2277              		.loc 1 278 4 is_stmt 1 view .LVU805
 278:Src/LTC6811.c **** 		
 2278              		.loc 1 278 17 is_stmt 0 view .LVU806
 2279 0056 0023     		movs	r3, #0
 2280 0058 BB54     		strb	r3, [r7, r2]
ARM GAS  C:\cygwin64\tmp\cc7JEtnh.s 			page 65


 2281              	.L89:
 280:Src/LTC6811.c **** 			dummy[i] = (double) temp[i] / 10000; // convert from ADC value to voltage
 2282              		.loc 1 280 3 is_stmt 1 view .LVU807
 280:Src/LTC6811.c **** 			dummy[i] = (double) temp[i] / 10000; // convert from ADC value to voltage
 2283              		.loc 1 280 12 is_stmt 0 view .LVU808
 2284 005a 3AF80400 		ldrh	r0, [r10, r4]
 280:Src/LTC6811.c **** 			dummy[i] = (double) temp[i] / 10000; // convert from ADC value to voltage
 2285              		.loc 1 280 26 view .LVU809
 2286 005e A0F56B53 		sub	r3, r0, #15040
 2287 0062 3C3B     		subs	r3, r3, #60
 2288 0064 9BB2     		uxth	r3, r3
 280:Src/LTC6811.c **** 			dummy[i] = (double) temp[i] / 10000; // convert from ADC value to voltage
 2289              		.loc 1 280 6 view .LVU810
 2290 0066 42F25442 		movw	r2, #9300
 2291 006a 9342     		cmp	r3, r2
 2292 006c 26D9     		bls	.L93
 2293              	.L90:
 265:Src/LTC6811.c **** 		if ((temp[i] > 24400) || (temp[i] < 13000)) {
 2294              		.loc 1 265 30 discriminator 2 view .LVU811
 2295 006e 0135     		adds	r5, r5, #1
 2296              	.LVL177:
 265:Src/LTC6811.c **** 		if ((temp[i] > 24400) || (temp[i] < 13000)) {
 2297              		.loc 1 265 30 discriminator 2 view .LVU812
 2298 0070 EDB2     		uxtb	r5, r5
 2299              	.LVL178:
 2300              	.L85:
 265:Src/LTC6811.c **** 		if ((temp[i] > 24400) || (temp[i] < 13000)) {
 2301              		.loc 1 265 2 discriminator 1 view .LVU813
 2302 0072 032D     		cmp	r5, #3
 2303 0074 00F2A480 		bhi	.L94
 266:Src/LTC6811.c **** 			dcFault[i] = true;
 2304              		.loc 1 266 3 is_stmt 1 view .LVU814
 266:Src/LTC6811.c **** 			dcFault[i] = true;
 2305              		.loc 1 266 12 is_stmt 0 view .LVU815
 2306 0078 2A46     		mov	r2, r5
 2307 007a 6C00     		lsls	r4, r5, #1
 2308 007c 3AF81530 		ldrh	r3, [r10, r5, lsl #1]
 266:Src/LTC6811.c **** 			dcFault[i] = true;
 2309              		.loc 1 266 25 view .LVU816
 2310 0080 A3F54B53 		sub	r3, r3, #12992
 2311 0084 083B     		subs	r3, r3, #8
 2312 0086 9BB2     		uxth	r3, r3
 266:Src/LTC6811.c **** 			dcFault[i] = true;
 2313              		.loc 1 266 6 view .LVU817
 2314 0088 42F68841 		movw	r1, #11400
 2315 008c 8B42     		cmp	r3, r1
 2316 008e DFD9     		bls	.L86
 267:Src/LTC6811.c **** 			cellTemp[i] = 0x0000;
 2317              		.loc 1 267 4 is_stmt 1 view .LVU818
 267:Src/LTC6811.c **** 			cellTemp[i] = 0x0000;
 2318              		.loc 1 267 15 is_stmt 0 view .LVU819
 2319 0090 0123     		movs	r3, #1
 2320 0092 7355     		strb	r3, [r6, r5]
 268:Src/LTC6811.c **** 		}
 2321              		.loc 1 268 4 is_stmt 1 view .LVU820
 268:Src/LTC6811.c **** 		}
 2322              		.loc 1 268 16 is_stmt 0 view .LVU821
ARM GAS  C:\cygwin64\tmp\cc7JEtnh.s 			page 66


 2323 0094 0023     		movs	r3, #0
 2324 0096 2BF81530 		strh	r3, [fp, r5, lsl #1]	@ movhi
 2325              	.L87:
 273:Src/LTC6811.c **** 			tempFault[i] = true;
 2326              		.loc 1 273 3 is_stmt 1 view .LVU822
 273:Src/LTC6811.c **** 			tempFault[i] = true;
 2327              		.loc 1 273 12 is_stmt 0 view .LVU823
 2328 009a 3AF80430 		ldrh	r3, [r10, r4]
 273:Src/LTC6811.c **** 			tempFault[i] = true;
 2329              		.loc 1 273 26 view .LVU824
 2330 009e A3F54B53 		sub	r3, r3, #12992
 2331 00a2 083B     		subs	r3, r3, #8
 2332 00a4 9BB2     		uxth	r3, r3
 273:Src/LTC6811.c **** 			tempFault[i] = true;
 2333              		.loc 1 273 6 view .LVU825
 2334 00a6 40F63301 		movw	r1, #2099
 2335 00aa 8B42     		cmp	r3, r1
 2336 00ac D3D8     		bhi	.L88
 274:Src/LTC6811.c **** 			cellTemp[i] = 0xFFFF;
 2337              		.loc 1 274 4 is_stmt 1 view .LVU826
 274:Src/LTC6811.c **** 			cellTemp[i] = 0xFFFF;
 2338              		.loc 1 274 17 is_stmt 0 view .LVU827
 2339 00ae 0123     		movs	r3, #1
 2340 00b0 BB54     		strb	r3, [r7, r2]
 275:Src/LTC6811.c **** 		}
 2341              		.loc 1 275 4 is_stmt 1 view .LVU828
 275:Src/LTC6811.c **** 		}
 2342              		.loc 1 275 16 is_stmt 0 view .LVU829
 2343 00b2 4FF6FF73 		movw	r3, #65535
 2344 00b6 2BF80430 		strh	r3, [fp, r4]	@ movhi
 2345 00ba CEE7     		b	.L89
 2346              	.L93:
 281:Src/LTC6811.c **** 			// convert from voltage to temperature
 2347              		.loc 1 281 4 is_stmt 1 view .LVU830
 281:Src/LTC6811.c **** 			// convert from voltage to temperature
 2348              		.loc 1 281 15 is_stmt 0 view .LVU831
 2349 00bc FFF7FEFF 		bl	__aeabi_ui2d
 2350              	.LVL179:
 281:Src/LTC6811.c **** 			// convert from voltage to temperature
 2351              		.loc 1 281 32 view .LVU832
 2352 00c0 43A3     		adr	r3, .L95
 2353 00c2 D3E90023 		ldrd	r2, [r3]
 2354 00c6 FFF7FEFF 		bl	__aeabi_ddiv
 2355              	.LVL180:
 2356 00ca CDE90001 		strd	r0, [sp]
 283:Src/LTC6811.c **** 			conversion[i] = 500 * (conversion[i] + 20); // map value to larger range
 2357              		.loc 1 283 4 is_stmt 1 view .LVU833
 283:Src/LTC6811.c **** 			conversion[i] = 500 * (conversion[i] + 20); // map value to larger range
 2358              		.loc 1 283 35 is_stmt 0 view .LVU834
 2359 00ce 42A3     		adr	r3, .L95+8
 2360 00d0 D3E90023 		ldrd	r2, [r3]
 2361 00d4 FFF7FEFF 		bl	__aeabi_dmul
 2362              	.LVL181:
 283:Src/LTC6811.c **** 			conversion[i] = 500 * (conversion[i] + 20); // map value to larger range
 2363              		.loc 1 283 26 view .LVU835
 2364 00d8 0246     		mov	r2, r0
 2365 00da 0B46     		mov	r3, r1
ARM GAS  C:\cygwin64\tmp\cc7JEtnh.s 			page 67


 2366 00dc 40A1     		adr	r1, .L95+16
 2367 00de D1E90001 		ldrd	r0, [r1]
 2368 00e2 FFF7FEFF 		bl	__aeabi_dsub
 2369              	.LVL182:
 2370 00e6 8046     		mov	r8, r0
 2371 00e8 8946     		mov	r9, r1
 283:Src/LTC6811.c **** 			conversion[i] = 500 * (conversion[i] + 20); // map value to larger range
 2372              		.loc 1 283 57 view .LVU836
 2373 00ea 0022     		movs	r2, #0
 2374 00ec 4FF08043 		mov	r3, #1073741824
 2375 00f0 DDE90001 		ldrd	r0, [sp]
 2376 00f4 FFF7FEFF 		bl	pow
 2377              	.LVL183:
 283:Src/LTC6811.c **** 			conversion[i] = 500 * (conversion[i] + 20); // map value to larger range
 2378              		.loc 1 283 55 view .LVU837
 2379 00f8 3BA3     		adr	r3, .L95+24
 2380 00fa D3E90023 		ldrd	r2, [r3]
 2381 00fe FFF7FEFF 		bl	__aeabi_dmul
 2382              	.LVL184:
 283:Src/LTC6811.c **** 			conversion[i] = 500 * (conversion[i] + 20); // map value to larger range
 2383              		.loc 1 283 46 view .LVU838
 2384 0102 0246     		mov	r2, r0
 2385 0104 0B46     		mov	r3, r1
 2386 0106 4046     		mov	r0, r8
 2387 0108 4946     		mov	r1, r9
 2388 010a FFF7FEFF 		bl	__aeabi_dadd
 2389              	.LVL185:
 2390 010e 8046     		mov	r8, r0
 2391 0110 8946     		mov	r9, r1
 283:Src/LTC6811.c **** 			conversion[i] = 500 * (conversion[i] + 20); // map value to larger range
 2392              		.loc 1 283 84 view .LVU839
 2393 0112 0022     		movs	r2, #0
 2394 0114 3E4B     		ldr	r3, .L95+64
 2395 0116 DDE90001 		ldrd	r0, [sp]
 2396 011a FFF7FEFF 		bl	pow
 2397              	.LVL186:
 283:Src/LTC6811.c **** 			conversion[i] = 500 * (conversion[i] + 20); // map value to larger range
 2398              		.loc 1 283 82 view .LVU840
 2399 011e 34A3     		adr	r3, .L95+32
 2400 0120 D3E90023 		ldrd	r2, [r3]
 2401 0124 FFF7FEFF 		bl	__aeabi_dmul
 2402              	.LVL187:
 283:Src/LTC6811.c **** 			conversion[i] = 500 * (conversion[i] + 20); // map value to larger range
 2403              		.loc 1 283 74 view .LVU841
 2404 0128 0246     		mov	r2, r0
 2405 012a 0B46     		mov	r3, r1
 2406 012c 4046     		mov	r0, r8
 2407 012e 4946     		mov	r1, r9
 2408 0130 FFF7FEFF 		bl	__aeabi_dsub
 2409              	.LVL188:
 2410 0134 8046     		mov	r8, r0
 2411 0136 8946     		mov	r9, r1
 283:Src/LTC6811.c **** 			conversion[i] = 500 * (conversion[i] + 20); // map value to larger range
 2412              		.loc 1 283 111 view .LVU842
 2413 0138 0022     		movs	r2, #0
 2414 013a 364B     		ldr	r3, .L95+68
 2415 013c DDE90001 		ldrd	r0, [sp]
ARM GAS  C:\cygwin64\tmp\cc7JEtnh.s 			page 68


 2416 0140 FFF7FEFF 		bl	pow
 2417              	.LVL189:
 283:Src/LTC6811.c **** 			conversion[i] = 500 * (conversion[i] + 20); // map value to larger range
 2418              		.loc 1 283 109 view .LVU843
 2419 0144 2CA3     		adr	r3, .L95+40
 2420 0146 D3E90023 		ldrd	r2, [r3]
 2421 014a FFF7FEFF 		bl	__aeabi_dmul
 2422              	.LVL190:
 283:Src/LTC6811.c **** 			conversion[i] = 500 * (conversion[i] + 20); // map value to larger range
 2423              		.loc 1 283 101 view .LVU844
 2424 014e 0246     		mov	r2, r0
 2425 0150 0B46     		mov	r3, r1
 2426 0152 4046     		mov	r0, r8
 2427 0154 4946     		mov	r1, r9
 2428 0156 FFF7FEFF 		bl	__aeabi_dadd
 2429              	.LVL191:
 2430 015a 8046     		mov	r8, r0
 2431 015c 8946     		mov	r9, r1
 283:Src/LTC6811.c **** 			conversion[i] = 500 * (conversion[i] + 20); // map value to larger range
 2432              		.loc 1 283 137 view .LVU845
 2433 015e 0022     		movs	r2, #0
 2434 0160 2D4B     		ldr	r3, .L95+72
 2435 0162 DDE90001 		ldrd	r0, [sp]
 2436 0166 FFF7FEFF 		bl	pow
 2437              	.LVL192:
 283:Src/LTC6811.c **** 			conversion[i] = 500 * (conversion[i] + 20); // map value to larger range
 2438              		.loc 1 283 135 view .LVU846
 2439 016a 25A3     		adr	r3, .L95+48
 2440 016c D3E90023 		ldrd	r2, [r3]
 2441 0170 FFF7FEFF 		bl	__aeabi_dmul
 2442              	.LVL193:
 283:Src/LTC6811.c **** 			conversion[i] = 500 * (conversion[i] + 20); // map value to larger range
 2443              		.loc 1 283 128 view .LVU847
 2444 0174 0246     		mov	r2, r0
 2445 0176 0B46     		mov	r3, r1
 2446 0178 4046     		mov	r0, r8
 2447 017a 4946     		mov	r1, r9
 2448 017c FFF7FEFF 		bl	__aeabi_dsub
 2449              	.LVL194:
 2450 0180 8046     		mov	r8, r0
 2451 0182 8946     		mov	r9, r1
 283:Src/LTC6811.c **** 			conversion[i] = 500 * (conversion[i] + 20); // map value to larger range
 2452              		.loc 1 283 165 view .LVU848
 2453 0184 0022     		movs	r2, #0
 2454 0186 254B     		ldr	r3, .L95+76
 2455 0188 DDE90001 		ldrd	r0, [sp]
 2456 018c FFF7FEFF 		bl	pow
 2457              	.LVL195:
 283:Src/LTC6811.c **** 			conversion[i] = 500 * (conversion[i] + 20); // map value to larger range
 2458              		.loc 1 283 163 view .LVU849
 2459 0190 1DA3     		adr	r3, .L95+56
 2460 0192 D3E90023 		ldrd	r2, [r3]
 2461 0196 FFF7FEFF 		bl	__aeabi_dmul
 2462              	.LVL196:
 283:Src/LTC6811.c **** 			conversion[i] = 500 * (conversion[i] + 20); // map value to larger range
 2463              		.loc 1 283 154 view .LVU850
 2464 019a 0246     		mov	r2, r0
ARM GAS  C:\cygwin64\tmp\cc7JEtnh.s 			page 69


 2465 019c 0B46     		mov	r3, r1
 2466 019e 4046     		mov	r0, r8
 2467 01a0 4946     		mov	r1, r9
 2468 01a2 FFF7FEFF 		bl	__aeabi_dadd
 2469              	.LVL197:
 284:Src/LTC6811.c **** 			cellTemp[i] = (uint16_t) conversion[i];
 2470              		.loc 1 284 4 is_stmt 1 view .LVU851
 284:Src/LTC6811.c **** 			cellTemp[i] = (uint16_t) conversion[i];
 2471              		.loc 1 284 41 is_stmt 0 view .LVU852
 2472 01a6 0022     		movs	r2, #0
 2473 01a8 1D4B     		ldr	r3, .L95+80
 2474 01aa FFF7FEFF 		bl	__aeabi_dadd
 2475              	.LVL198:
 284:Src/LTC6811.c **** 			cellTemp[i] = (uint16_t) conversion[i];
 2476              		.loc 1 284 24 view .LVU853
 2477 01ae 0022     		movs	r2, #0
 2478 01b0 1C4B     		ldr	r3, .L95+84
 2479 01b2 FFF7FEFF 		bl	__aeabi_dmul
 2480              	.LVL199:
 285:Src/LTC6811.c **** 		}
 2481              		.loc 1 285 4 is_stmt 1 view .LVU854
 285:Src/LTC6811.c **** 		}
 2482              		.loc 1 285 18 is_stmt 0 view .LVU855
 2483 01b6 FFF7FEFF 		bl	__aeabi_d2uiz
 2484              	.LVL200:
 285:Src/LTC6811.c **** 		}
 2485              		.loc 1 285 16 view .LVU856
 2486 01ba 2BF80400 		strh	r0, [fp, r4]	@ movhi
 2487 01be 56E7     		b	.L90
 2488              	.L94:
 285:Src/LTC6811.c **** 		}
 2489              		.loc 1 285 16 view .LVU857
 2490              	.LBE17:
 289:Src/LTC6811.c **** 	
 2491              		.loc 1 289 2 is_stmt 1 view .LVU858
 2492 01c0 5046     		mov	r0, r10
 2493 01c2 FFF7FEFF 		bl	free
 2494              	.LVL201:
 291:Src/LTC6811.c **** 	
 2495              		.loc 1 291 2 view .LVU859
 293:Src/LTC6811.c **** 
 2496              		.loc 1 293 1 is_stmt 0 view .LVU860
 2497 01c6 0398     		ldr	r0, [sp, #12]
 2498 01c8 05B0     		add	sp, sp, #20
 2499              	.LCFI46:
 2500              		.cfi_def_cfa_offset 36
 2501              		@ sp needed
 2502 01ca BDE8F08F 		pop	{r4, r5, r6, r7, r8, r9, r10, fp, pc}
 2503              	.LVL202:
 2504              	.L96:
 293:Src/LTC6811.c **** 
 2505              		.loc 1 293 1 view .LVU861
 2506 01ce 00BF     		.align	3
 2507              	.L95:
 2508 01d0 00000000 		.word	0
 2509 01d4 0088C340 		.word	1086556160
 2510 01d8 00000000 		.word	0
ARM GAS  C:\cygwin64\tmp\cc7JEtnh.s 			page 70


 2511 01dc 30D0FB40 		.word	1090244656
 2512 01e0 00000000 		.word	0
 2513 01e4 E06CE240 		.word	1088580832
 2514 01e8 00000000 		.word	0
 2515 01ec 386A0141 		.word	1090611768
 2516 01f0 00000000 		.word	0
 2517 01f4 1010F740 		.word	1089933328
 2518 01f8 00000000 		.word	0
 2519 01fc E0FDE040 		.word	1088486880
 2520 0200 00000000 		.word	0
 2521 0204 005DBA40 		.word	1085955328
 2522 0208 7B14AE47 		.word	1202590843
 2523 020c E1C88040 		.word	1082181857
 2524 0210 00000840 		.word	1074266112
 2525 0214 00001040 		.word	1074790400
 2526 0218 00001440 		.word	1075052544
 2527 021c 00001840 		.word	1075314688
 2528 0220 00003440 		.word	1077149696
 2529 0224 00407F40 		.word	1082081280
 2530              		.cfi_endproc
 2531              	.LFE71:
 2533              		.section	.text.readAllCellTemps,"ax",%progbits
 2534              		.align	1
 2535              		.global	readAllCellTemps
 2536              		.syntax unified
 2537              		.thumb
 2538              		.thumb_func
 2539              		.fpu softvfp
 2541              	readAllCellTemps:
 2542              	.LVL203:
 2543              	.LFB72:
 295:Src/LTC6811.c **** 
 2544              		.loc 1 295 75 is_stmt 1 view -0
 2545              		.cfi_startproc
 2546              		@ args = 100, pretend = 16, frame = 8
 2547              		@ frame_needed = 1, uses_anonymous_args = 0
 295:Src/LTC6811.c **** 
 2548              		.loc 1 295 75 is_stmt 0 view .LVU863
 2549 0000 84B0     		sub	sp, sp, #16
 2550              	.LCFI47:
 2551              		.cfi_def_cfa_offset 16
 2552 0002 2DE9F04F 		push	{r4, r5, r6, r7, r8, r9, r10, fp, lr}
 2553              	.LCFI48:
 2554              		.cfi_def_cfa_offset 52
 2555              		.cfi_offset 4, -52
 2556              		.cfi_offset 5, -48
 2557              		.cfi_offset 6, -44
 2558              		.cfi_offset 7, -40
 2559              		.cfi_offset 8, -36
 2560              		.cfi_offset 9, -32
 2561              		.cfi_offset 10, -28
 2562              		.cfi_offset 11, -24
 2563              		.cfi_offset 14, -20
 2564 0006 83B0     		sub	sp, sp, #12
 2565              	.LCFI49:
 2566              		.cfi_def_cfa_offset 64
 2567 0008 00AF     		add	r7, sp, #0
ARM GAS  C:\cygwin64\tmp\cc7JEtnh.s 			page 71


 2568              	.LCFI50:
 2569              		.cfi_def_cfa_register 7
 2570 000a 07F13004 		add	r4, r7, #48
 2571 000e 84E80F00 		stm	r4, {r0, r1, r2, r3}
 2572 0012 D7F89060 		ldr	r6, [r7, #144]
 297:Src/LTC6811.c **** 	bool boardDCFault[cfg.numOfTempPerIC];
 2573              		.loc 1 297 2 is_stmt 1 view .LVU864
 297:Src/LTC6811.c **** 	bool boardDCFault[cfg.numOfTempPerIC];
 2574              		.loc 1 297 24 is_stmt 0 view .LVU865
 2575 0016 97F85330 		ldrb	r3, [r7, #83]	@ zero_extendqisi2
 2576              	.LVL204:
 297:Src/LTC6811.c **** 	bool boardDCFault[cfg.numOfTempPerIC];
 2577              		.loc 1 297 11 view .LVU866
 2578 001a 5A00     		lsls	r2, r3, #1
 2579 001c 0732     		adds	r2, r2, #7
 2580 001e 02F47E72 		and	r2, r2, #1016
 2581 0022 ADEB020D 		sub	sp, sp, r2
 2582 0026 6D46     		mov	r5, sp
 2583              	.LVL205:
 298:Src/LTC6811.c **** 	bool boardTempFault[cfg.numOfTempPerIC];
 2584              		.loc 1 298 2 is_stmt 1 view .LVU867
 298:Src/LTC6811.c **** 	bool boardTempFault[cfg.numOfTempPerIC];
 2585              		.loc 1 298 7 is_stmt 0 view .LVU868
 2586 0028 0733     		adds	r3, r3, #7
 2587              	.LVL206:
 298:Src/LTC6811.c **** 	bool boardTempFault[cfg.numOfTempPerIC];
 2588              		.loc 1 298 7 view .LVU869
 2589 002a 03F4FC73 		and	r3, r3, #504
 2590              	.LVL207:
 298:Src/LTC6811.c **** 	bool boardTempFault[cfg.numOfTempPerIC];
 2591              		.loc 1 298 7 view .LVU870
 2592 002e ADEB030D 		sub	sp, sp, r3
 2593 0032 EA46     		mov	r10, sp
 2594              	.LVL208:
 299:Src/LTC6811.c **** 	bool PEC_check[cfg.numOfICs];
 2595              		.loc 1 299 2 is_stmt 1 view .LVU871
 299:Src/LTC6811.c **** 	bool PEC_check[cfg.numOfICs];
 2596              		.loc 1 299 7 is_stmt 0 view .LVU872
 2597 0034 ADEB030D 		sub	sp, sp, r3
 2598 0038 E946     		mov	r9, sp
 2599              	.LVL209:
 300:Src/LTC6811.c **** 	bool dataValid = true;
 2600              		.loc 1 300 2 is_stmt 1 view .LVU873
 300:Src/LTC6811.c **** 	bool dataValid = true;
 2601              		.loc 1 300 20 is_stmt 0 view .LVU874
 2602 003a 97F83030 		ldrb	r3, [r7, #48]	@ zero_extendqisi2
 2603 003e 7B60     		str	r3, [r7, #4]
 2604              	.LVL210:
 300:Src/LTC6811.c **** 	bool dataValid = true;
 2605              		.loc 1 300 7 view .LVU875
 2606 0040 0733     		adds	r3, r3, #7
 2607              	.LVL211:
 300:Src/LTC6811.c **** 	bool dataValid = true;
 2608              		.loc 1 300 7 view .LVU876
 2609 0042 03F4FC73 		and	r3, r3, #504
 2610 0046 ADEB030D 		sub	sp, sp, r3
 2611 004a E846     		mov	r8, sp
ARM GAS  C:\cygwin64\tmp\cc7JEtnh.s 			page 72


 2612              	.LVL212:
 301:Src/LTC6811.c **** 
 2613              		.loc 1 301 2 is_stmt 1 view .LVU877
 303:Src/LTC6811.c **** 
 2614              		.loc 1 303 2 view .LVU878
 2615              	.LBB18:
 303:Src/LTC6811.c **** 
 2616              		.loc 1 303 7 view .LVU879
 303:Src/LTC6811.c **** 
 2617              		.loc 1 303 15 is_stmt 0 view .LVU880
 2618 004c 4FF0000B 		mov	fp, #0
 303:Src/LTC6811.c **** 
 2619              		.loc 1 303 2 view .LVU881
 2620 0050 47E0     		b	.L98
 2621              	.LVL213:
 2622              	.L108:
 316:Src/LTC6811.c **** 		bmsData[(board * cfg.numOfCellsPerIC) + 0][5] = (uint8_t) (boardTemp[0] & 0xFF); //temp1 L
 2623              		.loc 1 316 3 is_stmt 1 discriminator 2 view .LVU882
 316:Src/LTC6811.c **** 		bmsData[(board * cfg.numOfCellsPerIC) + 0][5] = (uint8_t) (boardTemp[0] & 0xFF); //temp1 L
 2624              		.loc 1 316 72 is_stmt 0 discriminator 2 view .LVU883
 2625 0052 2A88     		ldrh	r2, [r5]
 316:Src/LTC6811.c **** 		bmsData[(board * cfg.numOfCellsPerIC) + 0][5] = (uint8_t) (boardTemp[0] & 0xFF); //temp1 L
 2626              		.loc 1 316 18 discriminator 2 view .LVU884
 2627 0054 03FB04F4 		mul	r4, r3, r4
 316:Src/LTC6811.c **** 		bmsData[(board * cfg.numOfCellsPerIC) + 0][5] = (uint8_t) (boardTemp[0] & 0xFF); //temp1 L
 2628              		.loc 1 316 10 discriminator 2 view .LVU885
 2629 0058 04EB4401 		add	r1, r4, r4, lsl #1
 2630              	.LVL214:
 316:Src/LTC6811.c **** 		bmsData[(board * cfg.numOfCellsPerIC) + 0][5] = (uint8_t) (boardTemp[0] & 0xFF); //temp1 L
 2631              		.loc 1 316 10 discriminator 2 view .LVU886
 2632 005c 4B00     		lsls	r3, r1, #1
 2633 005e F118     		adds	r1, r6, r3
 316:Src/LTC6811.c **** 		bmsData[(board * cfg.numOfCellsPerIC) + 0][5] = (uint8_t) (boardTemp[0] & 0xFF); //temp1 L
 2634              		.loc 1 316 51 discriminator 2 view .LVU887
 2635 0060 120A     		lsrs	r2, r2, #8
 316:Src/LTC6811.c **** 		bmsData[(board * cfg.numOfCellsPerIC) + 0][5] = (uint8_t) (boardTemp[0] & 0xFF); //temp1 L
 2636              		.loc 1 316 49 discriminator 2 view .LVU888
 2637 0062 0A71     		strb	r2, [r1, #4]
 317:Src/LTC6811.c **** 		bmsData[(board * cfg.numOfCellsPerIC) + 1][4] = (uint8_t) ((boardTemp[0] >> 8) & 0xFF); //temp1 H
 2638              		.loc 1 317 3 is_stmt 1 discriminator 2 view .LVU889
 317:Src/LTC6811.c **** 		bmsData[(board * cfg.numOfCellsPerIC) + 1][4] = (uint8_t) ((boardTemp[0] >> 8) & 0xFF); //temp1 H
 2639              		.loc 1 317 51 is_stmt 0 discriminator 2 view .LVU890
 2640 0064 2A78     		ldrb	r2, [r5]	@ zero_extendqisi2
 317:Src/LTC6811.c **** 		bmsData[(board * cfg.numOfCellsPerIC) + 1][4] = (uint8_t) ((boardTemp[0] >> 8) & 0xFF); //temp1 H
 2641              		.loc 1 317 49 discriminator 2 view .LVU891
 2642 0066 4A71     		strb	r2, [r1, #5]
 318:Src/LTC6811.c **** 		bmsData[(board * cfg.numOfCellsPerIC) + 1][5] = (uint8_t) (boardTemp[0] & 0xFF); //temp1 L
 2643              		.loc 1 318 3 is_stmt 1 discriminator 2 view .LVU892
 318:Src/LTC6811.c **** 		bmsData[(board * cfg.numOfCellsPerIC) + 1][5] = (uint8_t) (boardTemp[0] & 0xFF); //temp1 L
 2644              		.loc 1 318 72 is_stmt 0 discriminator 2 view .LVU893
 2645 0068 2988     		ldrh	r1, [r5]
 318:Src/LTC6811.c **** 		bmsData[(board * cfg.numOfCellsPerIC) + 1][5] = (uint8_t) (boardTemp[0] & 0xFF); //temp1 L
 2646              		.loc 1 318 10 discriminator 2 view .LVU894
 2647 006a 0134     		adds	r4, r4, #1
 2648 006c 04EB4404 		add	r4, r4, r4, lsl #1
 2649 0070 6200     		lsls	r2, r4, #1
 2650 0072 3244     		add	r2, r2, r6
ARM GAS  C:\cygwin64\tmp\cc7JEtnh.s 			page 73


 318:Src/LTC6811.c **** 		bmsData[(board * cfg.numOfCellsPerIC) + 1][5] = (uint8_t) (boardTemp[0] & 0xFF); //temp1 L
 2651              		.loc 1 318 51 discriminator 2 view .LVU895
 2652 0074 090A     		lsrs	r1, r1, #8
 318:Src/LTC6811.c **** 		bmsData[(board * cfg.numOfCellsPerIC) + 1][5] = (uint8_t) (boardTemp[0] & 0xFF); //temp1 L
 2653              		.loc 1 318 49 discriminator 2 view .LVU896
 2654 0076 1171     		strb	r1, [r2, #4]
 319:Src/LTC6811.c **** 		bmsData[(board * cfg.numOfCellsPerIC) + 2][4] = (uint8_t) ((boardTemp[1] >> 8) & 0xFF); //temp2 H
 2655              		.loc 1 319 3 is_stmt 1 discriminator 2 view .LVU897
 319:Src/LTC6811.c **** 		bmsData[(board * cfg.numOfCellsPerIC) + 2][4] = (uint8_t) ((boardTemp[1] >> 8) & 0xFF); //temp2 H
 2656              		.loc 1 319 51 is_stmt 0 discriminator 2 view .LVU898
 2657 0078 2978     		ldrb	r1, [r5]	@ zero_extendqisi2
 319:Src/LTC6811.c **** 		bmsData[(board * cfg.numOfCellsPerIC) + 2][4] = (uint8_t) ((boardTemp[1] >> 8) & 0xFF); //temp2 H
 2658              		.loc 1 319 49 discriminator 2 view .LVU899
 2659 007a 5171     		strb	r1, [r2, #5]
 320:Src/LTC6811.c **** 		bmsData[(board * cfg.numOfCellsPerIC) + 2][5] = (uint8_t) (boardTemp[1] & 0xFF); //temp2 L
 2660              		.loc 1 320 3 is_stmt 1 discriminator 2 view .LVU900
 320:Src/LTC6811.c **** 		bmsData[(board * cfg.numOfCellsPerIC) + 2][5] = (uint8_t) (boardTemp[1] & 0xFF); //temp2 L
 2661              		.loc 1 320 72 is_stmt 0 discriminator 2 view .LVU901
 2662 007c 6988     		ldrh	r1, [r5, #2]
 320:Src/LTC6811.c **** 		bmsData[(board * cfg.numOfCellsPerIC) + 2][5] = (uint8_t) (boardTemp[1] & 0xFF); //temp2 L
 2663              		.loc 1 320 10 discriminator 2 view .LVU902
 2664 007e 03F10C02 		add	r2, r3, #12
 2665 0082 3244     		add	r2, r2, r6
 320:Src/LTC6811.c **** 		bmsData[(board * cfg.numOfCellsPerIC) + 2][5] = (uint8_t) (boardTemp[1] & 0xFF); //temp2 L
 2666              		.loc 1 320 51 discriminator 2 view .LVU903
 2667 0084 090A     		lsrs	r1, r1, #8
 320:Src/LTC6811.c **** 		bmsData[(board * cfg.numOfCellsPerIC) + 2][5] = (uint8_t) (boardTemp[1] & 0xFF); //temp2 L
 2668              		.loc 1 320 49 discriminator 2 view .LVU904
 2669 0086 1171     		strb	r1, [r2, #4]
 321:Src/LTC6811.c **** 		bmsData[(board * cfg.numOfCellsPerIC) + 3][4] = (uint8_t) ((boardTemp[1] >> 8) & 0xFF); //temp2 H
 2670              		.loc 1 321 3 is_stmt 1 discriminator 2 view .LVU905
 321:Src/LTC6811.c **** 		bmsData[(board * cfg.numOfCellsPerIC) + 3][4] = (uint8_t) ((boardTemp[1] >> 8) & 0xFF); //temp2 H
 2671              		.loc 1 321 51 is_stmt 0 discriminator 2 view .LVU906
 2672 0088 A978     		ldrb	r1, [r5, #2]	@ zero_extendqisi2
 321:Src/LTC6811.c **** 		bmsData[(board * cfg.numOfCellsPerIC) + 3][4] = (uint8_t) ((boardTemp[1] >> 8) & 0xFF); //temp2 H
 2673              		.loc 1 321 49 discriminator 2 view .LVU907
 2674 008a 5171     		strb	r1, [r2, #5]
 322:Src/LTC6811.c **** 		bmsData[(board * cfg.numOfCellsPerIC) + 3][5] = (uint8_t) (boardTemp[1] & 0xFF); //temp2 L
 2675              		.loc 1 322 3 is_stmt 1 discriminator 2 view .LVU908
 322:Src/LTC6811.c **** 		bmsData[(board * cfg.numOfCellsPerIC) + 3][5] = (uint8_t) (boardTemp[1] & 0xFF); //temp2 L
 2676              		.loc 1 322 72 is_stmt 0 discriminator 2 view .LVU909
 2677 008c 6988     		ldrh	r1, [r5, #2]
 322:Src/LTC6811.c **** 		bmsData[(board * cfg.numOfCellsPerIC) + 3][5] = (uint8_t) (boardTemp[1] & 0xFF); //temp2 L
 2678              		.loc 1 322 10 discriminator 2 view .LVU910
 2679 008e 03F11202 		add	r2, r3, #18
 2680 0092 3244     		add	r2, r2, r6
 322:Src/LTC6811.c **** 		bmsData[(board * cfg.numOfCellsPerIC) + 3][5] = (uint8_t) (boardTemp[1] & 0xFF); //temp2 L
 2681              		.loc 1 322 51 discriminator 2 view .LVU911
 2682 0094 090A     		lsrs	r1, r1, #8
 322:Src/LTC6811.c **** 		bmsData[(board * cfg.numOfCellsPerIC) + 3][5] = (uint8_t) (boardTemp[1] & 0xFF); //temp2 L
 2683              		.loc 1 322 49 discriminator 2 view .LVU912
 2684 0096 1171     		strb	r1, [r2, #4]
 323:Src/LTC6811.c **** 		bmsData[(board * cfg.numOfCellsPerIC) + 4][4] = (uint8_t) ((boardTemp[2] >> 8) & 0xFF); //temp3 H
 2685              		.loc 1 323 3 is_stmt 1 discriminator 2 view .LVU913
 323:Src/LTC6811.c **** 		bmsData[(board * cfg.numOfCellsPerIC) + 4][4] = (uint8_t) ((boardTemp[2] >> 8) & 0xFF); //temp3 H
 2686              		.loc 1 323 51 is_stmt 0 discriminator 2 view .LVU914
 2687 0098 A978     		ldrb	r1, [r5, #2]	@ zero_extendqisi2
ARM GAS  C:\cygwin64\tmp\cc7JEtnh.s 			page 74


 323:Src/LTC6811.c **** 		bmsData[(board * cfg.numOfCellsPerIC) + 4][4] = (uint8_t) ((boardTemp[2] >> 8) & 0xFF); //temp3 H
 2688              		.loc 1 323 49 discriminator 2 view .LVU915
 2689 009a 5171     		strb	r1, [r2, #5]
 324:Src/LTC6811.c **** 		bmsData[(board * cfg.numOfCellsPerIC) + 4][5] = (uint8_t) (boardTemp[2] & 0xFF); //temp3 L
 2690              		.loc 1 324 3 is_stmt 1 discriminator 2 view .LVU916
 324:Src/LTC6811.c **** 		bmsData[(board * cfg.numOfCellsPerIC) + 4][5] = (uint8_t) (boardTemp[2] & 0xFF); //temp3 L
 2691              		.loc 1 324 72 is_stmt 0 discriminator 2 view .LVU917
 2692 009c A988     		ldrh	r1, [r5, #4]
 324:Src/LTC6811.c **** 		bmsData[(board * cfg.numOfCellsPerIC) + 4][5] = (uint8_t) (boardTemp[2] & 0xFF); //temp3 L
 2693              		.loc 1 324 10 discriminator 2 view .LVU918
 2694 009e 03F11802 		add	r2, r3, #24
 2695 00a2 3244     		add	r2, r2, r6
 324:Src/LTC6811.c **** 		bmsData[(board * cfg.numOfCellsPerIC) + 4][5] = (uint8_t) (boardTemp[2] & 0xFF); //temp3 L
 2696              		.loc 1 324 51 discriminator 2 view .LVU919
 2697 00a4 090A     		lsrs	r1, r1, #8
 324:Src/LTC6811.c **** 		bmsData[(board * cfg.numOfCellsPerIC) + 4][5] = (uint8_t) (boardTemp[2] & 0xFF); //temp3 L
 2698              		.loc 1 324 49 discriminator 2 view .LVU920
 2699 00a6 1171     		strb	r1, [r2, #4]
 325:Src/LTC6811.c **** 		bmsData[(board * cfg.numOfCellsPerIC) + 5][4] = (uint8_t) ((boardTemp[2] >> 8) & 0xFF); //temp3 H
 2700              		.loc 1 325 3 is_stmt 1 discriminator 2 view .LVU921
 325:Src/LTC6811.c **** 		bmsData[(board * cfg.numOfCellsPerIC) + 5][4] = (uint8_t) ((boardTemp[2] >> 8) & 0xFF); //temp3 H
 2701              		.loc 1 325 51 is_stmt 0 discriminator 2 view .LVU922
 2702 00a8 2979     		ldrb	r1, [r5, #4]	@ zero_extendqisi2
 325:Src/LTC6811.c **** 		bmsData[(board * cfg.numOfCellsPerIC) + 5][4] = (uint8_t) ((boardTemp[2] >> 8) & 0xFF); //temp3 H
 2703              		.loc 1 325 49 discriminator 2 view .LVU923
 2704 00aa 5171     		strb	r1, [r2, #5]
 326:Src/LTC6811.c **** 		bmsData[(board * cfg.numOfCellsPerIC) + 5][5] = (uint8_t) (boardTemp[2] & 0xFF); //temp3 L
 2705              		.loc 1 326 3 is_stmt 1 discriminator 2 view .LVU924
 326:Src/LTC6811.c **** 		bmsData[(board * cfg.numOfCellsPerIC) + 5][5] = (uint8_t) (boardTemp[2] & 0xFF); //temp3 L
 2706              		.loc 1 326 72 is_stmt 0 discriminator 2 view .LVU925
 2707 00ac A988     		ldrh	r1, [r5, #4]
 326:Src/LTC6811.c **** 		bmsData[(board * cfg.numOfCellsPerIC) + 5][5] = (uint8_t) (boardTemp[2] & 0xFF); //temp3 L
 2708              		.loc 1 326 10 discriminator 2 view .LVU926
 2709 00ae 03F11E02 		add	r2, r3, #30
 2710 00b2 3244     		add	r2, r2, r6
 326:Src/LTC6811.c **** 		bmsData[(board * cfg.numOfCellsPerIC) + 5][5] = (uint8_t) (boardTemp[2] & 0xFF); //temp3 L
 2711              		.loc 1 326 51 discriminator 2 view .LVU927
 2712 00b4 090A     		lsrs	r1, r1, #8
 326:Src/LTC6811.c **** 		bmsData[(board * cfg.numOfCellsPerIC) + 5][5] = (uint8_t) (boardTemp[2] & 0xFF); //temp3 L
 2713              		.loc 1 326 49 discriminator 2 view .LVU928
 2714 00b6 1171     		strb	r1, [r2, #4]
 327:Src/LTC6811.c **** 		bmsData[(board * cfg.numOfCellsPerIC) + 6][4] = (uint8_t) ((boardTemp[3] >> 8) & 0xFF); //temp4 H
 2715              		.loc 1 327 3 is_stmt 1 discriminator 2 view .LVU929
 327:Src/LTC6811.c **** 		bmsData[(board * cfg.numOfCellsPerIC) + 6][4] = (uint8_t) ((boardTemp[3] >> 8) & 0xFF); //temp4 H
 2716              		.loc 1 327 51 is_stmt 0 discriminator 2 view .LVU930
 2717 00b8 2979     		ldrb	r1, [r5, #4]	@ zero_extendqisi2
 327:Src/LTC6811.c **** 		bmsData[(board * cfg.numOfCellsPerIC) + 6][4] = (uint8_t) ((boardTemp[3] >> 8) & 0xFF); //temp4 H
 2718              		.loc 1 327 49 discriminator 2 view .LVU931
 2719 00ba 5171     		strb	r1, [r2, #5]
 328:Src/LTC6811.c **** 		bmsData[(board * cfg.numOfCellsPerIC) + 6][5] = (uint8_t) (boardTemp[3] & 0xFF); //temp4 L
 2720              		.loc 1 328 3 is_stmt 1 discriminator 2 view .LVU932
 328:Src/LTC6811.c **** 		bmsData[(board * cfg.numOfCellsPerIC) + 6][5] = (uint8_t) (boardTemp[3] & 0xFF); //temp4 L
 2721              		.loc 1 328 72 is_stmt 0 discriminator 2 view .LVU933
 2722 00bc E988     		ldrh	r1, [r5, #6]
 328:Src/LTC6811.c **** 		bmsData[(board * cfg.numOfCellsPerIC) + 6][5] = (uint8_t) (boardTemp[3] & 0xFF); //temp4 L
 2723              		.loc 1 328 10 discriminator 2 view .LVU934
 2724 00be 03F12402 		add	r2, r3, #36
ARM GAS  C:\cygwin64\tmp\cc7JEtnh.s 			page 75


 2725 00c2 3244     		add	r2, r2, r6
 328:Src/LTC6811.c **** 		bmsData[(board * cfg.numOfCellsPerIC) + 6][5] = (uint8_t) (boardTemp[3] & 0xFF); //temp4 L
 2726              		.loc 1 328 51 discriminator 2 view .LVU935
 2727 00c4 090A     		lsrs	r1, r1, #8
 328:Src/LTC6811.c **** 		bmsData[(board * cfg.numOfCellsPerIC) + 6][5] = (uint8_t) (boardTemp[3] & 0xFF); //temp4 L
 2728              		.loc 1 328 49 discriminator 2 view .LVU936
 2729 00c6 1171     		strb	r1, [r2, #4]
 329:Src/LTC6811.c **** 		bmsData[(board * cfg.numOfCellsPerIC) + 7][4] = (uint8_t) ((boardTemp[3] >> 8) & 0xFF); //temp4 H
 2730              		.loc 1 329 3 is_stmt 1 discriminator 2 view .LVU937
 329:Src/LTC6811.c **** 		bmsData[(board * cfg.numOfCellsPerIC) + 7][4] = (uint8_t) ((boardTemp[3] >> 8) & 0xFF); //temp4 H
 2731              		.loc 1 329 51 is_stmt 0 discriminator 2 view .LVU938
 2732 00c8 A979     		ldrb	r1, [r5, #6]	@ zero_extendqisi2
 329:Src/LTC6811.c **** 		bmsData[(board * cfg.numOfCellsPerIC) + 7][4] = (uint8_t) ((boardTemp[3] >> 8) & 0xFF); //temp4 H
 2733              		.loc 1 329 49 discriminator 2 view .LVU939
 2734 00ca 5171     		strb	r1, [r2, #5]
 330:Src/LTC6811.c **** 		bmsData[(board * cfg.numOfCellsPerIC) + 7][5] = (uint8_t) (boardTemp[3] & 0xFF); //temp4 L
 2735              		.loc 1 330 3 is_stmt 1 discriminator 2 view .LVU940
 330:Src/LTC6811.c **** 		bmsData[(board * cfg.numOfCellsPerIC) + 7][5] = (uint8_t) (boardTemp[3] & 0xFF); //temp4 L
 2736              		.loc 1 330 72 is_stmt 0 discriminator 2 view .LVU941
 2737 00cc EA88     		ldrh	r2, [r5, #6]
 330:Src/LTC6811.c **** 		bmsData[(board * cfg.numOfCellsPerIC) + 7][5] = (uint8_t) (boardTemp[3] & 0xFF); //temp4 L
 2738              		.loc 1 330 10 discriminator 2 view .LVU942
 2739 00ce 2A33     		adds	r3, r3, #42
 2740 00d0 3344     		add	r3, r3, r6
 330:Src/LTC6811.c **** 		bmsData[(board * cfg.numOfCellsPerIC) + 7][5] = (uint8_t) (boardTemp[3] & 0xFF); //temp4 L
 2741              		.loc 1 330 51 discriminator 2 view .LVU943
 2742 00d2 120A     		lsrs	r2, r2, #8
 330:Src/LTC6811.c **** 		bmsData[(board * cfg.numOfCellsPerIC) + 7][5] = (uint8_t) (boardTemp[3] & 0xFF); //temp4 L
 2743              		.loc 1 330 49 discriminator 2 view .LVU944
 2744 00d4 1A71     		strb	r2, [r3, #4]
 331:Src/LTC6811.c **** 	}
 2745              		.loc 1 331 3 is_stmt 1 discriminator 2 view .LVU945
 331:Src/LTC6811.c **** 	}
 2746              		.loc 1 331 51 is_stmt 0 discriminator 2 view .LVU946
 2747 00d6 AA79     		ldrb	r2, [r5, #6]	@ zero_extendqisi2
 331:Src/LTC6811.c **** 	}
 2748              		.loc 1 331 49 discriminator 2 view .LVU947
 2749 00d8 5A71     		strb	r2, [r3, #5]
 303:Src/LTC6811.c **** 
 2750              		.loc 1 303 53 discriminator 2 view .LVU948
 2751 00da 0BF1010B 		add	fp, fp, #1
 2752              	.LVL215:
 303:Src/LTC6811.c **** 
 2753              		.loc 1 303 53 discriminator 2 view .LVU949
 2754 00de 5FFA8BFB 		uxtb	fp, fp
 2755              	.LVL216:
 2756              	.L98:
 303:Src/LTC6811.c **** 
 2757              		.loc 1 303 2 discriminator 1 view .LVU950
 2758 00e2 7B68     		ldr	r3, [r7, #4]
 2759 00e4 9B45     		cmp	fp, r3
 2760 00e6 2DD2     		bcs	.L107
 306:Src/LTC6811.c **** 
 2761              		.loc 1 306 3 is_stmt 1 view .LVU951
 306:Src/LTC6811.c **** 
 2762              		.loc 1 306 22 is_stmt 0 view .LVU952
 2763 00e8 5C46     		mov	r4, fp
ARM GAS  C:\cygwin64\tmp\cc7JEtnh.s 			page 76


 2764 00ea 07F13003 		add	r3, r7, #48
 2765 00ee 03EB0B00 		add	r0, r3, fp
 2766 00f2 4B46     		mov	r3, r9
 2767 00f4 5246     		mov	r2, r10
 2768 00f6 2946     		mov	r1, r5
 2769 00f8 4078     		ldrb	r0, [r0, #1]	@ zero_extendqisi2
 2770 00fa FFF7FEFF 		bl	readCellTemp
 2771              	.LVL217:
 306:Src/LTC6811.c **** 
 2772              		.loc 1 306 20 view .LVU953
 2773 00fe 08F80B00 		strb	r0, [r8, fp]
 309:Src/LTC6811.c **** 			bmsData[(board * cfg.numOfCellsPerIC) + cell][1] &= (PEC_check[board] << 1);
 2774              		.loc 1 309 3 is_stmt 1 view .LVU954
 2775              	.LBB19:
 309:Src/LTC6811.c **** 			bmsData[(board * cfg.numOfCellsPerIC) + cell][1] &= (PEC_check[board] << 1);
 2776              		.loc 1 309 8 view .LVU955
 2777              	.LVL218:
 309:Src/LTC6811.c **** 			bmsData[(board * cfg.numOfCellsPerIC) + cell][1] &= (PEC_check[board] << 1);
 2778              		.loc 1 309 16 is_stmt 0 view .LVU956
 2779 0102 0021     		movs	r1, #0
 2780              	.LVL219:
 2781              	.L99:
 309:Src/LTC6811.c **** 			bmsData[(board * cfg.numOfCellsPerIC) + cell][1] &= (PEC_check[board] << 1);
 2782              		.loc 1 309 36 discriminator 1 view .LVU957
 2783 0104 97F85230 		ldrb	r3, [r7, #82]	@ zero_extendqisi2
 309:Src/LTC6811.c **** 			bmsData[(board * cfg.numOfCellsPerIC) + cell][1] &= (PEC_check[board] << 1);
 2784              		.loc 1 309 3 discriminator 1 view .LVU958
 2785 0108 9942     		cmp	r1, r3
 2786 010a A2D2     		bcs	.L108
 310:Src/LTC6811.c **** 			bmsData[(board * cfg.numOfCellsPerIC) + cell][1] |= (boardTempFault[cell / 2] << 4);
 2787              		.loc 1 310 4 is_stmt 1 discriminator 3 view .LVU959
 310:Src/LTC6811.c **** 			bmsData[(board * cfg.numOfCellsPerIC) + cell][1] |= (boardTempFault[cell / 2] << 4);
 2788              		.loc 1 310 53 is_stmt 0 discriminator 3 view .LVU960
 2789 010c 04FB0313 		mla	r3, r4, r3, r1
 2790 0110 03EB4303 		add	r3, r3, r3, lsl #1
 2791 0114 5A00     		lsls	r2, r3, #1
 2792 0116 3244     		add	r2, r2, r6
 310:Src/LTC6811.c **** 			bmsData[(board * cfg.numOfCellsPerIC) + cell][1] |= (boardTempFault[cell / 2] << 4);
 2793              		.loc 1 310 66 discriminator 3 view .LVU961
 2794 0118 18F80400 		ldrb	r0, [r8, r4]	@ zero_extendqisi2
 310:Src/LTC6811.c **** 			bmsData[(board * cfg.numOfCellsPerIC) + cell][1] |= (boardTempFault[cell / 2] << 4);
 2795              		.loc 1 310 53 discriminator 3 view .LVU962
 2796 011c 5378     		ldrb	r3, [r2, #1]	@ zero_extendqisi2
 2797 011e 03EA4003 		and	r3, r3, r0, lsl #1
 2798 0122 5BB2     		sxtb	r3, r3
 2799 0124 5370     		strb	r3, [r2, #1]
 311:Src/LTC6811.c **** 			bmsData[(board * cfg.numOfCellsPerIC) + cell][1] |= (boardDCFault[cell / 2] >> 3);
 2800              		.loc 1 311 4 is_stmt 1 discriminator 3 view .LVU963
 311:Src/LTC6811.c **** 			bmsData[(board * cfg.numOfCellsPerIC) + cell][1] |= (boardDCFault[cell / 2] >> 3);
 2801              		.loc 1 311 77 is_stmt 0 discriminator 3 view .LVU964
 2802 0126 4808     		lsrs	r0, r1, #1
 311:Src/LTC6811.c **** 			bmsData[(board * cfg.numOfCellsPerIC) + cell][1] |= (boardDCFault[cell / 2] >> 3);
 2803              		.loc 1 311 71 discriminator 3 view .LVU965
 2804 0128 19F800C0 		ldrb	ip, [r9, r0]	@ zero_extendqisi2
 311:Src/LTC6811.c **** 			bmsData[(board * cfg.numOfCellsPerIC) + cell][1] |= (boardDCFault[cell / 2] >> 3);
 2805              		.loc 1 311 53 discriminator 3 view .LVU966
 2806 012c 43EA0C13 		orr	r3, r3, ip, lsl #4
ARM GAS  C:\cygwin64\tmp\cc7JEtnh.s 			page 77


 2807 0130 5BB2     		sxtb	r3, r3
 2808 0132 5370     		strb	r3, [r2, #1]
 312:Src/LTC6811.c **** 		}
 2809              		.loc 1 312 4 is_stmt 1 discriminator 3 view .LVU967
 312:Src/LTC6811.c **** 		}
 2810              		.loc 1 312 69 is_stmt 0 discriminator 3 view .LVU968
 2811 0134 1AF80000 		ldrb	r0, [r10, r0]	@ zero_extendqisi2
 312:Src/LTC6811.c **** 		}
 2812              		.loc 1 312 53 discriminator 3 view .LVU969
 2813 0138 43EAE003 		orr	r3, r3, r0, asr #3
 2814 013c 5370     		strb	r3, [r2, #1]
 309:Src/LTC6811.c **** 			bmsData[(board * cfg.numOfCellsPerIC) + cell][1] &= (PEC_check[board] << 1);
 2815              		.loc 1 309 58 discriminator 3 view .LVU970
 2816 013e 0131     		adds	r1, r1, #1
 2817              	.LVL220:
 309:Src/LTC6811.c **** 			bmsData[(board * cfg.numOfCellsPerIC) + cell][1] &= (PEC_check[board] << 1);
 2818              		.loc 1 309 58 discriminator 3 view .LVU971
 2819 0140 C9B2     		uxtb	r1, r1
 2820              	.LVL221:
 309:Src/LTC6811.c **** 			bmsData[(board * cfg.numOfCellsPerIC) + cell][1] &= (PEC_check[board] << 1);
 2821              		.loc 1 309 58 discriminator 3 view .LVU972
 2822 0142 DFE7     		b	.L99
 2823              	.LVL222:
 2824              	.L107:
 309:Src/LTC6811.c **** 			bmsData[(board * cfg.numOfCellsPerIC) + cell][1] &= (PEC_check[board] << 1);
 2825              		.loc 1 309 58 discriminator 3 view .LVU973
 2826              	.LBE19:
 2827              	.LBE18:
 2828              	.LBB20:
 334:Src/LTC6811.c **** 		if (PEC_check[board] == 0)
 2829              		.loc 1 334 15 view .LVU974
 2830 0144 0023     		movs	r3, #0
 2831              	.LBE20:
 301:Src/LTC6811.c **** 
 2832              		.loc 1 301 7 view .LVU975
 2833 0146 0120     		movs	r0, #1
 2834 0148 01E0     		b	.L102
 2835              	.LVL223:
 2836              	.L103:
 2837              	.LBB21:
 334:Src/LTC6811.c **** 		if (PEC_check[board] == 0)
 2838              		.loc 1 334 53 discriminator 2 view .LVU976
 2839 014a 0133     		adds	r3, r3, #1
 2840              	.LVL224:
 334:Src/LTC6811.c **** 		if (PEC_check[board] == 0)
 2841              		.loc 1 334 53 discriminator 2 view .LVU977
 2842 014c DBB2     		uxtb	r3, r3
 2843              	.LVL225:
 2844              	.L102:
 334:Src/LTC6811.c **** 		if (PEC_check[board] == 0)
 2845              		.loc 1 334 2 discriminator 1 view .LVU978
 2846 014e 7A68     		ldr	r2, [r7, #4]
 2847 0150 9342     		cmp	r3, r2
 2848 0152 05D2     		bcs	.L109
 335:Src/LTC6811.c **** 			dataValid = false;
 2849              		.loc 1 335 3 is_stmt 1 view .LVU979
 335:Src/LTC6811.c **** 			dataValid = false;
ARM GAS  C:\cygwin64\tmp\cc7JEtnh.s 			page 78


 2850              		.loc 1 335 16 is_stmt 0 view .LVU980
 2851 0154 18F80320 		ldrb	r2, [r8, r3]	@ zero_extendqisi2
 335:Src/LTC6811.c **** 			dataValid = false;
 2852              		.loc 1 335 6 view .LVU981
 2853 0158 002A     		cmp	r2, #0
 2854 015a F6D1     		bne	.L103
 336:Src/LTC6811.c **** 	}
 2855              		.loc 1 336 14 view .LVU982
 2856 015c 1046     		mov	r0, r2
 2857              	.LVL226:
 336:Src/LTC6811.c **** 	}
 2858              		.loc 1 336 14 view .LVU983
 2859 015e F4E7     		b	.L103
 2860              	.LVL227:
 2861              	.L109:
 336:Src/LTC6811.c **** 	}
 2862              		.loc 1 336 14 view .LVU984
 2863              	.LBE21:
 340:Src/LTC6811.c **** 
 2864              		.loc 1 340 1 view .LVU985
 2865 0160 0C37     		adds	r7, r7, #12
 2866              	.LCFI51:
 2867              		.cfi_def_cfa_offset 52
 2868 0162 BD46     		mov	sp, r7
 2869              	.LCFI52:
 2870              		.cfi_def_cfa_register 13
 2871              		@ sp needed
 2872 0164 BDE8F04F 		pop	{r4, r5, r6, r7, r8, r9, r10, fp, lr}
 2873              	.LCFI53:
 2874              		.cfi_restore 14
 2875              		.cfi_restore 11
 2876              		.cfi_restore 10
 2877              		.cfi_restore 9
 2878              		.cfi_restore 8
 2879              		.cfi_restore 7
 2880              		.cfi_restore 6
 2881              		.cfi_restore 5
 2882              		.cfi_restore 4
 2883              		.cfi_def_cfa_offset 16
 2884              	.LVL228:
 340:Src/LTC6811.c **** 
 2885              		.loc 1 340 1 view .LVU986
 2886 0168 04B0     		add	sp, sp, #16
 2887              	.LCFI54:
 2888              		.cfi_def_cfa_offset 0
 2889 016a 7047     		bx	lr
 2890              		.cfi_endproc
 2891              	.LFE72:
 2893              		.global	CRC15_POLY
 2894              		.comm	pec15Table,512,4
 2895              		.section	.data.CRC15_POLY,"aw"
 2896              		.align	1
 2897              		.set	.LANCHOR0,. + 0
 2900              	CRC15_POLY:
 2901 0000 9945     		.short	17817
 2902              		.text
 2903              	.Letext0:
ARM GAS  C:\cygwin64\tmp\cc7JEtnh.s 			page 79


 2904              		.file 2 "c:\\arm-gcc\\8-2018-q4-major\\arm-none-eabi\\include\\machine\\_default_types.h"
 2905              		.file 3 "c:\\arm-gcc\\8-2018-q4-major\\arm-none-eabi\\include\\sys\\_stdint.h"
 2906              		.file 4 "Drivers/CMSIS/Include/core_cm3.h"
 2907              		.file 5 "Drivers/CMSIS/Device/ST/STM32F1xx/Include/system_stm32f1xx.h"
 2908              		.file 6 "c:\\arm-gcc\\8-2018-q4-major\\arm-none-eabi\\include\\sys\\lock.h"
 2909              		.file 7 "c:\\arm-gcc\\8-2018-q4-major\\arm-none-eabi\\include\\sys\\_types.h"
 2910              		.file 8 "c:\\arm-gcc\\8-2018-q4-major\\lib\\gcc\\arm-none-eabi\\8.2.1\\include\\stddef.h"
 2911              		.file 9 "c:\\arm-gcc\\8-2018-q4-major\\arm-none-eabi\\include\\sys\\reent.h"
 2912              		.file 10 "Drivers/STM32F1xx_HAL_Driver/Inc/stm32f1xx_hal.h"
 2913              		.file 11 "c:\\arm-gcc\\8-2018-q4-major\\arm-none-eabi\\include\\stdlib.h"
 2914              		.file 12 "Inc/BMSconfig.h"
 2915              		.file 13 "c:\\arm-gcc\\8-2018-q4-major\\arm-none-eabi\\include\\math.h"
 2916              		.file 14 "Inc/LTC6811.h"
 2917              		.file 15 "Inc/SPI.h"
 2918              		.file 16 "<built-in>"
ARM GAS  C:\cygwin64\tmp\cc7JEtnh.s 			page 80


DEFINED SYMBOLS
                            *ABS*:00000000 LTC6811.c
C:\cygwin64\tmp\cc7JEtnh.s:16     .text.initPECTable:00000000 $t
C:\cygwin64\tmp\cc7JEtnh.s:24     .text.initPECTable:00000000 initPECTable
C:\cygwin64\tmp\cc7JEtnh.s:118    .text.initPECTable:00000038 $d
                            *COM*:00000200 pec15Table
C:\cygwin64\tmp\cc7JEtnh.s:124    .text.calculatePEC:00000000 $t
C:\cygwin64\tmp\cc7JEtnh.s:131    .text.calculatePEC:00000000 calculatePEC
C:\cygwin64\tmp\cc7JEtnh.s:207    .text.calculatePEC:0000002c $d
C:\cygwin64\tmp\cc7JEtnh.s:212    .text.readRegister:00000000 $t
C:\cygwin64\tmp\cc7JEtnh.s:219    .text.readRegister:00000000 readRegister
C:\cygwin64\tmp\cc7JEtnh.s:712    .text.readConfig:00000000 $t
C:\cygwin64\tmp\cc7JEtnh.s:719    .text.readConfig:00000000 readConfig
C:\cygwin64\tmp\cc7JEtnh.s:806    .text.writeConfigAddress:00000000 $t
C:\cygwin64\tmp\cc7JEtnh.s:813    .text.writeConfigAddress:00000000 writeConfigAddress
C:\cygwin64\tmp\cc7JEtnh.s:1088   .text.writeConfigAll:00000000 $t
C:\cygwin64\tmp\cc7JEtnh.s:1095   .text.writeConfigAll:00000000 writeConfigAll
C:\cygwin64\tmp\cc7JEtnh.s:1172   .text.dischargeCellGroups:00000000 $t
C:\cygwin64\tmp\cc7JEtnh.s:1179   .text.dischargeCellGroups:00000000 dischargeCellGroups
C:\cygwin64\tmp\cc7JEtnh.s:1325   .text.sendBroadcastCommand:00000000 $t
C:\cygwin64\tmp\cc7JEtnh.s:1332   .text.sendBroadcastCommand:00000000 sendBroadcastCommand
C:\cygwin64\tmp\cc7JEtnh.s:1389   .text.sendAddressCommand:00000000 $t
C:\cygwin64\tmp\cc7JEtnh.s:1396   .text.sendAddressCommand:00000000 sendAddressCommand
C:\cygwin64\tmp\cc7JEtnh.s:1492   .text.readCellVoltage:00000000 $t
C:\cygwin64\tmp\cc7JEtnh.s:1499   .text.readCellVoltage:00000000 readCellVoltage
C:\cygwin64\tmp\cc7JEtnh.s:1638   .text.readAllCellVoltages:00000000 $t
C:\cygwin64\tmp\cc7JEtnh.s:1645   .text.readAllCellVoltages:00000000 readAllCellVoltages
C:\cygwin64\tmp\cc7JEtnh.s:1966   .text.checkAllCellConnections:00000000 $t
C:\cygwin64\tmp\cc7JEtnh.s:1973   .text.checkAllCellConnections:00000000 checkAllCellConnections
C:\cygwin64\tmp\cc7JEtnh.s:2170   .text.readCellTemp:00000000 $t
C:\cygwin64\tmp\cc7JEtnh.s:2177   .text.readCellTemp:00000000 readCellTemp
C:\cygwin64\tmp\cc7JEtnh.s:2508   .text.readCellTemp:000001d0 $d
C:\cygwin64\tmp\cc7JEtnh.s:2534   .text.readAllCellTemps:00000000 $t
C:\cygwin64\tmp\cc7JEtnh.s:2541   .text.readAllCellTemps:00000000 readAllCellTemps
C:\cygwin64\tmp\cc7JEtnh.s:2900   .data.CRC15_POLY:00000000 CRC15_POLY
C:\cygwin64\tmp\cc7JEtnh.s:2896   .data.CRC15_POLY:00000000 $d

UNDEFINED SYMBOLS
malloc
SPIWriteRead
SPIWrite
free
memcpy
HAL_Delay
__aeabi_ui2d
__aeabi_ddiv
__aeabi_dmul
__aeabi_dsub
__aeabi_dadd
__aeabi_d2uiz
pow
