ARM GAS  C:\cygwin64\tmp\cc5fh40e.s 			page 1


   1              		.cpu cortex-m3
   2              		.eabi_attribute 20, 1
   3              		.eabi_attribute 21, 1
   4              		.eabi_attribute 23, 3
   5              		.eabi_attribute 24, 1
   6              		.eabi_attribute 25, 1
   7              		.eabi_attribute 26, 1
   8              		.eabi_attribute 30, 1
   9              		.eabi_attribute 34, 1
  10              		.eabi_attribute 18, 4
  11              		.file	"LTC6811.c"
  12              		.text
  13              	.Ltext0:
  14              		.cfi_sections	.debug_frame
  15              		.section	.text.initPECTable,"ax",%progbits
  16              		.align	1
  17              		.global	initPECTable
  18              		.arch armv7-m
  19              		.syntax unified
  20              		.thumb
  21              		.thumb_func
  22              		.fpu softvfp
  24              	initPECTable:
  25              	.LFB66:
  26              		.file 1 "Src/LTC6811.c"
   1:Src/LTC6811.c **** /*
   2:Src/LTC6811.c **** 	LTC6811 Command Functions
   3:Src/LTC6811.c **** 	Matt Vlasaty
   4:Src/LTC6811.c **** 	March 29th, 2019
   5:Src/LTC6811.c **** 	
   6:Src/LTC6811.c **** 	General Functions
   7:Src/LTC6811.c **** 		sendBroadcastCommand: void sendBroadcastCommand(CommandCodeTypedef command);
   8:Src/LTC6811.c **** 			- sends specified write-only command to every LTC in the chain (ex: ADCV)
   9:Src/LTC6811.c **** 			- CommandCodeTypedef enum contains every command code used
  10:Src/LTC6811.c **** 		sendAddressCommand: void sendAddressCommand(CommandCodeTypedef command, uint8_t address);
  11:Src/LTC6811.c **** 			- sends specified write-only command to LTC with specified address
  12:Src/LTC6811.c **** 		readRegister: bool readRegister(CommandCodeTypedef command, uint8_t address, uint16_t *data);
  13:Src/LTC6811.c **** 			- reads register specified in command from specified board
  14:Src/LTC6811.c **** 			- ex: ReadCellVoltageRegisterGroup1to3, ReadAuxiliaryGroupA, ReadConfigurationRegisterGroup
  15:Src/LTC6811.c **** 			- returns true if received PEC matches calculated PEC
  16:Src/LTC6811.c **** 		
  17:Src/LTC6811.c **** 	Configuration Functions
  18:Src/LTC6811.c **** 		writeConfigAll: void writeConfigAll(BMSconfigStructTypedef cfg);
  19:Src/LTC6811.c **** 			- writes configuration data from BMSconfig struct into LTC configuration register
  20:Src/LTC6811.c **** 			- BMSconfig struct includes ADCMode, UV, OV, and discharge enable for each cell
  21:Src/LTC6811.c **** 			- BMSconfig struct also contains number of ICs and array of addresses used
  22:Src/LTC6811.c **** 		writeConfigAddress: void writeConfigAddress(BMSconfigStructTypedef cfg, uint8_t address);
  23:Src/LTC6811.c **** 			- this is only used for cellDischarge command
  24:Src/LTC6811.c **** 			- writes configuration data to LTC with specified address
  25:Src/LTC6811.c **** 		readConfig: bool readConfig(uint8_t address, uint8_t cfg[6]);
  26:Src/LTC6811.c **** 			- uses general readRegister function to check current state of LTC configuration register
  27:Src/LTC6811.c **** 			- this is mostly for testing purposes
  28:Src/LTC6811.c **** 			- returns true if received PEC matches calculated PEC (same as readRegister)
  29:Src/LTC6811.c **** 		
  30:Src/LTC6811.c **** 	Cell Voltage Functions
  31:Src/LTC6811.c **** 		readCellVoltage: bool readCellVoltage(uint8_t address, uint16_t cellVoltage[12]);
  32:Src/LTC6811.c **** 			- sends ADCV command that begins conversion for every cell to specified LTC
ARM GAS  C:\cygwin64\tmp\cc5fh40e.s 			page 2


  33:Src/LTC6811.c **** 			- reads all cell voltage registers using general readRegister function
  34:Src/LTC6811.c **** 			- used cell inputs (1, 2, 3, 4, 7, 8, 9, 10) must be chosen from cellVoltage[12] later
  35:Src/LTC6811.c **** 			- returns true if received PEC matches calculated PEC (same as readRegister)
  36:Src/LTC6811.c **** 		readAllCellVoltages: bool readAllCellVoltages(BMSconfigStructTypedef cfg, uint16_t cellVoltage[12
  37:Src/LTC6811.c **** 			- not tested
  38:Src/LTC6811.c **** 			- using order of ICs in BMSconfig, stores cell voltage for every cell on every board into 2D arr
  39:Src/LTC6811.c **** 			- returns false if any readCellVoltage returns false
  40:Src/LTC6811.c **** 	
  41:Src/LTC6811.c **** 	Cell Temperature Functions
  42:Src/LTC6811.c **** 		readCellTemp: bool readCellTemp(uint8_t address, uint16_t cellTemp[4], bool dcFault[4], bool temp
  43:Src/LTC6811.c **** 			- initiates ADC conversion for GPIO inputs connected to temperature sensors
  44:Src/LTC6811.c **** 			- reads auxiliary register groups using general readRegister function
  45:Src/LTC6811.c **** 			- converts measured voltage into temperature based on temperature sensor response
  46:Src/LTC6811.c **** 			- checks for disconnected temperature sensor and overtemperature faults for each LTC and stores 
  47:Src/LTC6811.c **** 		readAllCellTemps: bool readAllCellTemps(uint8_t numBoards, uint16_t cellTemp[numBoards][4], bool 
  48:Src/LTC6811.c **** 			- not tested
  49:Src/LTC6811.c **** 			- using order of ICs in BMSconfig, stores cell temperature for every cell on every board into 2D
  50:Src/LTC6811.c **** 			- returns false if any readCellTemp returns false
  51:Src/LTC6811.c **** 	
  52:Src/LTC6811.c **** 	Cell Connection Functions
  53:Src/LTC6811.c **** 		checkCellConnection: void checkCellConnection(uint16_t cellVoltage[12], bool cellConnection[12]);
  54:Src/LTC6811.c **** 			- needs previously obtained cell voltage measurements
  55:Src/LTC6811.c **** 			- initiates ADOW command with PUP = 0 to source 100uA while measuring cell voltage
  56:Src/LTC6811.c **** 			- reads cell voltages with readCellVoltage function
  57:Src/LTC6811.c **** 			- compares previously measured values to open wire check values
  58:Src/LTC6811.c **** 			- if there is a significant drop in voltage (should be configurable), cell is disconnected
  59:Src/LTC6811.c **** 			- stores 1 into cellConnection if cell is connected
  60:Src/LTC6811.c **** 			- stores 0 into cellConnection if cell is disconnected
  61:Src/LTC6811.c **** 		checkAllCellConnections: 
  62:Src/LTC6811.c **** 	
  63:Src/LTC6811.c **** 	PEC Functions
  64:Src/LTC6811.c **** 		initPECTable: void initPECTable(void);
  65:Src/LTC6811.c **** 			- taken from LTC6811 datasheet
  66:Src/LTC6811.c **** 			- generates PEC look-up table
  67:Src/LTC6811.c **** 			- should be called on start-up
  68:Src/LTC6811.c **** 		calculatePEC: uint16_t calculatePEC(uint8_t len, uint8_t *data);
  69:Src/LTC6811.c **** 			- taken from LTC6811 datasheet
  70:Src/LTC6811.c **** 			- used when sending command to calculate necessary PEC bytes to follow command bytes
  71:Src/LTC6811.c **** 			- used when receiving data to compare received PEC with the PEC that should have been received b
  72:Src/LTC6811.c **** 			- returns uint16_t PEC value
  73:Src/LTC6811.c **** 			
  74:Src/LTC6811.c **** 	TODO:
  75:Src/LTC6811.c **** 		- checkCellConnection return value needs to disregard unused cell inputs
  76:Src/LTC6811.c **** 		- resolve issue with writeConfig not changing every bit in the first register group
  77:Src/LTC6811.c **** 		- test functions used to read from every board (readAllCellVoltages should be [12][8])
  78:Src/LTC6811.c **** 		- minor changes (using more user-defined constants, changing return values)
  79:Src/LTC6811.c **** 		
  80:Src/LTC6811.c **** 	NOTES:
  81:Src/LTC6811.c **** 		- writeConfig is called every loop for every LTC because dischargeCells is called every loop for 
  82:Src/LTC6811.c **** 		- always take measurements, only send when not charging? (CAN messages for charging?)
  83:Src/LTC6811.c **** 		- every 'readAll' function starts with address = 0 and increases sequentially
  84:Src/LTC6811.c **** 		
  85:Src/LTC6811.c **** 		- in temp read, faults are determined but not transferred
  86:Src/LTC6811.c **** 		- temperature conversion works, but error is +/- 1 degree
  87:Src/LTC6811.c **** */
  88:Src/LTC6811.c **** 
  89:Src/LTC6811.c **** 
ARM GAS  C:\cygwin64\tmp\cc5fh40e.s 			page 3


  90:Src/LTC6811.c **** #include "LTC6811.h"
  91:Src/LTC6811.c **** 
  92:Src/LTC6811.c **** uint16_t pec15Table[256];
  93:Src/LTC6811.c **** uint16_t CRC15_POLY = 0x4599;
  94:Src/LTC6811.c **** 
  95:Src/LTC6811.c **** void initPECTable(void) {
  27              		.loc 1 95 25 view -0
  28              		.cfi_startproc
  29              		@ args = 0, pretend = 0, frame = 0
  30              		@ frame_needed = 0, uses_anonymous_args = 0
  31              		@ link register save eliminated.
  96:Src/LTC6811.c **** 	
  97:Src/LTC6811.c **** 	uint16_t remainder;
  32              		.loc 1 97 2 view .LVU1
  98:Src/LTC6811.c **** 	
  99:Src/LTC6811.c **** 	for (int i = 0; i < 256; i++) {
  33              		.loc 1 99 2 view .LVU2
  34              	.LBB2:
  35              		.loc 1 99 7 view .LVU3
  36              	.LVL0:
  37              		.loc 1 99 11 is_stmt 0 view .LVU4
  38 0000 0020     		movs	r0, #0
  39              		.loc 1 99 2 view .LVU5
  40 0002 11E0     		b	.L2
  41              	.LVL1:
  42              	.L4:
  43              	.LBB3:
 100:Src/LTC6811.c **** 		remainder = i << 7;
 101:Src/LTC6811.c **** 		for (int bit = 8; bit > 0; bit--) {
 102:Src/LTC6811.c **** 			if (remainder & 0x4000) {
 103:Src/LTC6811.c **** 				remainder = ((remainder << 1));
 104:Src/LTC6811.c **** 				remainder = (remainder ^ CRC15_POLY);
 105:Src/LTC6811.c **** 			}
 106:Src/LTC6811.c **** 			else {
 107:Src/LTC6811.c **** 				remainder = ((remainder << 1));
  44              		.loc 1 107 5 is_stmt 1 view .LVU6
  45              		.loc 1 107 15 is_stmt 0 view .LVU7
  46 0004 5B00     		lsls	r3, r3, #1
  47              	.LVL2:
  48              		.loc 1 107 15 view .LVU8
  49 0006 9BB2     		uxth	r3, r3
  50              	.LVL3:
  51              	.L5:
 101:Src/LTC6811.c **** 			if (remainder & 0x4000) {
  52              		.loc 1 101 33 discriminator 2 view .LVU9
  53 0008 013A     		subs	r2, r2, #1
  54              	.LVL4:
  55              	.L3:
 101:Src/LTC6811.c **** 			if (remainder & 0x4000) {
  56              		.loc 1 101 3 discriminator 1 view .LVU10
  57 000a 002A     		cmp	r2, #0
  58 000c 08DD     		ble	.L8
 102:Src/LTC6811.c **** 				remainder = ((remainder << 1));
  59              		.loc 1 102 4 is_stmt 1 view .LVU11
 102:Src/LTC6811.c **** 				remainder = ((remainder << 1));
  60              		.loc 1 102 7 is_stmt 0 view .LVU12
  61 000e 13F4804F 		tst	r3, #16384
ARM GAS  C:\cygwin64\tmp\cc5fh40e.s 			page 4


  62 0012 F7D0     		beq	.L4
 103:Src/LTC6811.c **** 				remainder = (remainder ^ CRC15_POLY);
  63              		.loc 1 103 5 is_stmt 1 view .LVU13
 103:Src/LTC6811.c **** 				remainder = (remainder ^ CRC15_POLY);
  64              		.loc 1 103 15 is_stmt 0 view .LVU14
  65 0014 5B00     		lsls	r3, r3, #1
  66              	.LVL5:
 103:Src/LTC6811.c **** 				remainder = (remainder ^ CRC15_POLY);
  67              		.loc 1 103 15 view .LVU15
  68 0016 9BB2     		uxth	r3, r3
  69              	.LVL6:
 104:Src/LTC6811.c **** 			}
  70              		.loc 1 104 5 is_stmt 1 view .LVU16
 104:Src/LTC6811.c **** 			}
  71              		.loc 1 104 15 is_stmt 0 view .LVU17
  72 0018 0749     		ldr	r1, .L10
  73 001a 0988     		ldrh	r1, [r1]
  74 001c 4B40     		eors	r3, r3, r1
  75              	.LVL7:
 104:Src/LTC6811.c **** 			}
  76              		.loc 1 104 15 view .LVU18
  77 001e F3E7     		b	.L5
  78              	.L8:
 104:Src/LTC6811.c **** 			}
  79              		.loc 1 104 15 view .LVU19
  80              	.LBE3:
 108:Src/LTC6811.c **** 			}
 109:Src/LTC6811.c **** 		}
 110:Src/LTC6811.c **** 		pec15Table[i] = remainder & 0xFFFF;
  81              		.loc 1 110 3 is_stmt 1 discriminator 2 view .LVU20
  82              		.loc 1 110 17 is_stmt 0 discriminator 2 view .LVU21
  83 0020 064A     		ldr	r2, .L10+4
  84              	.LVL8:
  85              		.loc 1 110 17 discriminator 2 view .LVU22
  86 0022 22F81030 		strh	r3, [r2, r0, lsl #1]	@ movhi
  99:Src/LTC6811.c **** 		remainder = i << 7;
  87              		.loc 1 99 28 discriminator 2 view .LVU23
  88 0026 0130     		adds	r0, r0, #1
  89              	.LVL9:
  90              	.L2:
  99:Src/LTC6811.c **** 		remainder = i << 7;
  91              		.loc 1 99 2 discriminator 1 view .LVU24
  92 0028 FF28     		cmp	r0, #255
  93 002a 04DC     		bgt	.L9
 100:Src/LTC6811.c **** 		for (int bit = 8; bit > 0; bit--) {
  94              		.loc 1 100 3 is_stmt 1 view .LVU25
 100:Src/LTC6811.c **** 		for (int bit = 8; bit > 0; bit--) {
  95              		.loc 1 100 17 is_stmt 0 view .LVU26
  96 002c 83B2     		uxth	r3, r0
 100:Src/LTC6811.c **** 		for (int bit = 8; bit > 0; bit--) {
  97              		.loc 1 100 13 view .LVU27
  98 002e DB01     		lsls	r3, r3, #7
  99 0030 9BB2     		uxth	r3, r3
 100              	.LVL10:
 101:Src/LTC6811.c **** 			if (remainder & 0x4000) {
 101              		.loc 1 101 3 is_stmt 1 view .LVU28
 102              	.LBB4:
ARM GAS  C:\cygwin64\tmp\cc5fh40e.s 			page 5


 101:Src/LTC6811.c **** 			if (remainder & 0x4000) {
 103              		.loc 1 101 8 view .LVU29
 101:Src/LTC6811.c **** 			if (remainder & 0x4000) {
 104              		.loc 1 101 12 is_stmt 0 view .LVU30
 105 0032 0822     		movs	r2, #8
 101:Src/LTC6811.c **** 			if (remainder & 0x4000) {
 106              		.loc 1 101 3 view .LVU31
 107 0034 E9E7     		b	.L3
 108              	.LVL11:
 109              	.L9:
 101:Src/LTC6811.c **** 			if (remainder & 0x4000) {
 110              		.loc 1 101 3 view .LVU32
 111              	.LBE4:
 112              	.LBE2:
 111:Src/LTC6811.c **** 	}
 112:Src/LTC6811.c **** };
 113              		.loc 1 112 1 view .LVU33
 114 0036 7047     		bx	lr
 115              	.L11:
 116              		.align	2
 117              	.L10:
 118 0038 00000000 		.word	.LANCHOR0
 119 003c 00000000 		.word	pec15Table
 120              		.cfi_endproc
 121              	.LFE66:
 123              		.section	.text.calculatePEC,"ax",%progbits
 124              		.align	1
 125              		.global	calculatePEC
 126              		.syntax unified
 127              		.thumb
 128              		.thumb_func
 129              		.fpu softvfp
 131              	calculatePEC:
 132              	.LVL12:
 133              	.LFB80:
 113:Src/LTC6811.c **** 
 114:Src/LTC6811.c **** void writeConfigAddress(BMSconfigStructTypedef cfg, uint8_t address) {
 115:Src/LTC6811.c **** 
 116:Src/LTC6811.c **** 	uint8_t config[6];
 117:Src/LTC6811.c **** 	uint8_t *cmd;
 118:Src/LTC6811.c **** 	uint8_t cmd_len = 12;
 119:Src/LTC6811.c **** 	uint16_t PEC_return;
 120:Src/LTC6811.c **** 	
 121:Src/LTC6811.c **** 	cmd = (uint8_t *)malloc(cmd_len*sizeof(uint8_t));
 122:Src/LTC6811.c **** 	
 123:Src/LTC6811.c **** 	config[0] = (uint8_t) (cfg.GPIO5PulldownOff << 7) | (cfg.GPIO4PulldownOff << 6) | (cfg.GPIO3Pulldo
 124:Src/LTC6811.c **** 	config[1] = (uint8_t) (cfg.UndervoltageComparisonVoltage & 0xFF);
 125:Src/LTC6811.c **** 	config[2] = (uint8_t) ((cfg.OvervoltageComparisonVoltage << 4) & 0xF0) | ((cfg.UndervoltageCompari
 126:Src/LTC6811.c **** 	config[3] = (uint8_t) ((cfg.OvervoltageComparisonVoltage >> 4) & 0xFF);
 127:Src/LTC6811.c **** 	config[4] = (uint8_t) (cfg.DischargeCell8 << 7) | (cfg.DischargeCell7 << 6) | (cfg.DischargeCell6 
 128:Src/LTC6811.c **** 	config[5] = (uint8_t) ((cfg.DischargeTimeoutValue << 4) & 0xF0) | (cfg.DischargeCell12 << 3) | (cf
 129:Src/LTC6811.c **** 	
 130:Src/LTC6811.c **** 	cmd[0] = (uint8_t) (0x80 | ((address << 3) & 0x78) | ((WriteConfigurationRegisterGroup >> 8) & 0x0
 131:Src/LTC6811.c **** 	cmd[1] = (uint8_t) (WriteConfigurationRegisterGroup & 0xFF);
 132:Src/LTC6811.c **** 	
 133:Src/LTC6811.c **** 	PEC_return = calculatePEC(2, cmd);
 134:Src/LTC6811.c **** 	
ARM GAS  C:\cygwin64\tmp\cc5fh40e.s 			page 6


 135:Src/LTC6811.c **** 	cmd[2] = (PEC_return >> 8) & 0xFF;
 136:Src/LTC6811.c **** 	cmd[3] = PEC_return & 0xFF;
 137:Src/LTC6811.c **** 
 138:Src/LTC6811.c **** 	cmd[4] = config[0];
 139:Src/LTC6811.c **** 	cmd[5] = config[1];
 140:Src/LTC6811.c **** 	cmd[6] = config[2];
 141:Src/LTC6811.c **** 	cmd[7] = config[3];
 142:Src/LTC6811.c **** 	cmd[8] = config[4];
 143:Src/LTC6811.c **** 	cmd[9] = config[5];
 144:Src/LTC6811.c **** 	
 145:Src/LTC6811.c **** 	PEC_return = calculatePEC(6, cmd + 4);
 146:Src/LTC6811.c **** 
 147:Src/LTC6811.c **** 	cmd[10] = (PEC_return >> 8) & 0xFF;
 148:Src/LTC6811.c **** 	cmd[11] = PEC_return & 0xFF;
 149:Src/LTC6811.c **** 	
 150:Src/LTC6811.c **** 	SPIWrite(cmd, cmd_len);
 151:Src/LTC6811.c **** 	
 152:Src/LTC6811.c **** 	free(cmd);
 153:Src/LTC6811.c **** 
 154:Src/LTC6811.c **** };
 155:Src/LTC6811.c **** 
 156:Src/LTC6811.c **** void writeConfigAll(BMSconfigStructTypedef cfg) {
 157:Src/LTC6811.c **** 
 158:Src/LTC6811.c **** 	for (uint8_t i = 0; i < cfg.numOfICs; i++) {
 159:Src/LTC6811.c **** 		writeConfigAddress(cfg, cfg.address[i]);
 160:Src/LTC6811.c **** 	}
 161:Src/LTC6811.c **** };
 162:Src/LTC6811.c **** 
 163:Src/LTC6811.c **** bool readCellVoltage(uint8_t address, uint16_t cellVoltage[12]) {
 164:Src/LTC6811.c **** 	
 165:Src/LTC6811.c **** 	bool PEC_check = false;
 166:Src/LTC6811.c **** 	bool dataValid = true;
 167:Src/LTC6811.c **** 	uint16_t *voltage;
 168:Src/LTC6811.c **** 	
 169:Src/LTC6811.c **** 	voltage = (uint16_t *)malloc(12*sizeof(uint16_t));
 170:Src/LTC6811.c **** 	
 171:Src/LTC6811.c **** 	sendAddressCommand(StartCellVoltageADCConversionAll, address); // start conversion for every cell
 172:Src/LTC6811.c **** 
 173:Src/LTC6811.c **** 	HAL_Delay(50); // conversion time is 12.8ms at 422Hz, so wait 15ms
 174:Src/LTC6811.c **** 	
 175:Src/LTC6811.c **** 	PEC_check = readRegister(ReadCellVoltageRegisterGroup1to3, address, voltage);
 176:Src/LTC6811.c **** 	//dataValid = dataValid & PEC_check;
 177:Src/LTC6811.c **** 	PEC_check = readRegister(ReadCellVoltageRegisterGroup4to6, address, voltage);
 178:Src/LTC6811.c **** 	dataValid = dataValid & PEC_check;
 179:Src/LTC6811.c **** 	PEC_check = readRegister(ReadCellVoltageRegisterGroup7to9, address, voltage);
 180:Src/LTC6811.c **** 	dataValid = dataValid & PEC_check;
 181:Src/LTC6811.c **** 	PEC_check = readRegister(ReadCellVoltageRegisterGroup10to12, address, voltage);
 182:Src/LTC6811.c **** 	dataValid = dataValid & PEC_check;
 183:Src/LTC6811.c **** 	PEC_check = readRegister(ReadCellVoltageRegisterGroup1to3, address, voltage);
 184:Src/LTC6811.c **** 	dataValid = dataValid & PEC_check;
 185:Src/LTC6811.c **** 	
 186:Src/LTC6811.c **** 	for (uint8_t i = 0; i < 12; i++) {
 187:Src/LTC6811.c **** 		cellVoltage[i] = voltage[i];
 188:Src/LTC6811.c **** 	}
 189:Src/LTC6811.c **** 	
 190:Src/LTC6811.c **** 	free(voltage);
 191:Src/LTC6811.c **** 	
ARM GAS  C:\cygwin64\tmp\cc5fh40e.s 			page 7


 192:Src/LTC6811.c **** 	return(dataValid);
 193:Src/LTC6811.c **** 	
 194:Src/LTC6811.c **** };
 195:Src/LTC6811.c **** 
 196:Src/LTC6811.c **** bool readAllCellVoltages(BMSconfigStructTypedef cfg, uint16_t cellVoltage[12][12]) {
 197:Src/LTC6811.c **** 	
 198:Src/LTC6811.c **** 	/*uint16_t boardVoltage[cfg.numOfCellInputs];
 199:Src/LTC6811.c **** 	bool PEC_check[cfg.numOfICs];
 200:Src/LTC6811.c **** 	bool dataValid = true;
 201:Src/LTC6811.c **** 	
 202:Src/LTC6811.c **** 	for (uint8_t i = 0; i < cfg.numOfICs; i++) {
 203:Src/LTC6811.c **** 		
 204:Src/LTC6811.c **** 		PEC_check[i] = readCellVoltage((uint8_t) cfg.addressesofICs[i], boardVoltage);
 205:Src/LTC6811.c **** 		
 206:Src/LTC6811.c **** 		for (uint8_t j = 0; i < cfg.numOfCellInputs; i++) {
 207:Src/LTC6811.c **** 			cellVoltage[i][j] = boardVoltage[j];
 208:Src/LTC6811.c **** 		}
 209:Src/LTC6811.c **** 	}
 210:Src/LTC6811.c **** 	
 211:Src/LTC6811.c **** 	for (uint8_t k = 0; k < cfg.numOfICs; k++) {
 212:Src/LTC6811.c **** 		if (PEC_check[k] == 0)
 213:Src/LTC6811.c **** 			dataValid = false;
 214:Src/LTC6811.c **** 	}*/
 215:Src/LTC6811.c **** 
 216:Src/LTC6811.c **** 	uint16_t boardVoltage[cfg.numOfCellInputs];
 217:Src/LTC6811.c **** 	bool PEC_check[cfg.numOfICs];
 218:Src/LTC6811.c **** 	bool dataValid = true;
 219:Src/LTC6811.c **** 
 220:Src/LTC6811.c **** 	for (uint8_t i = 0; i < cfg.numOfICs; i++) {
 221:Src/LTC6811.c **** 
 222:Src/LTC6811.c **** 		PEC_check[i] = readCellVoltage(cfg.address[i], boardVoltage);
 223:Src/LTC6811.c **** 
 224:Src/LTC6811.c **** 		for (uint8_t j = 0; j < 12; j++) {
 225:Src/LTC6811.c **** 			cellVoltage[i][j] = boardVoltage[j];
 226:Src/LTC6811.c **** 		}
 227:Src/LTC6811.c **** 	}
 228:Src/LTC6811.c **** 
 229:Src/LTC6811.c **** 	for (uint8_t k = 0; k < cfg.numOfICs; k++) {
 230:Src/LTC6811.c **** 		if (PEC_check[k] == 0)
 231:Src/LTC6811.c **** 			dataValid = false;
 232:Src/LTC6811.c **** 	}
 233:Src/LTC6811.c **** 
 234:Src/LTC6811.c **** 	return dataValid;
 235:Src/LTC6811.c **** }
 236:Src/LTC6811.c **** 
 237:Src/LTC6811.c **** bool readCellTemp(uint8_t address, uint16_t cellTemp[4], bool dcFault[4], bool tempFault[4]) {
 238:Src/LTC6811.c **** 	
 239:Src/LTC6811.c **** 	bool PEC_check = false;
 240:Src/LTC6811.c **** 	bool dataValid = true;
 241:Src/LTC6811.c **** 	uint16_t *temp;
 242:Src/LTC6811.c **** 	double dummy[4];
 243:Src/LTC6811.c **** 	double conversion[4];
 244:Src/LTC6811.c **** 	
 245:Src/LTC6811.c **** 	temp = (uint16_t *)malloc(4*sizeof(uint16_t));
 246:Src/LTC6811.c **** 	
 247:Src/LTC6811.c **** 	sendAddressCommand(StartCellTempVoltageADCConversionAll, address);
 248:Src/LTC6811.c **** 	
ARM GAS  C:\cygwin64\tmp\cc5fh40e.s 			page 8


 249:Src/LTC6811.c **** 	HAL_Delay(50); // conversion time is 12.8ms at 422Hz, so wait 15ms
 250:Src/LTC6811.c **** 	
 251:Src/LTC6811.c **** 	PEC_check = readRegister(ReadAuxiliaryGroupA, address, temp);
 252:Src/LTC6811.c **** 	dataValid = dataValid & PEC_check;
 253:Src/LTC6811.c **** 	PEC_check = readRegister(ReadAuxiliaryGroupB, address, temp);
 254:Src/LTC6811.c **** 	dataValid = dataValid & PEC_check;
 255:Src/LTC6811.c **** 	PEC_check = readRegister(ReadAuxiliaryGroupA, address, temp);
 256:Src/LTC6811.c **** 	dataValid = dataValid & PEC_check;
 257:Src/LTC6811.c **** 
 258:Src/LTC6811.c **** 	/*for (uint8_t i = 0; i < 4; i++) {
 259:Src/LTC6811.c **** 
 260:Src/LTC6811.c **** 		cellTemp[i] = temp[i];
 261:Src/LTC6811.c **** 		dcFault[i] = false;
 262:Src/LTC6811.c **** 		tempFault[i] = false;
 263:Src/LTC6811.c **** 
 264:Src/LTC6811.c **** 	}*/
 265:Src/LTC6811.c **** 	
 266:Src/LTC6811.c **** 	for (uint8_t i = 0; i < 4; i++) {
 267:Src/LTC6811.c **** 		if ((temp[i] > 24400) || (temp[i] < 13000)) {
 268:Src/LTC6811.c **** 			dcFault[i] = true;
 269:Src/LTC6811.c **** 			cellTemp[i] = 0x0000;
 270:Src/LTC6811.c **** 		}
 271:Src/LTC6811.c **** 		else
 272:Src/LTC6811.c **** 			dcFault[i] = false;
 273:Src/LTC6811.c **** 		
 274:Src/LTC6811.c **** 		if ((temp[i] >= 13000) && (temp[i] < 15100)) {
 275:Src/LTC6811.c **** 			tempFault[i] = true;
 276:Src/LTC6811.c **** 			cellTemp[i] = 0xFFFF;
 277:Src/LTC6811.c **** 		}
 278:Src/LTC6811.c **** 		else
 279:Src/LTC6811.c **** 			tempFault[i] = false;
 280:Src/LTC6811.c **** 		
 281:Src/LTC6811.c **** 		if ((temp[i] >= 15100) && (temp[i] <= 24400)) {
 282:Src/LTC6811.c **** 			dummy[i] = (double) temp[i] / 10000; // convert from ADC value to voltage
 283:Src/LTC6811.c **** 			// convert from voltage to temperature
 284:Src/LTC6811.c **** 			conversion[i] = 37735 - 113923 * dummy[i] + 142663 * pow(dummy[i], 2) - 94465 * pow(dummy[i], 3)
 285:Src/LTC6811.c **** 			conversion[i] = 500 * (conversion[i] + 20); // map value to larger range
 286:Src/LTC6811.c **** 			cellTemp[i] = (uint16_t) conversion[i];
 287:Src/LTC6811.c **** 			//cellTemp[i] = temp[i];
 288:Src/LTC6811.c **** 		}
 289:Src/LTC6811.c **** 	}
 290:Src/LTC6811.c **** 	
 291:Src/LTC6811.c **** 	free(temp);
 292:Src/LTC6811.c **** 	
 293:Src/LTC6811.c **** 	return (dataValid);
 294:Src/LTC6811.c **** 	
 295:Src/LTC6811.c **** };
 296:Src/LTC6811.c **** 
 297:Src/LTC6811.c **** bool readAllCellTemps(BMSconfigStructTypedef cfg, uint16_t cellTemp[12][4], bool dcFault[12][4], bo
 298:Src/LTC6811.c **** 	
 299:Src/LTC6811.c **** 	/*uint16_t boardTemp[cfg.numOfTempPerIC];
 300:Src/LTC6811.c **** 	bool boardDCFault[cfg.numOfTempPerIC];
 301:Src/LTC6811.c **** 	bool boardTempFault[cfg.numOfTempPerIC];
 302:Src/LTC6811.c **** 	bool PEC_check[cfg.numOfICs];
 303:Src/LTC6811.c **** 	bool dataValid = true;
 304:Src/LTC6811.c **** 	
 305:Src/LTC6811.c **** 	for (uint8_t i = 0; i < cfg.numOfICs; i++) {
ARM GAS  C:\cygwin64\tmp\cc5fh40e.s 			page 9


 306:Src/LTC6811.c **** 		
 307:Src/LTC6811.c **** 		PEC_check[i] = readCellTemp(cfg.addressesofICs[i], boardTemp, boardDCFault, boardTempFault);
 308:Src/LTC6811.c **** 		for (uint8_t j = 0; j < 4; j++) {
 309:Src/LTC6811.c **** 			cellTemp[i][j] = boardTemp[j];
 310:Src/LTC6811.c **** 			dcFault[i][j] = boardDCFault[j];
 311:Src/LTC6811.c **** 			tempFault[i][j] = boardTempFault[j];
 312:Src/LTC6811.c **** 		}
 313:Src/LTC6811.c **** 	}
 314:Src/LTC6811.c **** 	
 315:Src/LTC6811.c **** 	for (uint8_t k = 0; k < cfg.numOfICs; k++) {
 316:Src/LTC6811.c **** 		if (PEC_check[k] == 0)
 317:Src/LTC6811.c **** 			dataValid = false;
 318:Src/LTC6811.c **** 	}*/
 319:Src/LTC6811.c **** 
 320:Src/LTC6811.c **** 	uint16_t boardTemp[4];
 321:Src/LTC6811.c **** 	bool boardDCFault[4];
 322:Src/LTC6811.c **** 	bool boardTempFault[4];
 323:Src/LTC6811.c **** 	bool dataValid = true;
 324:Src/LTC6811.c **** 
 325:Src/LTC6811.c **** 	for (uint8_t i = 0; i < cfg.numOfICs; i++) {
 326:Src/LTC6811.c **** 		
 327:Src/LTC6811.c **** 		dataValid = readCellTemp(cfg.address[i], boardTemp, boardDCFault, boardTempFault);
 328:Src/LTC6811.c **** 
 329:Src/LTC6811.c **** 		for (uint8_t j = 0; j < 4; j++) {
 330:Src/LTC6811.c **** 			cellTemp[i][j] = boardTemp[j];
 331:Src/LTC6811.c **** 			dcFault[i][j] = boardDCFault[j];
 332:Src/LTC6811.c **** 			tempFault[i][j] = boardTempFault[j];
 333:Src/LTC6811.c **** 		}
 334:Src/LTC6811.c **** 	}
 335:Src/LTC6811.c **** 	
 336:Src/LTC6811.c **** 	return dataValid;
 337:Src/LTC6811.c **** }
 338:Src/LTC6811.c **** 
 339:Src/LTC6811.c **** bool readConfig(uint8_t address, uint8_t cfg[8]) {
 340:Src/LTC6811.c **** 	
 341:Src/LTC6811.c **** 	uint16_t *config;
 342:Src/LTC6811.c **** 	bool dataValid = false;
 343:Src/LTC6811.c **** 	
 344:Src/LTC6811.c **** 	config = (uint16_t *)malloc(4*sizeof(uint16_t));
 345:Src/LTC6811.c **** 	
 346:Src/LTC6811.c **** 	dataValid = readRegister(ReadConfigurationRegisterGroup, address, config);
 347:Src/LTC6811.c **** 	
 348:Src/LTC6811.c **** 	cfg[0] = (uint8_t) ((config[0] >> 8) & 0xFF);
 349:Src/LTC6811.c **** 	cfg[1] = (uint8_t) (config[0] & 0xFF);
 350:Src/LTC6811.c **** 	cfg[2] = (uint8_t) ((config[1] >> 8) & 0xFF);
 351:Src/LTC6811.c **** 	cfg[3] = (uint8_t) (config[1] & 0xFF);
 352:Src/LTC6811.c **** 	cfg[4] = (uint8_t) ((config[2] >> 8) & 0xFF);
 353:Src/LTC6811.c **** 	cfg[5] = (uint8_t) (config[2] & 0xFF);
 354:Src/LTC6811.c **** 	cfg[6] = (uint8_t) ((config[3] >> 8) & 0xFF);
 355:Src/LTC6811.c **** 	cfg[7] = (uint8_t) (config[3] & 0xFF);
 356:Src/LTC6811.c **** 	
 357:Src/LTC6811.c **** 	return dataValid;
 358:Src/LTC6811.c **** }
 359:Src/LTC6811.c **** 
 360:Src/LTC6811.c **** bool checkCellConnection(uint16_t cellVoltage[12], bool cellConnection[12]) {
 361:Src/LTC6811.c **** 		
 362:Src/LTC6811.c **** 	uint16_t ADOWvoltage[12];
ARM GAS  C:\cygwin64\tmp\cc5fh40e.s 			page 10


 363:Src/LTC6811.c **** 	bool disconnect = false;
 364:Src/LTC6811.c **** 	
 365:Src/LTC6811.c **** 	//add more if necessary
 366:Src/LTC6811.c **** 	sendBroadcastCommand(StartOpenWireConversionPulldown);
 367:Src/LTC6811.c **** 	sendBroadcastCommand(StartOpenWireConversionPulldown);
 368:Src/LTC6811.c **** 	sendBroadcastCommand(StartOpenWireConversionPulldown);
 369:Src/LTC6811.c **** 	sendBroadcastCommand(StartOpenWireConversionPulldown);
 370:Src/LTC6811.c **** 	sendBroadcastCommand(StartOpenWireConversionPulldown);
 371:Src/LTC6811.c **** 	sendBroadcastCommand(StartOpenWireConversionPulldown);
 372:Src/LTC6811.c **** 	sendBroadcastCommand(StartOpenWireConversionPulldown);
 373:Src/LTC6811.c **** 	sendBroadcastCommand(StartOpenWireConversionPulldown);
 374:Src/LTC6811.c **** 
 375:Src/LTC6811.c **** 	HAL_Delay(50);
 376:Src/LTC6811.c **** 	
 377:Src/LTC6811.c **** 	readCellVoltage(0, ADOWvoltage);
 378:Src/LTC6811.c **** 	readCellVoltage(0, ADOWvoltage);
 379:Src/LTC6811.c **** 	readCellVoltage(0, ADOWvoltage);
 380:Src/LTC6811.c **** 	
 381:Src/LTC6811.c **** 	for (uint8_t i = 0; i < 12; i++) {
 382:Src/LTC6811.c **** 		// if voltage fell by > 100mV
 383:Src/LTC6811.c **** 		if ((cellVoltage[i] - ADOWvoltage[i]) > 1000) {
 384:Src/LTC6811.c **** 			cellConnection[i] = 0; // cell is disconnected
 385:Src/LTC6811.c **** 			disconnect = true;
 386:Src/LTC6811.c **** 		}
 387:Src/LTC6811.c **** 		else {
 388:Src/LTC6811.c **** 			cellConnection[i] = 1;
 389:Src/LTC6811.c **** 		}
 390:Src/LTC6811.c **** 	}
 391:Src/LTC6811.c **** 	return disconnect;
 392:Src/LTC6811.c **** }
 393:Src/LTC6811.c **** 
 394:Src/LTC6811.c **** bool checkAllCellConnections(BMSconfigStructTypedef cfg, uint16_t cellVoltage[12][12], bool cellCon
 395:Src/LTC6811.c **** 	
 396:Src/LTC6811.c **** 	uint16_t voltageBuffer[12];
 397:Src/LTC6811.c **** 	bool connectionBuffer[12];
 398:Src/LTC6811.c **** 	bool individual_check;
 399:Src/LTC6811.c **** 	bool disconnect = false;
 400:Src/LTC6811.c **** 	
 401:Src/LTC6811.c **** 	for (uint8_t i = 0; i < cfg.numOfICs; i++) {
 402:Src/LTC6811.c **** 
 403:Src/LTC6811.c **** 		for (uint8_t k = 0; k < 12; k++)
 404:Src/LTC6811.c **** 			voltageBuffer[k] = cellVoltage[i][k];
 405:Src/LTC6811.c **** 
 406:Src/LTC6811.c **** 		individual_check = checkCellConnection(voltageBuffer, connectionBuffer);
 407:Src/LTC6811.c **** 		disconnect = disconnect | individual_check;
 408:Src/LTC6811.c **** 
 409:Src/LTC6811.c **** 		for (uint8_t j = 0; j < 12; j++) {
 410:Src/LTC6811.c **** 			cellConnection[i][j] = connectionBuffer[j];
 411:Src/LTC6811.c **** 		}
 412:Src/LTC6811.c **** 	}
 413:Src/LTC6811.c **** 
 414:Src/LTC6811.c **** 	return disconnect;
 415:Src/LTC6811.c **** }
 416:Src/LTC6811.c **** 
 417:Src/LTC6811.c **** bool dischargeCellGroups(BMSconfigStructTypedef config, bool cellDischarge[12][8]) {
 418:Src/LTC6811.c **** 	
 419:Src/LTC6811.c **** 	BMSconfigStructTypedef *cfg;
ARM GAS  C:\cygwin64\tmp\cc5fh40e.s 			page 11


 420:Src/LTC6811.c **** 	cfg = &config;
 421:Src/LTC6811.c **** 	uint8_t dummy[8];
 422:Src/LTC6811.c **** 
 423:Src/LTC6811.c **** 	cfg->DischargeCell1 = cellDischarge[0][0];
 424:Src/LTC6811.c **** 	cfg->DischargeCell2 = cellDischarge[0][1];
 425:Src/LTC6811.c **** 	cfg->DischargeCell3 = cellDischarge[0][2];
 426:Src/LTC6811.c **** 	cfg->DischargeCell4 = cellDischarge[0][3];
 427:Src/LTC6811.c **** 	cfg->DischargeCell7 = cellDischarge[0][4];
 428:Src/LTC6811.c **** 	cfg->DischargeCell8 = cellDischarge[0][5];
 429:Src/LTC6811.c **** 	cfg->DischargeCell9 = cellDischarge[0][6];
 430:Src/LTC6811.c **** 	cfg->DischargeCell10 = cellDischarge[0][7];
 431:Src/LTC6811.c **** 
 432:Src/LTC6811.c **** 	readConfig(0, dummy);
 433:Src/LTC6811.c **** 	writeConfigAddress(config, 0);
 434:Src/LTC6811.c **** 	readConfig(0, dummy);
 435:Src/LTC6811.c **** 
 436:Src/LTC6811.c **** 	cfg->DischargeCell1 = 0;
 437:Src/LTC6811.c **** 	cfg->DischargeCell2 = 0;
 438:Src/LTC6811.c **** 	cfg->DischargeCell3 = 0;
 439:Src/LTC6811.c **** 	cfg->DischargeCell4 = 0;
 440:Src/LTC6811.c **** 	cfg->DischargeCell7 = 0;
 441:Src/LTC6811.c **** 	cfg->DischargeCell8 = 0;
 442:Src/LTC6811.c **** 	cfg->DischargeCell9 = 0;
 443:Src/LTC6811.c **** 	cfg->DischargeCell10 = 0;
 444:Src/LTC6811.c **** 	
 445:Src/LTC6811.c **** 	
 446:Src/LTC6811.c **** 	// i < config.numOfICs
 447:Src/LTC6811.c **** 	/*for (uint8_t i = 0; i < config.numOfICs; i++) {
 448:Src/LTC6811.c **** 		
 449:Src/LTC6811.c **** 		cfg->DischargeCell1 = cellDischarge[i][0];
 450:Src/LTC6811.c **** 		cfg->DischargeCell2 = cellDischarge[i][1];
 451:Src/LTC6811.c **** 		cfg->DischargeCell3 = cellDischarge[i][2];
 452:Src/LTC6811.c **** 		cfg->DischargeCell4 = cellDischarge[i][3];
 453:Src/LTC6811.c **** 		cfg->DischargeCell7 = cellDischarge[i][4];
 454:Src/LTC6811.c **** 		cfg->DischargeCell8 = cellDischarge[i][5];
 455:Src/LTC6811.c **** 		cfg->DischargeCell9 = cellDischarge[i][6];
 456:Src/LTC6811.c **** 		cfg->DischargeCell10 = cellDischarge[i][7];
 457:Src/LTC6811.c **** 
 458:Src/LTC6811.c **** 		writeConfigAddress(config, config.address[i]);
 459:Src/LTC6811.c **** 
 460:Src/LTC6811.c **** 		cfg->DischargeCell1 = 0;
 461:Src/LTC6811.c **** 		cfg->DischargeCell2 = 0;
 462:Src/LTC6811.c **** 		cfg->DischargeCell3 = 0;
 463:Src/LTC6811.c **** 		cfg->DischargeCell4 = 0;
 464:Src/LTC6811.c **** 		cfg->DischargeCell7 = 0;
 465:Src/LTC6811.c **** 		cfg->DischargeCell8 = 0;
 466:Src/LTC6811.c **** 		cfg->DischargeCell9 = 0;
 467:Src/LTC6811.c **** 		cfg->DischargeCell10 = 0;
 468:Src/LTC6811.c **** 	}*/
 469:Src/LTC6811.c **** 
 470:Src/LTC6811.c **** 	return 0;
 471:Src/LTC6811.c **** 	
 472:Src/LTC6811.c **** }
 473:Src/LTC6811.c **** 
 474:Src/LTC6811.c **** /*bool dischargeCell(BMSconfigStructTypedef config, bool cellDischarge[8]) {
 475:Src/LTC6811.c **** 	
 476:Src/LTC6811.c **** 	BMSconfigStructTypedef *cfg;
ARM GAS  C:\cygwin64\tmp\cc5fh40e.s 			page 12


 477:Src/LTC6811.c **** 	cfg = &config;
 478:Src/LTC6811.c **** 	
 479:Src/LTC6811.c **** 	cfg->DischargeCell1 = cellDischarge[0];
 480:Src/LTC6811.c **** 	cfg->DischargeCell2 = cellDischarge[1];
 481:Src/LTC6811.c **** 	cfg->DischargeCell3 = cellDischarge[2];
 482:Src/LTC6811.c **** 	cfg->DischargeCell4 = cellDischarge[3];
 483:Src/LTC6811.c **** 	cfg->DischargeCell7 = cellDischarge[4];
 484:Src/LTC6811.c **** 	cfg->DischargeCell8 = cellDischarge[5];
 485:Src/LTC6811.c **** 	cfg->DischargeCell9 = cellDischarge[6];
 486:Src/LTC6811.c **** 	cfg->DischargeCell10 = cellDischarge[7];
 487:Src/LTC6811.c **** 	
 488:Src/LTC6811.c **** 	writeConfig(config, 0, 1);
 489:Src/LTC6811.c **** 	
 490:Src/LTC6811.c **** 	return 0;
 491:Src/LTC6811.c **** 	
 492:Src/LTC6811.c **** }*/
 493:Src/LTC6811.c **** 
 494:Src/LTC6811.c **** bool readRegister(CommandCodeTypedef command, uint8_t address, uint16_t *data) {
 495:Src/LTC6811.c **** 	
 496:Src/LTC6811.c **** 	//send command and address in first two bytes
 497:Src/LTC6811.c **** 	//send PEC in next two bytes
 498:Src/LTC6811.c **** 	//SPI writeread
 499:Src/LTC6811.c **** 	//calculate PEC based off received data bytes
 500:Src/LTC6811.c **** 	//if received PEC matches calculated PEC, return true (data valid)
 501:Src/LTC6811.c **** 	
 502:Src/LTC6811.c **** 	uint8_t cmd[12];
 503:Src/LTC6811.c **** 	uint8_t rx_data[12];
 504:Src/LTC6811.c **** 	uint16_t PEC_return;
 505:Src/LTC6811.c **** 	uint8_t *PEC_send;
 506:Src/LTC6811.c **** 	bool dataValid = true;
 507:Src/LTC6811.c **** 
 508:Src/LTC6811.c **** 	PEC_send = (uint8_t *)malloc(6*sizeof(uint8_t));
 509:Src/LTC6811.c **** 	
 510:Src/LTC6811.c **** 	PEC_send[0] = (uint8_t) (0x80 | ((address << 3) & 0x78) | ((command >> 8) & 0x07));
 511:Src/LTC6811.c **** 	PEC_send[1] = (uint8_t) (command & 0xFF);
 512:Src/LTC6811.c **** 
 513:Src/LTC6811.c **** 	cmd[0] = PEC_send[0];
 514:Src/LTC6811.c **** 	cmd[1] = PEC_send[1];
 515:Src/LTC6811.c **** 	
 516:Src/LTC6811.c **** 	PEC_return = calculatePEC(2, PEC_send);
 517:Src/LTC6811.c **** 	
 518:Src/LTC6811.c **** 	cmd[2] = (PEC_return >> 8) & 0xFF;
 519:Src/LTC6811.c **** 	cmd[3] = PEC_return & 0xFF;
 520:Src/LTC6811.c **** 	
 521:Src/LTC6811.c **** 	cmd[4] = 0;
 522:Src/LTC6811.c **** 	cmd[5] = 0;
 523:Src/LTC6811.c **** 	cmd[6] = 0;
 524:Src/LTC6811.c **** 	cmd[7] = 0;
 525:Src/LTC6811.c **** 	cmd[8] = 0;
 526:Src/LTC6811.c **** 	cmd[9] = 0;
 527:Src/LTC6811.c **** 	cmd[10] = 0;
 528:Src/LTC6811.c **** 	cmd[11] = 0;
 529:Src/LTC6811.c **** 	
 530:Src/LTC6811.c **** 	SPIWriteRead(cmd, rx_data, sizeof(cmd)); // send 4 command bytes, receive 6 cell voltage bytes (4-
 531:Src/LTC6811.c **** 	
 532:Src/LTC6811.c **** 	// calculate PEC based on cell voltage data received
 533:Src/LTC6811.c **** 	PEC_send[0] = rx_data[4]; // cell 1 voltage low bytes
ARM GAS  C:\cygwin64\tmp\cc5fh40e.s 			page 13


 534:Src/LTC6811.c **** 	PEC_send[1] = rx_data[5]; // cell 1 voltage high bytes
 535:Src/LTC6811.c **** 	PEC_send[2] = rx_data[6]; // cell 2 voltage low bytes
 536:Src/LTC6811.c **** 	PEC_send[3] = rx_data[7]; // cell 2 voltage high bytes
 537:Src/LTC6811.c **** 	PEC_send[4] = rx_data[8]; // cell 3 voltage low bytes
 538:Src/LTC6811.c **** 	PEC_send[5] = rx_data[9]; // cell 3 voltage high bytes
 539:Src/LTC6811.c **** 	
 540:Src/LTC6811.c **** 	PEC_return = calculatePEC(6, PEC_send);
 541:Src/LTC6811.c **** 	
 542:Src/LTC6811.c **** 	// check if received PEC matches calculated PEC
 543:Src/LTC6811.c **** 	if (PEC_return != (((rx_data[10] << 8) & 0xFF00) | (rx_data[11] & 0x00FF))) {
 544:Src/LTC6811.c **** 		dataValid = false;
 545:Src/LTC6811.c **** 	}
 546:Src/LTC6811.c **** 	
 547:Src/LTC6811.c **** 	if (command == ReadCellVoltageRegisterGroup1to3) {
 548:Src/LTC6811.c **** 		
 549:Src/LTC6811.c **** 		data[0] = (uint16_t) ((rx_data[5] << 8) & 0xFF00) | (rx_data[4] & 0x00FF);
 550:Src/LTC6811.c **** 		data[1] = (uint16_t) ((rx_data[7] << 8) & 0xFF00) | (rx_data[6] & 0x00FF);
 551:Src/LTC6811.c **** 		data[2] = (uint16_t) ((rx_data[9] << 8) & 0xFF00) | (rx_data[8] & 0x00FF);
 552:Src/LTC6811.c **** 		//data[3] = (uint16_t) ((rx_data[10] << 8) & 0xFF00) | (rx_data[11] & 0x00FF);
 553:Src/LTC6811.c **** 		//data[4] = PEC_return;
 554:Src/LTC6811.c **** 	}
 555:Src/LTC6811.c **** 
 556:Src/LTC6811.c **** 	if (command == ReadCellVoltageRegisterGroup4to6) {
 557:Src/LTC6811.c **** 		
 558:Src/LTC6811.c **** 		data[3] = (uint16_t) ((rx_data[5] << 8) & 0xFF00) | (rx_data[4] & 0x00FF);
 559:Src/LTC6811.c **** 		data[4] = (uint16_t) ((rx_data[7] << 8) & 0xFF00) | (rx_data[6] & 0x00FF);
 560:Src/LTC6811.c **** 		data[5] = (uint16_t) ((rx_data[9] << 8) & 0xFF00) | (rx_data[8] & 0x00FF);
 561:Src/LTC6811.c **** 	}
 562:Src/LTC6811.c **** 	
 563:Src/LTC6811.c **** 	if (command == ReadCellVoltageRegisterGroup7to9) {
 564:Src/LTC6811.c **** 		
 565:Src/LTC6811.c **** 		data[6] = (uint16_t) ((rx_data[5] << 8) & 0xFF00) | (rx_data[4] & 0x00FF);
 566:Src/LTC6811.c **** 		data[7] = (uint16_t) ((rx_data[7] << 8) & 0xFF00) | (rx_data[6] & 0x00FF);
 567:Src/LTC6811.c **** 		data[8] = (uint16_t) ((rx_data[9] << 8) & 0xFF00) | (rx_data[8] & 0x00FF);
 568:Src/LTC6811.c **** 	}
 569:Src/LTC6811.c **** 	
 570:Src/LTC6811.c **** 	if (command == ReadCellVoltageRegisterGroup10to12) {
 571:Src/LTC6811.c **** 		
 572:Src/LTC6811.c **** 		data[9] = (uint16_t) ((rx_data[5] << 8) & 0xFF00) | (rx_data[4] & 0x00FF);
 573:Src/LTC6811.c **** 		data[10] = (uint16_t) ((rx_data[7] << 8) & 0xFF00) | (rx_data[6] & 0x00FF);
 574:Src/LTC6811.c **** 		data[11] = (uint16_t) ((rx_data[9] << 8) & 0xFF00) | (rx_data[8] & 0x00FF);
 575:Src/LTC6811.c **** 	}
 576:Src/LTC6811.c **** 	
 577:Src/LTC6811.c **** 	if (command == ReadAuxiliaryGroupA) {
 578:Src/LTC6811.c **** 		
 579:Src/LTC6811.c **** 		data[0] = (uint16_t) ((rx_data[5] << 8) & 0xFF00) | (rx_data[4] & 0x00FF);
 580:Src/LTC6811.c **** 		data[1] = (uint16_t) ((rx_data[7] << 8) & 0xFF00) | (rx_data[6] & 0x00FF);
 581:Src/LTC6811.c **** 		data[2] = (uint16_t) ((rx_data[9] << 8) & 0xFF00) | (rx_data[8] & 0x00FF);
 582:Src/LTC6811.c **** 	}
 583:Src/LTC6811.c **** 	
 584:Src/LTC6811.c **** 	if (command == ReadAuxiliaryGroupB) {
 585:Src/LTC6811.c **** 		data[3] = (uint16_t) ((rx_data[5] << 8) & 0xFF00) | (rx_data[4] & 0x00FF);
 586:Src/LTC6811.c **** 	}
 587:Src/LTC6811.c **** 	
 588:Src/LTC6811.c **** 	if (command == ReadConfigurationRegisterGroup) {
 589:Src/LTC6811.c **** 		data[0] = (uint16_t) ((rx_data[4] << 8) & 0xFF00) | (rx_data[5] & 0x00FF);
 590:Src/LTC6811.c **** 		data[1] = (uint16_t) ((rx_data[6] << 8) & 0xFF00) | (rx_data[7] & 0x00FF);
ARM GAS  C:\cygwin64\tmp\cc5fh40e.s 			page 14


 591:Src/LTC6811.c **** 		data[2] = (uint16_t) ((rx_data[8] << 8) & 0xFF00) | (rx_data[9] & 0x00FF);
 592:Src/LTC6811.c **** 		data[3] = (uint16_t) ((rx_data[10] << 8) & 0xFF00) | (rx_data[11] & 0x00FF);
 593:Src/LTC6811.c **** 	}
 594:Src/LTC6811.c **** 	
 595:Src/LTC6811.c **** 	return(dataValid);
 596:Src/LTC6811.c **** 	
 597:Src/LTC6811.c **** };
 598:Src/LTC6811.c **** 
 599:Src/LTC6811.c **** void sendBroadcastCommand(CommandCodeTypedef command) {
 600:Src/LTC6811.c **** 	
 601:Src/LTC6811.c **** 	uint8_t cmd[4];
 602:Src/LTC6811.c **** 	uint16_t PEC_return;
 603:Src/LTC6811.c **** 	
 604:Src/LTC6811.c **** 	cmd[0] = (uint8_t) ((command >> 8) & 0x0F);
 605:Src/LTC6811.c **** 	cmd[1] = (uint8_t) (command & 0xFF);
 606:Src/LTC6811.c **** 	
 607:Src/LTC6811.c **** 	PEC_return = calculatePEC(2, (uint8_t *)&(cmd));
 608:Src/LTC6811.c **** 	
 609:Src/LTC6811.c **** 	cmd[2] = (PEC_return >> 8) & 0xFF;
 610:Src/LTC6811.c **** 	cmd[3] = PEC_return & 0xFF;
 611:Src/LTC6811.c **** 	
 612:Src/LTC6811.c **** 	SPIWrite(cmd, 4);
 613:Src/LTC6811.c **** };
 614:Src/LTC6811.c **** 
 615:Src/LTC6811.c **** void sendAddressCommand(CommandCodeTypedef command, uint8_t address) {
 616:Src/LTC6811.c **** 	
 617:Src/LTC6811.c **** 	uint8_t cmd[4];
 618:Src/LTC6811.c **** 	uint16_t PEC_return;
 619:Src/LTC6811.c **** 	uint8_t *msbytes;
 620:Src/LTC6811.c **** 	
 621:Src/LTC6811.c **** 	msbytes = (uint8_t *)malloc(2*sizeof(uint8_t));
 622:Src/LTC6811.c **** 	
 623:Src/LTC6811.c **** 	msbytes[0] = (uint8_t) (0x80 | ((address << 3) & 0x78) | ((command >> 8) & 0x07));
 624:Src/LTC6811.c **** 	msbytes[1] = (uint8_t) (command & 0xFF);
 625:Src/LTC6811.c **** 
 626:Src/LTC6811.c **** 	cmd[0] = msbytes[0];
 627:Src/LTC6811.c **** 	cmd[1] = msbytes[1];
 628:Src/LTC6811.c **** 	
 629:Src/LTC6811.c **** 	PEC_return = calculatePEC(2, msbytes);
 630:Src/LTC6811.c **** 	
 631:Src/LTC6811.c **** 	cmd[2] = (PEC_return >> 8) & 0xFF;
 632:Src/LTC6811.c **** 	cmd[3] = PEC_return & 0xFF;
 633:Src/LTC6811.c **** 	
 634:Src/LTC6811.c **** 	SPIWrite(cmd, 4);
 635:Src/LTC6811.c **** 	
 636:Src/LTC6811.c **** 	free(msbytes);
 637:Src/LTC6811.c **** };
 638:Src/LTC6811.c **** 
 639:Src/LTC6811.c **** uint16_t calculatePEC(uint8_t len, uint8_t *data) {
 134              		.loc 1 639 51 is_stmt 1 view -0
 135              		.cfi_startproc
 136              		@ args = 0, pretend = 0, frame = 0
 137              		@ frame_needed = 0, uses_anonymous_args = 0
 138              		@ link register save eliminated.
 139              		.loc 1 639 51 is_stmt 0 view .LVU35
 140 0000 30B4     		push	{r4, r5}
 141              	.LCFI0:
ARM GAS  C:\cygwin64\tmp\cc5fh40e.s 			page 15


 142              		.cfi_def_cfa_offset 8
 143              		.cfi_offset 4, -8
 144              		.cfi_offset 5, -4
 640:Src/LTC6811.c **** 	
 641:Src/LTC6811.c **** 	uint16_t remainder, address;
 145              		.loc 1 641 2 is_stmt 1 view .LVU36
 642:Src/LTC6811.c **** 	remainder = 16; //PEC seed
 146              		.loc 1 642 2 view .LVU37
 147              	.LVL13:
 643:Src/LTC6811.c **** 	
 644:Src/LTC6811.c **** 	for (int i = 0; i < len; i++) {
 148              		.loc 1 644 2 view .LVU38
 149              	.LBB5:
 150              		.loc 1 644 7 view .LVU39
 151              		.loc 1 644 11 is_stmt 0 view .LVU40
 152 0002 0024     		movs	r4, #0
 153              	.LBE5:
 642:Src/LTC6811.c **** 	remainder = 16; //PEC seed
 154              		.loc 1 642 12 view .LVU41
 155 0004 1022     		movs	r2, #16
 156              	.LVL14:
 157              	.L13:
 158              	.LBB6:
 159              		.loc 1 644 2 discriminator 1 view .LVU42
 160 0006 A042     		cmp	r0, r4
 161 0008 0BDD     		ble	.L16
 645:Src/LTC6811.c **** 		address = ((remainder >> 7) ^ data[i]) & 0xFF; //calculate PEC table address
 162              		.loc 1 645 3 is_stmt 1 discriminator 3 view .LVU43
 163              		.loc 1 645 37 is_stmt 0 discriminator 3 view .LVU44
 164 000a 0B5D     		ldrb	r3, [r1, r4]	@ zero_extendqisi2
 165              		.loc 1 645 31 discriminator 3 view .LVU45
 166 000c 83EAD213 		eor	r3, r3, r2, lsr #7
 167              		.loc 1 645 11 discriminator 3 view .LVU46
 168 0010 DBB2     		uxtb	r3, r3
 169              	.LVL15:
 646:Src/LTC6811.c **** 		remainder = (remainder << 8) ^ pec15Table[address];
 170              		.loc 1 646 3 is_stmt 1 discriminator 3 view .LVU47
 171              		.loc 1 646 44 is_stmt 0 discriminator 3 view .LVU48
 172 0012 064D     		ldr	r5, .L17
 173 0014 35F91330 		ldrsh	r3, [r5, r3, lsl #1]
 174              	.LVL16:
 175              		.loc 1 646 32 discriminator 3 view .LVU49
 176 0018 83EA0222 		eor	r2, r3, r2, lsl #8
 177              	.LVL17:
 178              		.loc 1 646 13 discriminator 3 view .LVU50
 179 001c 92B2     		uxth	r2, r2
 180              	.LVL18:
 644:Src/LTC6811.c **** 		address = ((remainder >> 7) ^ data[i]) & 0xFF; //calculate PEC table address
 181              		.loc 1 644 28 discriminator 3 view .LVU51
 182 001e 0134     		adds	r4, r4, #1
 183              	.LVL19:
 644:Src/LTC6811.c **** 		address = ((remainder >> 7) ^ data[i]) & 0xFF; //calculate PEC table address
 184              		.loc 1 644 28 discriminator 3 view .LVU52
 185 0020 F1E7     		b	.L13
 186              	.L16:
 644:Src/LTC6811.c **** 		address = ((remainder >> 7) ^ data[i]) & 0xFF; //calculate PEC table address
 187              		.loc 1 644 28 discriminator 3 view .LVU53
ARM GAS  C:\cygwin64\tmp\cc5fh40e.s 			page 16


 188              	.LBE6:
 647:Src/LTC6811.c **** 	}
 648:Src/LTC6811.c **** 	
 649:Src/LTC6811.c **** 	return (remainder * 2); //The CRC15 has a 0 in the LSB so the final value must be multiplied by 2
 189              		.loc 1 649 2 is_stmt 1 view .LVU54
 190              		.loc 1 649 20 is_stmt 0 view .LVU55
 191 0022 5000     		lsls	r0, r2, #1
 192              	.LVL20:
 193              		.loc 1 649 20 view .LVU56
 194 0024 80B2     		uxth	r0, r0
 650:Src/LTC6811.c **** };
 195              		.loc 1 650 1 view .LVU57
 196 0026 30BC     		pop	{r4, r5}
 197              	.LCFI1:
 198              		.cfi_restore 5
 199              		.cfi_restore 4
 200              		.cfi_def_cfa_offset 0
 201              	.LVL21:
 202              		.loc 1 650 1 view .LVU58
 203 0028 7047     		bx	lr
 204              	.L18:
 205 002a 00BF     		.align	2
 206              	.L17:
 207 002c 00000000 		.word	pec15Table
 208              		.cfi_endproc
 209              	.LFE80:
 211              		.section	.text.writeConfigAddress,"ax",%progbits
 212              		.align	1
 213              		.global	writeConfigAddress
 214              		.syntax unified
 215              		.thumb
 216              		.thumb_func
 217              		.fpu softvfp
 219              	writeConfigAddress:
 220              	.LVL22:
 221              	.LFB67:
 114:Src/LTC6811.c **** 
 222              		.loc 1 114 70 is_stmt 1 view -0
 223              		.cfi_startproc
 224              		@ args = 80, pretend = 16, frame = 0
 225              		@ frame_needed = 0, uses_anonymous_args = 0
 114:Src/LTC6811.c **** 
 226              		.loc 1 114 70 is_stmt 0 view .LVU60
 227 0000 84B0     		sub	sp, sp, #16
 228              	.LCFI2:
 229              		.cfi_def_cfa_offset 16
 230 0002 2DE9F047 		push	{r4, r5, r6, r7, r8, r9, r10, lr}
 231              	.LCFI3:
 232              		.cfi_def_cfa_offset 48
 233              		.cfi_offset 4, -48
 234              		.cfi_offset 5, -44
 235              		.cfi_offset 6, -40
 236              		.cfi_offset 7, -36
 237              		.cfi_offset 8, -32
 238              		.cfi_offset 9, -28
 239              		.cfi_offset 10, -24
 240              		.cfi_offset 14, -20
ARM GAS  C:\cygwin64\tmp\cc5fh40e.s 			page 17


 241 0006 08AC     		add	r4, sp, #32
 242 0008 84E80F00 		stm	r4, {r0, r1, r2, r3}
 116:Src/LTC6811.c **** 	uint8_t *cmd;
 243              		.loc 1 116 2 is_stmt 1 view .LVU61
 117:Src/LTC6811.c **** 	uint8_t cmd_len = 12;
 244              		.loc 1 117 2 view .LVU62
 118:Src/LTC6811.c **** 	uint16_t PEC_return;
 245              		.loc 1 118 2 view .LVU63
 246              	.LVL23:
 119:Src/LTC6811.c **** 	
 247              		.loc 1 119 2 view .LVU64
 121:Src/LTC6811.c **** 	
 248              		.loc 1 121 2 view .LVU65
 121:Src/LTC6811.c **** 	
 249              		.loc 1 121 19 is_stmt 0 view .LVU66
 250 000c 0C20     		movs	r0, #12
 251 000e FFF7FEFF 		bl	malloc
 252              	.LVL24:
 253 0012 0646     		mov	r6, r0
 254              	.LVL25:
 123:Src/LTC6811.c **** 	config[1] = (uint8_t) (cfg.UndervoltageComparisonVoltage & 0xFF);
 255              		.loc 1 123 2 is_stmt 1 view .LVU67
 123:Src/LTC6811.c **** 	config[1] = (uint8_t) (cfg.UndervoltageComparisonVoltage & 0xFF);
 256              		.loc 1 123 28 is_stmt 0 view .LVU68
 257 0014 9DF84E50 		ldrb	r5, [sp, #78]	@ zero_extendqisi2
 123:Src/LTC6811.c **** 	config[1] = (uint8_t) (cfg.UndervoltageComparisonVoltage & 0xFF);
 258              		.loc 1 123 14 view .LVU69
 259 0018 ED01     		lsls	r5, r5, #7
 260 001a 6DB2     		sxtb	r5, r5
 123:Src/LTC6811.c **** 	config[1] = (uint8_t) (cfg.UndervoltageComparisonVoltage & 0xFF);
 261              		.loc 1 123 58 view .LVU70
 262 001c 9DF84F30 		ldrb	r3, [sp, #79]	@ zero_extendqisi2
 123:Src/LTC6811.c **** 	config[1] = (uint8_t) (cfg.UndervoltageComparisonVoltage & 0xFF);
 263              		.loc 1 123 52 view .LVU71
 264 0020 45EA8315 		orr	r5, r5, r3, lsl #6
 265 0024 6DB2     		sxtb	r5, r5
 123:Src/LTC6811.c **** 	config[1] = (uint8_t) (cfg.UndervoltageComparisonVoltage & 0xFF);
 266              		.loc 1 123 88 view .LVU72
 267 0026 9DF85030 		ldrb	r3, [sp, #80]	@ zero_extendqisi2
 123:Src/LTC6811.c **** 	config[1] = (uint8_t) (cfg.UndervoltageComparisonVoltage & 0xFF);
 268              		.loc 1 123 82 view .LVU73
 269 002a 45EA4315 		orr	r5, r5, r3, lsl #5
 270 002e 6DB2     		sxtb	r5, r5
 123:Src/LTC6811.c **** 	config[1] = (uint8_t) (cfg.UndervoltageComparisonVoltage & 0xFF);
 271              		.loc 1 123 118 view .LVU74
 272 0030 9DF85130 		ldrb	r3, [sp, #81]	@ zero_extendqisi2
 123:Src/LTC6811.c **** 	config[1] = (uint8_t) (cfg.UndervoltageComparisonVoltage & 0xFF);
 273              		.loc 1 123 112 view .LVU75
 274 0034 45EA0315 		orr	r5, r5, r3, lsl #4
 275 0038 6DB2     		sxtb	r5, r5
 123:Src/LTC6811.c **** 	config[1] = (uint8_t) (cfg.UndervoltageComparisonVoltage & 0xFF);
 276              		.loc 1 123 148 view .LVU76
 277 003a 9DF85230 		ldrb	r3, [sp, #82]	@ zero_extendqisi2
 123:Src/LTC6811.c **** 	config[1] = (uint8_t) (cfg.UndervoltageComparisonVoltage & 0xFF);
 278              		.loc 1 123 142 view .LVU77
 279 003e 45EAC305 		orr	r5, r5, r3, lsl #3
 280 0042 6DB2     		sxtb	r5, r5
ARM GAS  C:\cygwin64\tmp\cc5fh40e.s 			page 18


 123:Src/LTC6811.c **** 	config[1] = (uint8_t) (cfg.UndervoltageComparisonVoltage & 0xFF);
 281              		.loc 1 123 178 view .LVU78
 282 0044 9DF85330 		ldrb	r3, [sp, #83]	@ zero_extendqisi2
 123:Src/LTC6811.c **** 	config[1] = (uint8_t) (cfg.UndervoltageComparisonVoltage & 0xFF);
 283              		.loc 1 123 172 view .LVU79
 284 0048 45EA8305 		orr	r5, r5, r3, lsl #2
 285 004c 6DB2     		sxtb	r5, r5
 123:Src/LTC6811.c **** 	config[1] = (uint8_t) (cfg.UndervoltageComparisonVoltage & 0xFF);
 286              		.loc 1 123 203 view .LVU80
 287 004e 9DF95430 		ldrsb	r3, [sp, #84]
 123:Src/LTC6811.c **** 	config[1] = (uint8_t) (cfg.UndervoltageComparisonVoltage & 0xFF);
 288              		.loc 1 123 197 view .LVU81
 289 0052 1D43     		orrs	r5, r5, r3
 290 0054 EDB2     		uxtb	r5, r5
 124:Src/LTC6811.c **** 	config[2] = (uint8_t) ((cfg.OvervoltageComparisonVoltage << 4) & 0xF0) | ((cfg.UndervoltageCompari
 291              		.loc 1 124 2 is_stmt 1 view .LVU82
 124:Src/LTC6811.c **** 	config[2] = (uint8_t) ((cfg.OvervoltageComparisonVoltage << 4) & 0xF0) | ((cfg.UndervoltageCompari
 292              		.loc 1 124 28 is_stmt 0 view .LVU83
 293 0056 BDF85630 		ldrh	r3, [sp, #86]
 124:Src/LTC6811.c **** 	config[2] = (uint8_t) ((cfg.OvervoltageComparisonVoltage << 4) & 0xF0) | ((cfg.UndervoltageCompari
 294              		.loc 1 124 14 view .LVU84
 295 005a 5FFA83F9 		uxtb	r9, r3
 125:Src/LTC6811.c **** 	config[3] = (uint8_t) ((cfg.OvervoltageComparisonVoltage >> 4) & 0xFF);
 296              		.loc 1 125 2 is_stmt 1 view .LVU85
 125:Src/LTC6811.c **** 	config[3] = (uint8_t) ((cfg.OvervoltageComparisonVoltage >> 4) & 0xFF);
 297              		.loc 1 125 29 is_stmt 0 view .LVU86
 298 005e BDF85880 		ldrh	r8, [sp, #88]
 125:Src/LTC6811.c **** 	config[3] = (uint8_t) ((cfg.OvervoltageComparisonVoltage >> 4) & 0xFF);
 299              		.loc 1 125 59 view .LVU87
 300 0062 4FEA0817 		lsl	r7, r8, #4
 125:Src/LTC6811.c **** 	config[3] = (uint8_t) ((cfg.OvervoltageComparisonVoltage >> 4) & 0xFF);
 301              		.loc 1 125 14 view .LVU88
 302 0066 7FB2     		sxtb	r7, r7
 125:Src/LTC6811.c **** 	config[3] = (uint8_t) ((cfg.OvervoltageComparisonVoltage >> 4) & 0xFF);
 303              		.loc 1 125 117 view .LVU89
 304 0068 C3F30323 		ubfx	r3, r3, #8, #4
 125:Src/LTC6811.c **** 	config[3] = (uint8_t) ((cfg.OvervoltageComparisonVoltage >> 4) & 0xFF);
 305              		.loc 1 125 73 view .LVU90
 306 006c 1F43     		orrs	r7, r7, r3
 307 006e FFB2     		uxtb	r7, r7
 126:Src/LTC6811.c **** 	config[4] = (uint8_t) (cfg.DischargeCell8 << 7) | (cfg.DischargeCell7 << 6) | (cfg.DischargeCell6 
 308              		.loc 1 126 2 is_stmt 1 view .LVU91
 126:Src/LTC6811.c **** 	config[4] = (uint8_t) (cfg.DischargeCell8 << 7) | (cfg.DischargeCell7 << 6) | (cfg.DischargeCell6 
 309              		.loc 1 126 14 is_stmt 0 view .LVU92
 310 0070 C8F30718 		ubfx	r8, r8, #4, #8
 127:Src/LTC6811.c **** 	config[5] = (uint8_t) ((cfg.DischargeTimeoutValue << 4) & 0xF0) | (cfg.DischargeCell12 << 3) | (cf
 311              		.loc 1 127 2 is_stmt 1 view .LVU93
 127:Src/LTC6811.c **** 	config[5] = (uint8_t) ((cfg.DischargeTimeoutValue << 4) & 0xF0) | (cfg.DischargeCell12 << 3) | (cf
 312              		.loc 1 127 28 is_stmt 0 view .LVU94
 313 0074 9DF86140 		ldrb	r4, [sp, #97]	@ zero_extendqisi2
 127:Src/LTC6811.c **** 	config[5] = (uint8_t) ((cfg.DischargeTimeoutValue << 4) & 0xF0) | (cfg.DischargeCell12 << 3) | (cf
 314              		.loc 1 127 14 view .LVU95
 315 0078 E401     		lsls	r4, r4, #7
 316 007a 64B2     		sxtb	r4, r4
 127:Src/LTC6811.c **** 	config[5] = (uint8_t) ((cfg.DischargeTimeoutValue << 4) & 0xF0) | (cfg.DischargeCell12 << 3) | (cf
 317              		.loc 1 127 56 view .LVU96
 318 007c 9DF86030 		ldrb	r3, [sp, #96]	@ zero_extendqisi2
ARM GAS  C:\cygwin64\tmp\cc5fh40e.s 			page 19


 127:Src/LTC6811.c **** 	config[5] = (uint8_t) ((cfg.DischargeTimeoutValue << 4) & 0xF0) | (cfg.DischargeCell12 << 3) | (cf
 319              		.loc 1 127 50 view .LVU97
 320 0080 44EA8314 		orr	r4, r4, r3, lsl #6
 321 0084 64B2     		sxtb	r4, r4
 127:Src/LTC6811.c **** 	config[5] = (uint8_t) ((cfg.DischargeTimeoutValue << 4) & 0xF0) | (cfg.DischargeCell12 << 3) | (cf
 322              		.loc 1 127 84 view .LVU98
 323 0086 9DF85F30 		ldrb	r3, [sp, #95]	@ zero_extendqisi2
 127:Src/LTC6811.c **** 	config[5] = (uint8_t) ((cfg.DischargeTimeoutValue << 4) & 0xF0) | (cfg.DischargeCell12 << 3) | (cf
 324              		.loc 1 127 78 view .LVU99
 325 008a 44EA4314 		orr	r4, r4, r3, lsl #5
 326 008e 64B2     		sxtb	r4, r4
 127:Src/LTC6811.c **** 	config[5] = (uint8_t) ((cfg.DischargeTimeoutValue << 4) & 0xF0) | (cfg.DischargeCell12 << 3) | (cf
 327              		.loc 1 127 112 view .LVU100
 328 0090 9DF85E30 		ldrb	r3, [sp, #94]	@ zero_extendqisi2
 127:Src/LTC6811.c **** 	config[5] = (uint8_t) ((cfg.DischargeTimeoutValue << 4) & 0xF0) | (cfg.DischargeCell12 << 3) | (cf
 329              		.loc 1 127 106 view .LVU101
 330 0094 44EA0314 		orr	r4, r4, r3, lsl #4
 331 0098 64B2     		sxtb	r4, r4
 127:Src/LTC6811.c **** 	config[5] = (uint8_t) ((cfg.DischargeTimeoutValue << 4) & 0xF0) | (cfg.DischargeCell12 << 3) | (cf
 332              		.loc 1 127 140 view .LVU102
 333 009a 9DF85D30 		ldrb	r3, [sp, #93]	@ zero_extendqisi2
 127:Src/LTC6811.c **** 	config[5] = (uint8_t) ((cfg.DischargeTimeoutValue << 4) & 0xF0) | (cfg.DischargeCell12 << 3) | (cf
 334              		.loc 1 127 134 view .LVU103
 335 009e 44EAC304 		orr	r4, r4, r3, lsl #3
 336 00a2 64B2     		sxtb	r4, r4
 127:Src/LTC6811.c **** 	config[5] = (uint8_t) ((cfg.DischargeTimeoutValue << 4) & 0xF0) | (cfg.DischargeCell12 << 3) | (cf
 337              		.loc 1 127 168 view .LVU104
 338 00a4 9DF85C30 		ldrb	r3, [sp, #92]	@ zero_extendqisi2
 127:Src/LTC6811.c **** 	config[5] = (uint8_t) ((cfg.DischargeTimeoutValue << 4) & 0xF0) | (cfg.DischargeCell12 << 3) | (cf
 339              		.loc 1 127 162 view .LVU105
 340 00a8 44EA8304 		orr	r4, r4, r3, lsl #2
 341 00ac 64B2     		sxtb	r4, r4
 127:Src/LTC6811.c **** 	config[5] = (uint8_t) ((cfg.DischargeTimeoutValue << 4) & 0xF0) | (cfg.DischargeCell12 << 3) | (cf
 342              		.loc 1 127 196 view .LVU106
 343 00ae 9DF85B30 		ldrb	r3, [sp, #91]	@ zero_extendqisi2
 127:Src/LTC6811.c **** 	config[5] = (uint8_t) ((cfg.DischargeTimeoutValue << 4) & 0xF0) | (cfg.DischargeCell12 << 3) | (cf
 344              		.loc 1 127 190 view .LVU107
 345 00b2 44EA4304 		orr	r4, r4, r3, lsl #1
 346 00b6 64B2     		sxtb	r4, r4
 127:Src/LTC6811.c **** 	config[5] = (uint8_t) ((cfg.DischargeTimeoutValue << 4) & 0xF0) | (cfg.DischargeCell12 << 3) | (cf
 347              		.loc 1 127 224 view .LVU108
 348 00b8 9DF95A30 		ldrsb	r3, [sp, #90]
 127:Src/LTC6811.c **** 	config[5] = (uint8_t) ((cfg.DischargeTimeoutValue << 4) & 0xF0) | (cfg.DischargeCell12 << 3) | (cf
 349              		.loc 1 127 218 view .LVU109
 350 00bc 1C43     		orrs	r4, r4, r3
 351 00be E4B2     		uxtb	r4, r4
 128:Src/LTC6811.c **** 	
 352              		.loc 1 128 2 is_stmt 1 view .LVU110
 128:Src/LTC6811.c **** 	
 353              		.loc 1 128 29 is_stmt 0 view .LVU111
 354 00c0 9DF866A0 		ldrb	r10, [sp, #102]	@ zero_extendqisi2
 128:Src/LTC6811.c **** 	
 355              		.loc 1 128 52 view .LVU112
 356 00c4 4FEA0A1A 		lsl	r10, r10, #4
 128:Src/LTC6811.c **** 	
 357              		.loc 1 128 14 view .LVU113
 358 00c8 4FFA8AFA 		sxtb	r10, r10
ARM GAS  C:\cygwin64\tmp\cc5fh40e.s 			page 20


 128:Src/LTC6811.c **** 	
 359              		.loc 1 128 72 view .LVU114
 360 00cc 9DF86530 		ldrb	r3, [sp, #101]	@ zero_extendqisi2
 128:Src/LTC6811.c **** 	
 361              		.loc 1 128 66 view .LVU115
 362 00d0 4AEAC30A 		orr	r10, r10, r3, lsl #3
 363 00d4 4FFA8AFA 		sxtb	r10, r10
 128:Src/LTC6811.c **** 	
 364              		.loc 1 128 101 view .LVU116
 365 00d8 9DF86430 		ldrb	r3, [sp, #100]	@ zero_extendqisi2
 128:Src/LTC6811.c **** 	
 366              		.loc 1 128 95 view .LVU117
 367 00dc 4AEA830A 		orr	r10, r10, r3, lsl #2
 368 00e0 4FFA8AFA 		sxtb	r10, r10
 128:Src/LTC6811.c **** 	
 369              		.loc 1 128 130 view .LVU118
 370 00e4 9DF86330 		ldrb	r3, [sp, #99]	@ zero_extendqisi2
 128:Src/LTC6811.c **** 	
 371              		.loc 1 128 124 view .LVU119
 372 00e8 4AEA430A 		orr	r10, r10, r3, lsl #1
 373 00ec 4FFA8AFA 		sxtb	r10, r10
 128:Src/LTC6811.c **** 	
 374              		.loc 1 128 159 view .LVU120
 375 00f0 9DF96230 		ldrsb	r3, [sp, #98]
 128:Src/LTC6811.c **** 	
 376              		.loc 1 128 153 view .LVU121
 377 00f4 4AEA030A 		orr	r10, r10, r3
 378 00f8 5FFA8AFA 		uxtb	r10, r10
 130:Src/LTC6811.c **** 	cmd[1] = (uint8_t) (WriteConfigurationRegisterGroup & 0xFF);
 379              		.loc 1 130 2 is_stmt 1 view .LVU122
 130:Src/LTC6811.c **** 	cmd[1] = (uint8_t) (WriteConfigurationRegisterGroup & 0xFF);
 380              		.loc 1 130 39 is_stmt 0 view .LVU123
 381 00fc 9DF86C30 		ldrb	r3, [sp, #108]	@ zero_extendqisi2
 382 0100 DB00     		lsls	r3, r3, #3
 130:Src/LTC6811.c **** 	cmd[1] = (uint8_t) (WriteConfigurationRegisterGroup & 0xFF);
 383              		.loc 1 130 45 view .LVU124
 384 0102 03F07803 		and	r3, r3, #120
 130:Src/LTC6811.c **** 	cmd[1] = (uint8_t) (WriteConfigurationRegisterGroup & 0xFF);
 385              		.loc 1 130 11 view .LVU125
 386 0106 43F08003 		orr	r3, r3, #128
 130:Src/LTC6811.c **** 	cmd[1] = (uint8_t) (WriteConfigurationRegisterGroup & 0xFF);
 387              		.loc 1 130 9 view .LVU126
 388 010a 0370     		strb	r3, [r0]
 131:Src/LTC6811.c **** 	
 389              		.loc 1 131 2 is_stmt 1 view .LVU127
 131:Src/LTC6811.c **** 	
 390              		.loc 1 131 9 is_stmt 0 view .LVU128
 391 010c 0123     		movs	r3, #1
 392 010e 4370     		strb	r3, [r0, #1]
 133:Src/LTC6811.c **** 	
 393              		.loc 1 133 2 is_stmt 1 view .LVU129
 133:Src/LTC6811.c **** 	
 394              		.loc 1 133 15 is_stmt 0 view .LVU130
 395 0110 0146     		mov	r1, r0
 396 0112 0220     		movs	r0, #2
 397              	.LVL26:
 133:Src/LTC6811.c **** 	
ARM GAS  C:\cygwin64\tmp\cc5fh40e.s 			page 21


 398              		.loc 1 133 15 view .LVU131
 399 0114 FFF7FEFF 		bl	calculatePEC
 400              	.LVL27:
 135:Src/LTC6811.c **** 	cmd[3] = PEC_return & 0xFF;
 401              		.loc 1 135 2 is_stmt 1 view .LVU132
 135:Src/LTC6811.c **** 	cmd[3] = PEC_return & 0xFF;
 402              		.loc 1 135 9 is_stmt 0 view .LVU133
 403 0118 030A     		lsrs	r3, r0, #8
 404 011a B370     		strb	r3, [r6, #2]
 136:Src/LTC6811.c **** 
 405              		.loc 1 136 2 is_stmt 1 view .LVU134
 136:Src/LTC6811.c **** 
 406              		.loc 1 136 9 is_stmt 0 view .LVU135
 407 011c F070     		strb	r0, [r6, #3]
 138:Src/LTC6811.c **** 	cmd[5] = config[1];
 408              		.loc 1 138 2 is_stmt 1 view .LVU136
 138:Src/LTC6811.c **** 	cmd[5] = config[1];
 409              		.loc 1 138 9 is_stmt 0 view .LVU137
 410 011e 3571     		strb	r5, [r6, #4]
 139:Src/LTC6811.c **** 	cmd[6] = config[2];
 411              		.loc 1 139 2 is_stmt 1 view .LVU138
 139:Src/LTC6811.c **** 	cmd[6] = config[2];
 412              		.loc 1 139 9 is_stmt 0 view .LVU139
 413 0120 86F80590 		strb	r9, [r6, #5]
 140:Src/LTC6811.c **** 	cmd[7] = config[3];
 414              		.loc 1 140 2 is_stmt 1 view .LVU140
 140:Src/LTC6811.c **** 	cmd[7] = config[3];
 415              		.loc 1 140 9 is_stmt 0 view .LVU141
 416 0124 B771     		strb	r7, [r6, #6]
 141:Src/LTC6811.c **** 	cmd[8] = config[4];
 417              		.loc 1 141 2 is_stmt 1 view .LVU142
 141:Src/LTC6811.c **** 	cmd[8] = config[4];
 418              		.loc 1 141 9 is_stmt 0 view .LVU143
 419 0126 86F80780 		strb	r8, [r6, #7]
 142:Src/LTC6811.c **** 	cmd[9] = config[5];
 420              		.loc 1 142 2 is_stmt 1 view .LVU144
 142:Src/LTC6811.c **** 	cmd[9] = config[5];
 421              		.loc 1 142 9 is_stmt 0 view .LVU145
 422 012a 3472     		strb	r4, [r6, #8]
 143:Src/LTC6811.c **** 	
 423              		.loc 1 143 2 is_stmt 1 view .LVU146
 143:Src/LTC6811.c **** 	
 424              		.loc 1 143 9 is_stmt 0 view .LVU147
 425 012c 86F809A0 		strb	r10, [r6, #9]
 145:Src/LTC6811.c **** 
 426              		.loc 1 145 2 is_stmt 1 view .LVU148
 145:Src/LTC6811.c **** 
 427              		.loc 1 145 15 is_stmt 0 view .LVU149
 428 0130 311D     		adds	r1, r6, #4
 429 0132 0620     		movs	r0, #6
 430              	.LVL28:
 145:Src/LTC6811.c **** 
 431              		.loc 1 145 15 view .LVU150
 432 0134 FFF7FEFF 		bl	calculatePEC
 433              	.LVL29:
 147:Src/LTC6811.c **** 	cmd[11] = PEC_return & 0xFF;
 434              		.loc 1 147 2 is_stmt 1 view .LVU151
ARM GAS  C:\cygwin64\tmp\cc5fh40e.s 			page 22


 147:Src/LTC6811.c **** 	cmd[11] = PEC_return & 0xFF;
 435              		.loc 1 147 10 is_stmt 0 view .LVU152
 436 0138 030A     		lsrs	r3, r0, #8
 437 013a B372     		strb	r3, [r6, #10]
 148:Src/LTC6811.c **** 	
 438              		.loc 1 148 2 is_stmt 1 view .LVU153
 148:Src/LTC6811.c **** 	
 439              		.loc 1 148 10 is_stmt 0 view .LVU154
 440 013c F072     		strb	r0, [r6, #11]
 150:Src/LTC6811.c **** 	
 441              		.loc 1 150 2 is_stmt 1 view .LVU155
 442 013e 0C21     		movs	r1, #12
 443 0140 3046     		mov	r0, r6
 444              	.LVL30:
 150:Src/LTC6811.c **** 	
 445              		.loc 1 150 2 is_stmt 0 view .LVU156
 446 0142 FFF7FEFF 		bl	SPIWrite
 447              	.LVL31:
 152:Src/LTC6811.c **** 
 448              		.loc 1 152 2 is_stmt 1 view .LVU157
 449 0146 3046     		mov	r0, r6
 450 0148 FFF7FEFF 		bl	free
 451              	.LVL32:
 154:Src/LTC6811.c **** 
 452              		.loc 1 154 1 is_stmt 0 view .LVU158
 453 014c BDE8F047 		pop	{r4, r5, r6, r7, r8, r9, r10, lr}
 454              	.LCFI4:
 455              		.cfi_restore 14
 456              		.cfi_restore 10
 457              		.cfi_restore 9
 458              		.cfi_restore 8
 459              		.cfi_restore 7
 460              		.cfi_restore 6
 461              		.cfi_restore 5
 462              		.cfi_restore 4
 463              		.cfi_def_cfa_offset 16
 464              	.LVL33:
 154:Src/LTC6811.c **** 
 465              		.loc 1 154 1 view .LVU159
 466 0150 04B0     		add	sp, sp, #16
 467              	.LCFI5:
 468              		.cfi_def_cfa_offset 0
 469 0152 7047     		bx	lr
 470              		.cfi_endproc
 471              	.LFE67:
 473              		.section	.text.writeConfigAll,"ax",%progbits
 474              		.align	1
 475              		.global	writeConfigAll
 476              		.syntax unified
 477              		.thumb
 478              		.thumb_func
 479              		.fpu softvfp
 481              	writeConfigAll:
 482              	.LFB68:
 156:Src/LTC6811.c **** 
 483              		.loc 1 156 49 is_stmt 1 view -0
 484              		.cfi_startproc
ARM GAS  C:\cygwin64\tmp\cc5fh40e.s 			page 23


 485              		@ args = 76, pretend = 16, frame = 0
 486              		@ frame_needed = 0, uses_anonymous_args = 0
 487 0000 84B0     		sub	sp, sp, #16
 488              	.LCFI6:
 489              		.cfi_def_cfa_offset 16
 490 0002 70B5     		push	{r4, r5, r6, lr}
 491              	.LCFI7:
 492              		.cfi_def_cfa_offset 32
 493              		.cfi_offset 4, -32
 494              		.cfi_offset 5, -28
 495              		.cfi_offset 6, -24
 496              		.cfi_offset 14, -20
 497 0004 90B0     		sub	sp, sp, #64
 498              	.LCFI8:
 499              		.cfi_def_cfa_offset 96
 500 0006 14AC     		add	r4, sp, #80
 501 0008 84E80F00 		stm	r4, {r0, r1, r2, r3}
 158:Src/LTC6811.c **** 		writeConfigAddress(cfg, cfg.address[i]);
 502              		.loc 1 158 2 view .LVU161
 503              	.LBB7:
 158:Src/LTC6811.c **** 		writeConfigAddress(cfg, cfg.address[i]);
 504              		.loc 1 158 7 view .LVU162
 505              	.LVL34:
 158:Src/LTC6811.c **** 		writeConfigAddress(cfg, cfg.address[i]);
 506              		.loc 1 158 15 is_stmt 0 view .LVU163
 507 000c 0026     		movs	r6, #0
 508              	.LVL35:
 509              	.L22:
 158:Src/LTC6811.c **** 		writeConfigAddress(cfg, cfg.address[i]);
 510              		.loc 1 158 29 discriminator 1 view .LVU164
 511 000e 9DF85030 		ldrb	r3, [sp, #80]	@ zero_extendqisi2
 158:Src/LTC6811.c **** 		writeConfigAddress(cfg, cfg.address[i]);
 512              		.loc 1 158 2 discriminator 1 view .LVU165
 513 0012 B342     		cmp	r3, r6
 514 0014 16D9     		bls	.L25
 159:Src/LTC6811.c **** 	}
 515              		.loc 1 159 3 is_stmt 1 discriminator 3 view .LVU166
 516 0016 14AB     		add	r3, sp, #80
 517 0018 3344     		add	r3, r3, r6
 518 001a 5B78     		ldrb	r3, [r3, #1]	@ zero_extendqisi2
 519 001c 0F93     		str	r3, [sp, #60]
 520 001e 6C46     		mov	r4, sp
 521 0020 18AD     		add	r5, sp, #96
 522 0022 0FCD     		ldmia	r5!, {r0, r1, r2, r3}
 523 0024 0FC4     		stmia	r4!, {r0, r1, r2, r3}
 524 0026 0FCD     		ldmia	r5!, {r0, r1, r2, r3}
 525 0028 0FC4     		stmia	r4!, {r0, r1, r2, r3}
 526 002a 0FCD     		ldmia	r5!, {r0, r1, r2, r3}
 527 002c 0FC4     		stmia	r4!, {r0, r1, r2, r3}
 528 002e 95E80700 		ldm	r5, {r0, r1, r2}
 529 0032 03C4     		stmia	r4!, {r0, r1}
 530 0034 2280     		strh	r2, [r4]	@ movhi
 531 0036 14AB     		add	r3, sp, #80
 532 0038 0FCB     		ldm	r3, {r0, r1, r2, r3}
 533 003a FFF7FEFF 		bl	writeConfigAddress
 534              	.LVL36:
 158:Src/LTC6811.c **** 		writeConfigAddress(cfg, cfg.address[i]);
ARM GAS  C:\cygwin64\tmp\cc5fh40e.s 			page 24


 535              		.loc 1 158 41 is_stmt 0 discriminator 3 view .LVU167
 536 003e 0136     		adds	r6, r6, #1
 537              	.LVL37:
 158:Src/LTC6811.c **** 		writeConfigAddress(cfg, cfg.address[i]);
 538              		.loc 1 158 41 discriminator 3 view .LVU168
 539 0040 F6B2     		uxtb	r6, r6
 540              	.LVL38:
 158:Src/LTC6811.c **** 		writeConfigAddress(cfg, cfg.address[i]);
 541              		.loc 1 158 41 discriminator 3 view .LVU169
 542 0042 E4E7     		b	.L22
 543              	.L25:
 158:Src/LTC6811.c **** 		writeConfigAddress(cfg, cfg.address[i]);
 544              		.loc 1 158 41 discriminator 3 view .LVU170
 545              	.LBE7:
 161:Src/LTC6811.c **** 
 546              		.loc 1 161 1 view .LVU171
 547 0044 10B0     		add	sp, sp, #64
 548              	.LCFI9:
 549              		.cfi_def_cfa_offset 32
 550              		@ sp needed
 551 0046 BDE87040 		pop	{r4, r5, r6, lr}
 552              	.LCFI10:
 553              		.cfi_restore 14
 554              		.cfi_restore 6
 555              		.cfi_restore 5
 556              		.cfi_restore 4
 557              		.cfi_def_cfa_offset 16
 558              	.LVL39:
 161:Src/LTC6811.c **** 
 559              		.loc 1 161 1 view .LVU172
 560 004a 04B0     		add	sp, sp, #16
 561              	.LCFI11:
 562              		.cfi_def_cfa_offset 0
 563 004c 7047     		bx	lr
 564              		.cfi_endproc
 565              	.LFE68:
 567              		.section	.text.readRegister,"ax",%progbits
 568              		.align	1
 569              		.global	readRegister
 570              		.syntax unified
 571              		.thumb
 572              		.thumb_func
 573              		.fpu softvfp
 575              	readRegister:
 576              	.LVL40:
 577              	.LFB77:
 494:Src/LTC6811.c **** 	
 578              		.loc 1 494 80 is_stmt 1 view -0
 579              		.cfi_startproc
 580              		@ args = 0, pretend = 0, frame = 24
 581              		@ frame_needed = 0, uses_anonymous_args = 0
 494:Src/LTC6811.c **** 	
 582              		.loc 1 494 80 is_stmt 0 view .LVU174
 583 0000 F0B5     		push	{r4, r5, r6, r7, lr}
 584              	.LCFI12:
 585              		.cfi_def_cfa_offset 20
 586              		.cfi_offset 4, -20
ARM GAS  C:\cygwin64\tmp\cc5fh40e.s 			page 25


 587              		.cfi_offset 5, -16
 588              		.cfi_offset 6, -12
 589              		.cfi_offset 7, -8
 590              		.cfi_offset 14, -4
 591 0002 87B0     		sub	sp, sp, #28
 592              	.LCFI13:
 593              		.cfi_def_cfa_offset 48
 594 0004 0646     		mov	r6, r0
 595 0006 0C46     		mov	r4, r1
 596 0008 1746     		mov	r7, r2
 502:Src/LTC6811.c **** 	uint8_t rx_data[12];
 597              		.loc 1 502 2 is_stmt 1 view .LVU175
 503:Src/LTC6811.c **** 	uint16_t PEC_return;
 598              		.loc 1 503 2 view .LVU176
 504:Src/LTC6811.c **** 	uint8_t *PEC_send;
 599              		.loc 1 504 2 view .LVU177
 505:Src/LTC6811.c **** 	bool dataValid = true;
 600              		.loc 1 505 2 view .LVU178
 506:Src/LTC6811.c **** 
 601              		.loc 1 506 2 view .LVU179
 602              	.LVL41:
 508:Src/LTC6811.c **** 	
 603              		.loc 1 508 2 view .LVU180
 508:Src/LTC6811.c **** 	
 604              		.loc 1 508 24 is_stmt 0 view .LVU181
 605 000a 0620     		movs	r0, #6
 606              	.LVL42:
 508:Src/LTC6811.c **** 	
 607              		.loc 1 508 24 view .LVU182
 608 000c FFF7FEFF 		bl	malloc
 609              	.LVL43:
 508:Src/LTC6811.c **** 	
 610              		.loc 1 508 24 view .LVU183
 611 0010 0546     		mov	r5, r0
 612              	.LVL44:
 510:Src/LTC6811.c **** 	PEC_send[1] = (uint8_t) (command & 0xFF);
 613              		.loc 1 510 2 is_stmt 1 view .LVU184
 510:Src/LTC6811.c **** 	PEC_send[1] = (uint8_t) (command & 0xFF);
 614              		.loc 1 510 44 is_stmt 0 view .LVU185
 615 0012 E300     		lsls	r3, r4, #3
 510:Src/LTC6811.c **** 	PEC_send[1] = (uint8_t) (command & 0xFF);
 616              		.loc 1 510 50 view .LVU186
 617 0014 03F07803 		and	r3, r3, #120
 510:Src/LTC6811.c **** 	PEC_send[1] = (uint8_t) (command & 0xFF);
 618              		.loc 1 510 32 view .LVU187
 619 0018 63F07F03 		orn	r3, r3, #127
 510:Src/LTC6811.c **** 	PEC_send[1] = (uint8_t) (command & 0xFF);
 620              		.loc 1 510 76 view .LVU188
 621 001c C6F30224 		ubfx	r4, r6, #8, #3
 510:Src/LTC6811.c **** 	PEC_send[1] = (uint8_t) (command & 0xFF);
 622              		.loc 1 510 58 view .LVU189
 623 0020 2343     		orrs	r3, r3, r4
 510:Src/LTC6811.c **** 	PEC_send[1] = (uint8_t) (command & 0xFF);
 624              		.loc 1 510 16 view .LVU190
 625 0022 DBB2     		uxtb	r3, r3
 510:Src/LTC6811.c **** 	PEC_send[1] = (uint8_t) (command & 0xFF);
 626              		.loc 1 510 14 view .LVU191
ARM GAS  C:\cygwin64\tmp\cc5fh40e.s 			page 26


 627 0024 0370     		strb	r3, [r0]
 511:Src/LTC6811.c **** 
 628              		.loc 1 511 2 is_stmt 1 view .LVU192
 511:Src/LTC6811.c **** 
 629              		.loc 1 511 16 is_stmt 0 view .LVU193
 630 0026 F2B2     		uxtb	r2, r6
 511:Src/LTC6811.c **** 
 631              		.loc 1 511 14 view .LVU194
 632 0028 4270     		strb	r2, [r0, #1]
 513:Src/LTC6811.c **** 	cmd[1] = PEC_send[1];
 633              		.loc 1 513 2 is_stmt 1 view .LVU195
 513:Src/LTC6811.c **** 	cmd[1] = PEC_send[1];
 634              		.loc 1 513 9 is_stmt 0 view .LVU196
 635 002a 8DF80C30 		strb	r3, [sp, #12]
 514:Src/LTC6811.c **** 	
 636              		.loc 1 514 2 is_stmt 1 view .LVU197
 514:Src/LTC6811.c **** 	
 637              		.loc 1 514 9 is_stmt 0 view .LVU198
 638 002e 8DF80D20 		strb	r2, [sp, #13]
 516:Src/LTC6811.c **** 	
 639              		.loc 1 516 2 is_stmt 1 view .LVU199
 516:Src/LTC6811.c **** 	
 640              		.loc 1 516 15 is_stmt 0 view .LVU200
 641 0032 0146     		mov	r1, r0
 642 0034 0220     		movs	r0, #2
 643              	.LVL45:
 516:Src/LTC6811.c **** 	
 644              		.loc 1 516 15 view .LVU201
 645 0036 FFF7FEFF 		bl	calculatePEC
 646              	.LVL46:
 518:Src/LTC6811.c **** 	cmd[3] = PEC_return & 0xFF;
 647              		.loc 1 518 2 is_stmt 1 view .LVU202
 518:Src/LTC6811.c **** 	cmd[3] = PEC_return & 0xFF;
 648              		.loc 1 518 9 is_stmt 0 view .LVU203
 649 003a 030A     		lsrs	r3, r0, #8
 650 003c 8DF80E30 		strb	r3, [sp, #14]
 519:Src/LTC6811.c **** 	
 651              		.loc 1 519 2 is_stmt 1 view .LVU204
 519:Src/LTC6811.c **** 	
 652              		.loc 1 519 9 is_stmt 0 view .LVU205
 653 0040 8DF80F00 		strb	r0, [sp, #15]
 521:Src/LTC6811.c **** 	cmd[5] = 0;
 654              		.loc 1 521 2 is_stmt 1 view .LVU206
 521:Src/LTC6811.c **** 	cmd[5] = 0;
 655              		.loc 1 521 9 is_stmt 0 view .LVU207
 656 0044 0023     		movs	r3, #0
 657 0046 8DF81030 		strb	r3, [sp, #16]
 522:Src/LTC6811.c **** 	cmd[6] = 0;
 658              		.loc 1 522 2 is_stmt 1 view .LVU208
 522:Src/LTC6811.c **** 	cmd[6] = 0;
 659              		.loc 1 522 9 is_stmt 0 view .LVU209
 660 004a 8DF81130 		strb	r3, [sp, #17]
 523:Src/LTC6811.c **** 	cmd[7] = 0;
 661              		.loc 1 523 2 is_stmt 1 view .LVU210
 523:Src/LTC6811.c **** 	cmd[7] = 0;
 662              		.loc 1 523 9 is_stmt 0 view .LVU211
 663 004e 8DF81230 		strb	r3, [sp, #18]
ARM GAS  C:\cygwin64\tmp\cc5fh40e.s 			page 27


 524:Src/LTC6811.c **** 	cmd[8] = 0;
 664              		.loc 1 524 2 is_stmt 1 view .LVU212
 524:Src/LTC6811.c **** 	cmd[8] = 0;
 665              		.loc 1 524 9 is_stmt 0 view .LVU213
 666 0052 8DF81330 		strb	r3, [sp, #19]
 525:Src/LTC6811.c **** 	cmd[9] = 0;
 667              		.loc 1 525 2 is_stmt 1 view .LVU214
 525:Src/LTC6811.c **** 	cmd[9] = 0;
 668              		.loc 1 525 9 is_stmt 0 view .LVU215
 669 0056 8DF81430 		strb	r3, [sp, #20]
 526:Src/LTC6811.c **** 	cmd[10] = 0;
 670              		.loc 1 526 2 is_stmt 1 view .LVU216
 526:Src/LTC6811.c **** 	cmd[10] = 0;
 671              		.loc 1 526 9 is_stmt 0 view .LVU217
 672 005a 8DF81530 		strb	r3, [sp, #21]
 527:Src/LTC6811.c **** 	cmd[11] = 0;
 673              		.loc 1 527 2 is_stmt 1 view .LVU218
 527:Src/LTC6811.c **** 	cmd[11] = 0;
 674              		.loc 1 527 10 is_stmt 0 view .LVU219
 675 005e 8DF81630 		strb	r3, [sp, #22]
 528:Src/LTC6811.c **** 	
 676              		.loc 1 528 2 is_stmt 1 view .LVU220
 528:Src/LTC6811.c **** 	
 677              		.loc 1 528 10 is_stmt 0 view .LVU221
 678 0062 8DF81730 		strb	r3, [sp, #23]
 530:Src/LTC6811.c **** 	
 679              		.loc 1 530 2 is_stmt 1 view .LVU222
 680 0066 0C22     		movs	r2, #12
 681 0068 6946     		mov	r1, sp
 682 006a 0DEB0200 		add	r0, sp, r2
 683              	.LVL47:
 530:Src/LTC6811.c **** 	
 684              		.loc 1 530 2 is_stmt 0 view .LVU223
 685 006e FFF7FEFF 		bl	SPIWriteRead
 686              	.LVL48:
 533:Src/LTC6811.c **** 	PEC_send[1] = rx_data[5]; // cell 1 voltage high bytes
 687              		.loc 1 533 2 is_stmt 1 view .LVU224
 533:Src/LTC6811.c **** 	PEC_send[1] = rx_data[5]; // cell 1 voltage high bytes
 688              		.loc 1 533 23 is_stmt 0 view .LVU225
 689 0072 9DF80430 		ldrb	r3, [sp, #4]	@ zero_extendqisi2
 533:Src/LTC6811.c **** 	PEC_send[1] = rx_data[5]; // cell 1 voltage high bytes
 690              		.loc 1 533 14 view .LVU226
 691 0076 2B70     		strb	r3, [r5]
 534:Src/LTC6811.c **** 	PEC_send[2] = rx_data[6]; // cell 2 voltage low bytes
 692              		.loc 1 534 2 is_stmt 1 view .LVU227
 534:Src/LTC6811.c **** 	PEC_send[2] = rx_data[6]; // cell 2 voltage low bytes
 693              		.loc 1 534 23 is_stmt 0 view .LVU228
 694 0078 9DF80530 		ldrb	r3, [sp, #5]	@ zero_extendqisi2
 534:Src/LTC6811.c **** 	PEC_send[2] = rx_data[6]; // cell 2 voltage low bytes
 695              		.loc 1 534 14 view .LVU229
 696 007c 6B70     		strb	r3, [r5, #1]
 535:Src/LTC6811.c **** 	PEC_send[3] = rx_data[7]; // cell 2 voltage high bytes
 697              		.loc 1 535 2 is_stmt 1 view .LVU230
 535:Src/LTC6811.c **** 	PEC_send[3] = rx_data[7]; // cell 2 voltage high bytes
 698              		.loc 1 535 23 is_stmt 0 view .LVU231
 699 007e 9DF80630 		ldrb	r3, [sp, #6]	@ zero_extendqisi2
 535:Src/LTC6811.c **** 	PEC_send[3] = rx_data[7]; // cell 2 voltage high bytes
ARM GAS  C:\cygwin64\tmp\cc5fh40e.s 			page 28


 700              		.loc 1 535 14 view .LVU232
 701 0082 AB70     		strb	r3, [r5, #2]
 536:Src/LTC6811.c **** 	PEC_send[4] = rx_data[8]; // cell 3 voltage low bytes
 702              		.loc 1 536 2 is_stmt 1 view .LVU233
 536:Src/LTC6811.c **** 	PEC_send[4] = rx_data[8]; // cell 3 voltage low bytes
 703              		.loc 1 536 23 is_stmt 0 view .LVU234
 704 0084 9DF80730 		ldrb	r3, [sp, #7]	@ zero_extendqisi2
 536:Src/LTC6811.c **** 	PEC_send[4] = rx_data[8]; // cell 3 voltage low bytes
 705              		.loc 1 536 14 view .LVU235
 706 0088 EB70     		strb	r3, [r5, #3]
 537:Src/LTC6811.c **** 	PEC_send[5] = rx_data[9]; // cell 3 voltage high bytes
 707              		.loc 1 537 2 is_stmt 1 view .LVU236
 537:Src/LTC6811.c **** 	PEC_send[5] = rx_data[9]; // cell 3 voltage high bytes
 708              		.loc 1 537 23 is_stmt 0 view .LVU237
 709 008a 9DF80830 		ldrb	r3, [sp, #8]	@ zero_extendqisi2
 537:Src/LTC6811.c **** 	PEC_send[5] = rx_data[9]; // cell 3 voltage high bytes
 710              		.loc 1 537 14 view .LVU238
 711 008e 2B71     		strb	r3, [r5, #4]
 538:Src/LTC6811.c **** 	
 712              		.loc 1 538 2 is_stmt 1 view .LVU239
 538:Src/LTC6811.c **** 	
 713              		.loc 1 538 23 is_stmt 0 view .LVU240
 714 0090 9DF80930 		ldrb	r3, [sp, #9]	@ zero_extendqisi2
 538:Src/LTC6811.c **** 	
 715              		.loc 1 538 14 view .LVU241
 716 0094 6B71     		strb	r3, [r5, #5]
 540:Src/LTC6811.c **** 	
 717              		.loc 1 540 2 is_stmt 1 view .LVU242
 540:Src/LTC6811.c **** 	
 718              		.loc 1 540 15 is_stmt 0 view .LVU243
 719 0096 2946     		mov	r1, r5
 720 0098 0620     		movs	r0, #6
 721 009a FFF7FEFF 		bl	calculatePEC
 722              	.LVL49:
 543:Src/LTC6811.c **** 		dataValid = false;
 723              		.loc 1 543 2 is_stmt 1 view .LVU244
 543:Src/LTC6811.c **** 		dataValid = false;
 724              		.loc 1 543 30 is_stmt 0 view .LVU245
 725 009e 9DF80A20 		ldrb	r2, [sp, #10]	@ zero_extendqisi2
 543:Src/LTC6811.c **** 		dataValid = false;
 726              		.loc 1 543 61 view .LVU246
 727 00a2 9DF80B30 		ldrb	r3, [sp, #11]	@ zero_extendqisi2
 543:Src/LTC6811.c **** 		dataValid = false;
 728              		.loc 1 543 51 view .LVU247
 729 00a6 43EA0223 		orr	r3, r3, r2, lsl #8
 543:Src/LTC6811.c **** 		dataValid = false;
 730              		.loc 1 543 5 view .LVU248
 731 00aa 9842     		cmp	r0, r3
 732 00ac 12D0     		beq	.L37
 544:Src/LTC6811.c **** 	}
 733              		.loc 1 544 13 view .LVU249
 734 00ae 0020     		movs	r0, #0
 735              	.LVL50:
 736              	.L27:
 547:Src/LTC6811.c **** 		
 737              		.loc 1 547 2 is_stmt 1 view .LVU250
 547:Src/LTC6811.c **** 		
ARM GAS  C:\cygwin64\tmp\cc5fh40e.s 			page 29


 738              		.loc 1 547 5 is_stmt 0 view .LVU251
 739 00b0 042E     		cmp	r6, #4
 740 00b2 11D0     		beq	.L38
 741              	.L28:
 556:Src/LTC6811.c **** 		
 742              		.loc 1 556 2 is_stmt 1 view .LVU252
 556:Src/LTC6811.c **** 		
 743              		.loc 1 556 5 is_stmt 0 view .LVU253
 744 00b4 062E     		cmp	r6, #6
 745 00b6 28D0     		beq	.L39
 746              	.L29:
 563:Src/LTC6811.c **** 		
 747              		.loc 1 563 2 is_stmt 1 view .LVU254
 563:Src/LTC6811.c **** 		
 748              		.loc 1 563 5 is_stmt 0 view .LVU255
 749 00b8 082E     		cmp	r6, #8
 750 00ba 3FD0     		beq	.L40
 751              	.L30:
 570:Src/LTC6811.c **** 		
 752              		.loc 1 570 2 is_stmt 1 view .LVU256
 570:Src/LTC6811.c **** 		
 753              		.loc 1 570 5 is_stmt 0 view .LVU257
 754 00bc 0A2E     		cmp	r6, #10
 755 00be 56D0     		beq	.L41
 756              	.L31:
 577:Src/LTC6811.c **** 		
 757              		.loc 1 577 2 is_stmt 1 view .LVU258
 577:Src/LTC6811.c **** 		
 758              		.loc 1 577 5 is_stmt 0 view .LVU259
 759 00c0 0C2E     		cmp	r6, #12
 760 00c2 6DD0     		beq	.L42
 761              	.L32:
 584:Src/LTC6811.c **** 		data[3] = (uint16_t) ((rx_data[5] << 8) & 0xFF00) | (rx_data[4] & 0x00FF);
 762              		.loc 1 584 2 is_stmt 1 view .LVU260
 584:Src/LTC6811.c **** 		data[3] = (uint16_t) ((rx_data[5] << 8) & 0xFF00) | (rx_data[4] & 0x00FF);
 763              		.loc 1 584 5 is_stmt 0 view .LVU261
 764 00c4 0E2E     		cmp	r6, #14
 765 00c6 00F08480 		beq	.L43
 766              	.L33:
 588:Src/LTC6811.c **** 		data[0] = (uint16_t) ((rx_data[4] << 8) & 0xFF00) | (rx_data[5] & 0x00FF);
 767              		.loc 1 588 2 is_stmt 1 view .LVU262
 588:Src/LTC6811.c **** 		data[0] = (uint16_t) ((rx_data[4] << 8) & 0xFF00) | (rx_data[5] & 0x00FF);
 768              		.loc 1 588 5 is_stmt 0 view .LVU263
 769 00ca 022E     		cmp	r6, #2
 770 00cc 00F08A80 		beq	.L44
 771              	.L34:
 595:Src/LTC6811.c **** 	
 772              		.loc 1 595 2 is_stmt 1 view .LVU264
 597:Src/LTC6811.c **** 
 773              		.loc 1 597 1 is_stmt 0 view .LVU265
 774 00d0 07B0     		add	sp, sp, #28
 775              	.LCFI14:
 776              		.cfi_remember_state
 777              		.cfi_def_cfa_offset 20
 778              		@ sp needed
 779 00d2 F0BD     		pop	{r4, r5, r6, r7, pc}
 780              	.LVL51:
ARM GAS  C:\cygwin64\tmp\cc5fh40e.s 			page 30


 781              	.L37:
 782              	.LCFI15:
 783              		.cfi_restore_state
 506:Src/LTC6811.c **** 
 784              		.loc 1 506 7 view .LVU266
 785 00d4 0120     		movs	r0, #1
 786              	.LVL52:
 506:Src/LTC6811.c **** 
 787              		.loc 1 506 7 view .LVU267
 788 00d6 EBE7     		b	.L27
 789              	.LVL53:
 790              	.L38:
 549:Src/LTC6811.c **** 		data[1] = (uint16_t) ((rx_data[7] << 8) & 0xFF00) | (rx_data[6] & 0x00FF);
 791              		.loc 1 549 3 is_stmt 1 view .LVU268
 549:Src/LTC6811.c **** 		data[1] = (uint16_t) ((rx_data[7] << 8) & 0xFF00) | (rx_data[6] & 0x00FF);
 792              		.loc 1 549 33 is_stmt 0 view .LVU269
 793 00d8 9DF80530 		ldrb	r3, [sp, #5]	@ zero_extendqisi2
 549:Src/LTC6811.c **** 		data[1] = (uint16_t) ((rx_data[7] << 8) & 0xFF00) | (rx_data[6] & 0x00FF);
 794              		.loc 1 549 37 view .LVU270
 795 00dc 1B02     		lsls	r3, r3, #8
 549:Src/LTC6811.c **** 		data[1] = (uint16_t) ((rx_data[7] << 8) & 0xFF00) | (rx_data[6] & 0x00FF);
 796              		.loc 1 549 13 view .LVU271
 797 00de 1BB2     		sxth	r3, r3
 549:Src/LTC6811.c **** 		data[1] = (uint16_t) ((rx_data[7] << 8) & 0xFF00) | (rx_data[6] & 0x00FF);
 798              		.loc 1 549 63 view .LVU272
 799 00e0 9DF80420 		ldrb	r2, [sp, #4]	@ zero_extendqisi2
 549:Src/LTC6811.c **** 		data[1] = (uint16_t) ((rx_data[7] << 8) & 0xFF00) | (rx_data[6] & 0x00FF);
 800              		.loc 1 549 53 view .LVU273
 801 00e4 1343     		orrs	r3, r3, r2
 549:Src/LTC6811.c **** 		data[1] = (uint16_t) ((rx_data[7] << 8) & 0xFF00) | (rx_data[6] & 0x00FF);
 802              		.loc 1 549 11 view .LVU274
 803 00e6 3B80     		strh	r3, [r7]	@ movhi
 550:Src/LTC6811.c **** 		data[2] = (uint16_t) ((rx_data[9] << 8) & 0xFF00) | (rx_data[8] & 0x00FF);
 804              		.loc 1 550 3 is_stmt 1 view .LVU275
 550:Src/LTC6811.c **** 		data[2] = (uint16_t) ((rx_data[9] << 8) & 0xFF00) | (rx_data[8] & 0x00FF);
 805              		.loc 1 550 33 is_stmt 0 view .LVU276
 806 00e8 9DF80730 		ldrb	r3, [sp, #7]	@ zero_extendqisi2
 550:Src/LTC6811.c **** 		data[2] = (uint16_t) ((rx_data[9] << 8) & 0xFF00) | (rx_data[8] & 0x00FF);
 807              		.loc 1 550 37 view .LVU277
 808 00ec 1B02     		lsls	r3, r3, #8
 550:Src/LTC6811.c **** 		data[2] = (uint16_t) ((rx_data[9] << 8) & 0xFF00) | (rx_data[8] & 0x00FF);
 809              		.loc 1 550 13 view .LVU278
 810 00ee 1BB2     		sxth	r3, r3
 550:Src/LTC6811.c **** 		data[2] = (uint16_t) ((rx_data[9] << 8) & 0xFF00) | (rx_data[8] & 0x00FF);
 811              		.loc 1 550 63 view .LVU279
 812 00f0 9DF80620 		ldrb	r2, [sp, #6]	@ zero_extendqisi2
 550:Src/LTC6811.c **** 		data[2] = (uint16_t) ((rx_data[9] << 8) & 0xFF00) | (rx_data[8] & 0x00FF);
 813              		.loc 1 550 53 view .LVU280
 814 00f4 1343     		orrs	r3, r3, r2
 550:Src/LTC6811.c **** 		data[2] = (uint16_t) ((rx_data[9] << 8) & 0xFF00) | (rx_data[8] & 0x00FF);
 815              		.loc 1 550 11 view .LVU281
 816 00f6 7B80     		strh	r3, [r7, #2]	@ movhi
 551:Src/LTC6811.c **** 		//data[3] = (uint16_t) ((rx_data[10] << 8) & 0xFF00) | (rx_data[11] & 0x00FF);
 817              		.loc 1 551 3 is_stmt 1 view .LVU282
 551:Src/LTC6811.c **** 		//data[3] = (uint16_t) ((rx_data[10] << 8) & 0xFF00) | (rx_data[11] & 0x00FF);
 818              		.loc 1 551 33 is_stmt 0 view .LVU283
 819 00f8 9DF80930 		ldrb	r3, [sp, #9]	@ zero_extendqisi2
ARM GAS  C:\cygwin64\tmp\cc5fh40e.s 			page 31


 551:Src/LTC6811.c **** 		//data[3] = (uint16_t) ((rx_data[10] << 8) & 0xFF00) | (rx_data[11] & 0x00FF);
 820              		.loc 1 551 37 view .LVU284
 821 00fc 1B02     		lsls	r3, r3, #8
 551:Src/LTC6811.c **** 		//data[3] = (uint16_t) ((rx_data[10] << 8) & 0xFF00) | (rx_data[11] & 0x00FF);
 822              		.loc 1 551 13 view .LVU285
 823 00fe 1BB2     		sxth	r3, r3
 551:Src/LTC6811.c **** 		//data[3] = (uint16_t) ((rx_data[10] << 8) & 0xFF00) | (rx_data[11] & 0x00FF);
 824              		.loc 1 551 63 view .LVU286
 825 0100 9DF80820 		ldrb	r2, [sp, #8]	@ zero_extendqisi2
 551:Src/LTC6811.c **** 		//data[3] = (uint16_t) ((rx_data[10] << 8) & 0xFF00) | (rx_data[11] & 0x00FF);
 826              		.loc 1 551 53 view .LVU287
 827 0104 1343     		orrs	r3, r3, r2
 551:Src/LTC6811.c **** 		//data[3] = (uint16_t) ((rx_data[10] << 8) & 0xFF00) | (rx_data[11] & 0x00FF);
 828              		.loc 1 551 11 view .LVU288
 829 0106 BB80     		strh	r3, [r7, #4]	@ movhi
 830 0108 D4E7     		b	.L28
 831              	.L39:
 558:Src/LTC6811.c **** 		data[4] = (uint16_t) ((rx_data[7] << 8) & 0xFF00) | (rx_data[6] & 0x00FF);
 832              		.loc 1 558 3 is_stmt 1 view .LVU289
 558:Src/LTC6811.c **** 		data[4] = (uint16_t) ((rx_data[7] << 8) & 0xFF00) | (rx_data[6] & 0x00FF);
 833              		.loc 1 558 33 is_stmt 0 view .LVU290
 834 010a 9DF80530 		ldrb	r3, [sp, #5]	@ zero_extendqisi2
 558:Src/LTC6811.c **** 		data[4] = (uint16_t) ((rx_data[7] << 8) & 0xFF00) | (rx_data[6] & 0x00FF);
 835              		.loc 1 558 37 view .LVU291
 836 010e 1B02     		lsls	r3, r3, #8
 558:Src/LTC6811.c **** 		data[4] = (uint16_t) ((rx_data[7] << 8) & 0xFF00) | (rx_data[6] & 0x00FF);
 837              		.loc 1 558 13 view .LVU292
 838 0110 1BB2     		sxth	r3, r3
 558:Src/LTC6811.c **** 		data[4] = (uint16_t) ((rx_data[7] << 8) & 0xFF00) | (rx_data[6] & 0x00FF);
 839              		.loc 1 558 63 view .LVU293
 840 0112 9DF80420 		ldrb	r2, [sp, #4]	@ zero_extendqisi2
 558:Src/LTC6811.c **** 		data[4] = (uint16_t) ((rx_data[7] << 8) & 0xFF00) | (rx_data[6] & 0x00FF);
 841              		.loc 1 558 53 view .LVU294
 842 0116 1343     		orrs	r3, r3, r2
 558:Src/LTC6811.c **** 		data[4] = (uint16_t) ((rx_data[7] << 8) & 0xFF00) | (rx_data[6] & 0x00FF);
 843              		.loc 1 558 11 view .LVU295
 844 0118 FB80     		strh	r3, [r7, #6]	@ movhi
 559:Src/LTC6811.c **** 		data[5] = (uint16_t) ((rx_data[9] << 8) & 0xFF00) | (rx_data[8] & 0x00FF);
 845              		.loc 1 559 3 is_stmt 1 view .LVU296
 559:Src/LTC6811.c **** 		data[5] = (uint16_t) ((rx_data[9] << 8) & 0xFF00) | (rx_data[8] & 0x00FF);
 846              		.loc 1 559 33 is_stmt 0 view .LVU297
 847 011a 9DF80730 		ldrb	r3, [sp, #7]	@ zero_extendqisi2
 559:Src/LTC6811.c **** 		data[5] = (uint16_t) ((rx_data[9] << 8) & 0xFF00) | (rx_data[8] & 0x00FF);
 848              		.loc 1 559 37 view .LVU298
 849 011e 1B02     		lsls	r3, r3, #8
 559:Src/LTC6811.c **** 		data[5] = (uint16_t) ((rx_data[9] << 8) & 0xFF00) | (rx_data[8] & 0x00FF);
 850              		.loc 1 559 13 view .LVU299
 851 0120 1BB2     		sxth	r3, r3
 559:Src/LTC6811.c **** 		data[5] = (uint16_t) ((rx_data[9] << 8) & 0xFF00) | (rx_data[8] & 0x00FF);
 852              		.loc 1 559 63 view .LVU300
 853 0122 9DF80620 		ldrb	r2, [sp, #6]	@ zero_extendqisi2
 559:Src/LTC6811.c **** 		data[5] = (uint16_t) ((rx_data[9] << 8) & 0xFF00) | (rx_data[8] & 0x00FF);
 854              		.loc 1 559 53 view .LVU301
 855 0126 1343     		orrs	r3, r3, r2
 559:Src/LTC6811.c **** 		data[5] = (uint16_t) ((rx_data[9] << 8) & 0xFF00) | (rx_data[8] & 0x00FF);
 856              		.loc 1 559 11 view .LVU302
 857 0128 3B81     		strh	r3, [r7, #8]	@ movhi
ARM GAS  C:\cygwin64\tmp\cc5fh40e.s 			page 32


 560:Src/LTC6811.c **** 	}
 858              		.loc 1 560 3 is_stmt 1 view .LVU303
 560:Src/LTC6811.c **** 	}
 859              		.loc 1 560 33 is_stmt 0 view .LVU304
 860 012a 9DF80930 		ldrb	r3, [sp, #9]	@ zero_extendqisi2
 560:Src/LTC6811.c **** 	}
 861              		.loc 1 560 37 view .LVU305
 862 012e 1B02     		lsls	r3, r3, #8
 560:Src/LTC6811.c **** 	}
 863              		.loc 1 560 13 view .LVU306
 864 0130 1BB2     		sxth	r3, r3
 560:Src/LTC6811.c **** 	}
 865              		.loc 1 560 63 view .LVU307
 866 0132 9DF80820 		ldrb	r2, [sp, #8]	@ zero_extendqisi2
 560:Src/LTC6811.c **** 	}
 867              		.loc 1 560 53 view .LVU308
 868 0136 1343     		orrs	r3, r3, r2
 560:Src/LTC6811.c **** 	}
 869              		.loc 1 560 11 view .LVU309
 870 0138 7B81     		strh	r3, [r7, #10]	@ movhi
 871 013a BDE7     		b	.L29
 872              	.L40:
 565:Src/LTC6811.c **** 		data[7] = (uint16_t) ((rx_data[7] << 8) & 0xFF00) | (rx_data[6] & 0x00FF);
 873              		.loc 1 565 3 is_stmt 1 view .LVU310
 565:Src/LTC6811.c **** 		data[7] = (uint16_t) ((rx_data[7] << 8) & 0xFF00) | (rx_data[6] & 0x00FF);
 874              		.loc 1 565 33 is_stmt 0 view .LVU311
 875 013c 9DF80530 		ldrb	r3, [sp, #5]	@ zero_extendqisi2
 565:Src/LTC6811.c **** 		data[7] = (uint16_t) ((rx_data[7] << 8) & 0xFF00) | (rx_data[6] & 0x00FF);
 876              		.loc 1 565 37 view .LVU312
 877 0140 1B02     		lsls	r3, r3, #8
 565:Src/LTC6811.c **** 		data[7] = (uint16_t) ((rx_data[7] << 8) & 0xFF00) | (rx_data[6] & 0x00FF);
 878              		.loc 1 565 13 view .LVU313
 879 0142 1BB2     		sxth	r3, r3
 565:Src/LTC6811.c **** 		data[7] = (uint16_t) ((rx_data[7] << 8) & 0xFF00) | (rx_data[6] & 0x00FF);
 880              		.loc 1 565 63 view .LVU314
 881 0144 9DF80420 		ldrb	r2, [sp, #4]	@ zero_extendqisi2
 565:Src/LTC6811.c **** 		data[7] = (uint16_t) ((rx_data[7] << 8) & 0xFF00) | (rx_data[6] & 0x00FF);
 882              		.loc 1 565 53 view .LVU315
 883 0148 1343     		orrs	r3, r3, r2
 565:Src/LTC6811.c **** 		data[7] = (uint16_t) ((rx_data[7] << 8) & 0xFF00) | (rx_data[6] & 0x00FF);
 884              		.loc 1 565 11 view .LVU316
 885 014a BB81     		strh	r3, [r7, #12]	@ movhi
 566:Src/LTC6811.c **** 		data[8] = (uint16_t) ((rx_data[9] << 8) & 0xFF00) | (rx_data[8] & 0x00FF);
 886              		.loc 1 566 3 is_stmt 1 view .LVU317
 566:Src/LTC6811.c **** 		data[8] = (uint16_t) ((rx_data[9] << 8) & 0xFF00) | (rx_data[8] & 0x00FF);
 887              		.loc 1 566 33 is_stmt 0 view .LVU318
 888 014c 9DF80730 		ldrb	r3, [sp, #7]	@ zero_extendqisi2
 566:Src/LTC6811.c **** 		data[8] = (uint16_t) ((rx_data[9] << 8) & 0xFF00) | (rx_data[8] & 0x00FF);
 889              		.loc 1 566 37 view .LVU319
 890 0150 1B02     		lsls	r3, r3, #8
 566:Src/LTC6811.c **** 		data[8] = (uint16_t) ((rx_data[9] << 8) & 0xFF00) | (rx_data[8] & 0x00FF);
 891              		.loc 1 566 13 view .LVU320
 892 0152 1BB2     		sxth	r3, r3
 566:Src/LTC6811.c **** 		data[8] = (uint16_t) ((rx_data[9] << 8) & 0xFF00) | (rx_data[8] & 0x00FF);
 893              		.loc 1 566 63 view .LVU321
 894 0154 9DF80620 		ldrb	r2, [sp, #6]	@ zero_extendqisi2
 566:Src/LTC6811.c **** 		data[8] = (uint16_t) ((rx_data[9] << 8) & 0xFF00) | (rx_data[8] & 0x00FF);
ARM GAS  C:\cygwin64\tmp\cc5fh40e.s 			page 33


 895              		.loc 1 566 53 view .LVU322
 896 0158 1343     		orrs	r3, r3, r2
 566:Src/LTC6811.c **** 		data[8] = (uint16_t) ((rx_data[9] << 8) & 0xFF00) | (rx_data[8] & 0x00FF);
 897              		.loc 1 566 11 view .LVU323
 898 015a FB81     		strh	r3, [r7, #14]	@ movhi
 567:Src/LTC6811.c **** 	}
 899              		.loc 1 567 3 is_stmt 1 view .LVU324
 567:Src/LTC6811.c **** 	}
 900              		.loc 1 567 33 is_stmt 0 view .LVU325
 901 015c 9DF80930 		ldrb	r3, [sp, #9]	@ zero_extendqisi2
 567:Src/LTC6811.c **** 	}
 902              		.loc 1 567 37 view .LVU326
 903 0160 1B02     		lsls	r3, r3, #8
 567:Src/LTC6811.c **** 	}
 904              		.loc 1 567 13 view .LVU327
 905 0162 1BB2     		sxth	r3, r3
 567:Src/LTC6811.c **** 	}
 906              		.loc 1 567 63 view .LVU328
 907 0164 9DF80820 		ldrb	r2, [sp, #8]	@ zero_extendqisi2
 567:Src/LTC6811.c **** 	}
 908              		.loc 1 567 53 view .LVU329
 909 0168 1343     		orrs	r3, r3, r2
 567:Src/LTC6811.c **** 	}
 910              		.loc 1 567 11 view .LVU330
 911 016a 3B82     		strh	r3, [r7, #16]	@ movhi
 912 016c A6E7     		b	.L30
 913              	.L41:
 572:Src/LTC6811.c **** 		data[10] = (uint16_t) ((rx_data[7] << 8) & 0xFF00) | (rx_data[6] & 0x00FF);
 914              		.loc 1 572 3 is_stmt 1 view .LVU331
 572:Src/LTC6811.c **** 		data[10] = (uint16_t) ((rx_data[7] << 8) & 0xFF00) | (rx_data[6] & 0x00FF);
 915              		.loc 1 572 33 is_stmt 0 view .LVU332
 916 016e 9DF80530 		ldrb	r3, [sp, #5]	@ zero_extendqisi2
 572:Src/LTC6811.c **** 		data[10] = (uint16_t) ((rx_data[7] << 8) & 0xFF00) | (rx_data[6] & 0x00FF);
 917              		.loc 1 572 37 view .LVU333
 918 0172 1B02     		lsls	r3, r3, #8
 572:Src/LTC6811.c **** 		data[10] = (uint16_t) ((rx_data[7] << 8) & 0xFF00) | (rx_data[6] & 0x00FF);
 919              		.loc 1 572 13 view .LVU334
 920 0174 1BB2     		sxth	r3, r3
 572:Src/LTC6811.c **** 		data[10] = (uint16_t) ((rx_data[7] << 8) & 0xFF00) | (rx_data[6] & 0x00FF);
 921              		.loc 1 572 63 view .LVU335
 922 0176 9DF80420 		ldrb	r2, [sp, #4]	@ zero_extendqisi2
 572:Src/LTC6811.c **** 		data[10] = (uint16_t) ((rx_data[7] << 8) & 0xFF00) | (rx_data[6] & 0x00FF);
 923              		.loc 1 572 53 view .LVU336
 924 017a 1343     		orrs	r3, r3, r2
 572:Src/LTC6811.c **** 		data[10] = (uint16_t) ((rx_data[7] << 8) & 0xFF00) | (rx_data[6] & 0x00FF);
 925              		.loc 1 572 11 view .LVU337
 926 017c 7B82     		strh	r3, [r7, #18]	@ movhi
 573:Src/LTC6811.c **** 		data[11] = (uint16_t) ((rx_data[9] << 8) & 0xFF00) | (rx_data[8] & 0x00FF);
 927              		.loc 1 573 3 is_stmt 1 view .LVU338
 573:Src/LTC6811.c **** 		data[11] = (uint16_t) ((rx_data[9] << 8) & 0xFF00) | (rx_data[8] & 0x00FF);
 928              		.loc 1 573 34 is_stmt 0 view .LVU339
 929 017e 9DF80730 		ldrb	r3, [sp, #7]	@ zero_extendqisi2
 573:Src/LTC6811.c **** 		data[11] = (uint16_t) ((rx_data[9] << 8) & 0xFF00) | (rx_data[8] & 0x00FF);
 930              		.loc 1 573 38 view .LVU340
 931 0182 1B02     		lsls	r3, r3, #8
 573:Src/LTC6811.c **** 		data[11] = (uint16_t) ((rx_data[9] << 8) & 0xFF00) | (rx_data[8] & 0x00FF);
 932              		.loc 1 573 14 view .LVU341
ARM GAS  C:\cygwin64\tmp\cc5fh40e.s 			page 34


 933 0184 1BB2     		sxth	r3, r3
 573:Src/LTC6811.c **** 		data[11] = (uint16_t) ((rx_data[9] << 8) & 0xFF00) | (rx_data[8] & 0x00FF);
 934              		.loc 1 573 64 view .LVU342
 935 0186 9DF80620 		ldrb	r2, [sp, #6]	@ zero_extendqisi2
 573:Src/LTC6811.c **** 		data[11] = (uint16_t) ((rx_data[9] << 8) & 0xFF00) | (rx_data[8] & 0x00FF);
 936              		.loc 1 573 54 view .LVU343
 937 018a 1343     		orrs	r3, r3, r2
 573:Src/LTC6811.c **** 		data[11] = (uint16_t) ((rx_data[9] << 8) & 0xFF00) | (rx_data[8] & 0x00FF);
 938              		.loc 1 573 12 view .LVU344
 939 018c BB82     		strh	r3, [r7, #20]	@ movhi
 574:Src/LTC6811.c **** 	}
 940              		.loc 1 574 3 is_stmt 1 view .LVU345
 574:Src/LTC6811.c **** 	}
 941              		.loc 1 574 34 is_stmt 0 view .LVU346
 942 018e 9DF80930 		ldrb	r3, [sp, #9]	@ zero_extendqisi2
 574:Src/LTC6811.c **** 	}
 943              		.loc 1 574 38 view .LVU347
 944 0192 1B02     		lsls	r3, r3, #8
 574:Src/LTC6811.c **** 	}
 945              		.loc 1 574 14 view .LVU348
 946 0194 1BB2     		sxth	r3, r3
 574:Src/LTC6811.c **** 	}
 947              		.loc 1 574 64 view .LVU349
 948 0196 9DF80820 		ldrb	r2, [sp, #8]	@ zero_extendqisi2
 574:Src/LTC6811.c **** 	}
 949              		.loc 1 574 54 view .LVU350
 950 019a 1343     		orrs	r3, r3, r2
 574:Src/LTC6811.c **** 	}
 951              		.loc 1 574 12 view .LVU351
 952 019c FB82     		strh	r3, [r7, #22]	@ movhi
 953 019e 8FE7     		b	.L31
 954              	.L42:
 579:Src/LTC6811.c **** 		data[1] = (uint16_t) ((rx_data[7] << 8) & 0xFF00) | (rx_data[6] & 0x00FF);
 955              		.loc 1 579 3 is_stmt 1 view .LVU352
 579:Src/LTC6811.c **** 		data[1] = (uint16_t) ((rx_data[7] << 8) & 0xFF00) | (rx_data[6] & 0x00FF);
 956              		.loc 1 579 33 is_stmt 0 view .LVU353
 957 01a0 9DF80530 		ldrb	r3, [sp, #5]	@ zero_extendqisi2
 579:Src/LTC6811.c **** 		data[1] = (uint16_t) ((rx_data[7] << 8) & 0xFF00) | (rx_data[6] & 0x00FF);
 958              		.loc 1 579 37 view .LVU354
 959 01a4 1B02     		lsls	r3, r3, #8
 579:Src/LTC6811.c **** 		data[1] = (uint16_t) ((rx_data[7] << 8) & 0xFF00) | (rx_data[6] & 0x00FF);
 960              		.loc 1 579 13 view .LVU355
 961 01a6 1BB2     		sxth	r3, r3
 579:Src/LTC6811.c **** 		data[1] = (uint16_t) ((rx_data[7] << 8) & 0xFF00) | (rx_data[6] & 0x00FF);
 962              		.loc 1 579 63 view .LVU356
 963 01a8 9DF80420 		ldrb	r2, [sp, #4]	@ zero_extendqisi2
 579:Src/LTC6811.c **** 		data[1] = (uint16_t) ((rx_data[7] << 8) & 0xFF00) | (rx_data[6] & 0x00FF);
 964              		.loc 1 579 53 view .LVU357
 965 01ac 1343     		orrs	r3, r3, r2
 579:Src/LTC6811.c **** 		data[1] = (uint16_t) ((rx_data[7] << 8) & 0xFF00) | (rx_data[6] & 0x00FF);
 966              		.loc 1 579 11 view .LVU358
 967 01ae 3B80     		strh	r3, [r7]	@ movhi
 580:Src/LTC6811.c **** 		data[2] = (uint16_t) ((rx_data[9] << 8) & 0xFF00) | (rx_data[8] & 0x00FF);
 968              		.loc 1 580 3 is_stmt 1 view .LVU359
 580:Src/LTC6811.c **** 		data[2] = (uint16_t) ((rx_data[9] << 8) & 0xFF00) | (rx_data[8] & 0x00FF);
 969              		.loc 1 580 33 is_stmt 0 view .LVU360
 970 01b0 9DF80730 		ldrb	r3, [sp, #7]	@ zero_extendqisi2
ARM GAS  C:\cygwin64\tmp\cc5fh40e.s 			page 35


 580:Src/LTC6811.c **** 		data[2] = (uint16_t) ((rx_data[9] << 8) & 0xFF00) | (rx_data[8] & 0x00FF);
 971              		.loc 1 580 37 view .LVU361
 972 01b4 1B02     		lsls	r3, r3, #8
 580:Src/LTC6811.c **** 		data[2] = (uint16_t) ((rx_data[9] << 8) & 0xFF00) | (rx_data[8] & 0x00FF);
 973              		.loc 1 580 13 view .LVU362
 974 01b6 1BB2     		sxth	r3, r3
 580:Src/LTC6811.c **** 		data[2] = (uint16_t) ((rx_data[9] << 8) & 0xFF00) | (rx_data[8] & 0x00FF);
 975              		.loc 1 580 63 view .LVU363
 976 01b8 9DF80620 		ldrb	r2, [sp, #6]	@ zero_extendqisi2
 580:Src/LTC6811.c **** 		data[2] = (uint16_t) ((rx_data[9] << 8) & 0xFF00) | (rx_data[8] & 0x00FF);
 977              		.loc 1 580 53 view .LVU364
 978 01bc 1343     		orrs	r3, r3, r2
 580:Src/LTC6811.c **** 		data[2] = (uint16_t) ((rx_data[9] << 8) & 0xFF00) | (rx_data[8] & 0x00FF);
 979              		.loc 1 580 11 view .LVU365
 980 01be 7B80     		strh	r3, [r7, #2]	@ movhi
 581:Src/LTC6811.c **** 	}
 981              		.loc 1 581 3 is_stmt 1 view .LVU366
 581:Src/LTC6811.c **** 	}
 982              		.loc 1 581 33 is_stmt 0 view .LVU367
 983 01c0 9DF80930 		ldrb	r3, [sp, #9]	@ zero_extendqisi2
 581:Src/LTC6811.c **** 	}
 984              		.loc 1 581 37 view .LVU368
 985 01c4 1B02     		lsls	r3, r3, #8
 581:Src/LTC6811.c **** 	}
 986              		.loc 1 581 13 view .LVU369
 987 01c6 1BB2     		sxth	r3, r3
 581:Src/LTC6811.c **** 	}
 988              		.loc 1 581 63 view .LVU370
 989 01c8 9DF80820 		ldrb	r2, [sp, #8]	@ zero_extendqisi2
 581:Src/LTC6811.c **** 	}
 990              		.loc 1 581 53 view .LVU371
 991 01cc 1343     		orrs	r3, r3, r2
 581:Src/LTC6811.c **** 	}
 992              		.loc 1 581 11 view .LVU372
 993 01ce BB80     		strh	r3, [r7, #4]	@ movhi
 994 01d0 78E7     		b	.L32
 995              	.L43:
 585:Src/LTC6811.c **** 	}
 996              		.loc 1 585 3 is_stmt 1 view .LVU373
 585:Src/LTC6811.c **** 	}
 997              		.loc 1 585 33 is_stmt 0 view .LVU374
 998 01d2 9DF80530 		ldrb	r3, [sp, #5]	@ zero_extendqisi2
 585:Src/LTC6811.c **** 	}
 999              		.loc 1 585 37 view .LVU375
 1000 01d6 1B02     		lsls	r3, r3, #8
 585:Src/LTC6811.c **** 	}
 1001              		.loc 1 585 13 view .LVU376
 1002 01d8 1BB2     		sxth	r3, r3
 585:Src/LTC6811.c **** 	}
 1003              		.loc 1 585 63 view .LVU377
 1004 01da 9DF80420 		ldrb	r2, [sp, #4]	@ zero_extendqisi2
 585:Src/LTC6811.c **** 	}
 1005              		.loc 1 585 53 view .LVU378
 1006 01de 1343     		orrs	r3, r3, r2
 585:Src/LTC6811.c **** 	}
 1007              		.loc 1 585 11 view .LVU379
 1008 01e0 FB80     		strh	r3, [r7, #6]	@ movhi
ARM GAS  C:\cygwin64\tmp\cc5fh40e.s 			page 36


 1009 01e2 72E7     		b	.L33
 1010              	.L44:
 589:Src/LTC6811.c **** 		data[1] = (uint16_t) ((rx_data[6] << 8) & 0xFF00) | (rx_data[7] & 0x00FF);
 1011              		.loc 1 589 3 is_stmt 1 view .LVU380
 589:Src/LTC6811.c **** 		data[1] = (uint16_t) ((rx_data[6] << 8) & 0xFF00) | (rx_data[7] & 0x00FF);
 1012              		.loc 1 589 33 is_stmt 0 view .LVU381
 1013 01e4 9DF80430 		ldrb	r3, [sp, #4]	@ zero_extendqisi2
 589:Src/LTC6811.c **** 		data[1] = (uint16_t) ((rx_data[6] << 8) & 0xFF00) | (rx_data[7] & 0x00FF);
 1014              		.loc 1 589 37 view .LVU382
 1015 01e8 1B02     		lsls	r3, r3, #8
 589:Src/LTC6811.c **** 		data[1] = (uint16_t) ((rx_data[6] << 8) & 0xFF00) | (rx_data[7] & 0x00FF);
 1016              		.loc 1 589 13 view .LVU383
 1017 01ea 1BB2     		sxth	r3, r3
 589:Src/LTC6811.c **** 		data[1] = (uint16_t) ((rx_data[6] << 8) & 0xFF00) | (rx_data[7] & 0x00FF);
 1018              		.loc 1 589 63 view .LVU384
 1019 01ec 9DF80520 		ldrb	r2, [sp, #5]	@ zero_extendqisi2
 589:Src/LTC6811.c **** 		data[1] = (uint16_t) ((rx_data[6] << 8) & 0xFF00) | (rx_data[7] & 0x00FF);
 1020              		.loc 1 589 53 view .LVU385
 1021 01f0 1343     		orrs	r3, r3, r2
 589:Src/LTC6811.c **** 		data[1] = (uint16_t) ((rx_data[6] << 8) & 0xFF00) | (rx_data[7] & 0x00FF);
 1022              		.loc 1 589 11 view .LVU386
 1023 01f2 3B80     		strh	r3, [r7]	@ movhi
 590:Src/LTC6811.c **** 		data[2] = (uint16_t) ((rx_data[8] << 8) & 0xFF00) | (rx_data[9] & 0x00FF);
 1024              		.loc 1 590 3 is_stmt 1 view .LVU387
 590:Src/LTC6811.c **** 		data[2] = (uint16_t) ((rx_data[8] << 8) & 0xFF00) | (rx_data[9] & 0x00FF);
 1025              		.loc 1 590 33 is_stmt 0 view .LVU388
 1026 01f4 9DF80630 		ldrb	r3, [sp, #6]	@ zero_extendqisi2
 590:Src/LTC6811.c **** 		data[2] = (uint16_t) ((rx_data[8] << 8) & 0xFF00) | (rx_data[9] & 0x00FF);
 1027              		.loc 1 590 37 view .LVU389
 1028 01f8 1B02     		lsls	r3, r3, #8
 590:Src/LTC6811.c **** 		data[2] = (uint16_t) ((rx_data[8] << 8) & 0xFF00) | (rx_data[9] & 0x00FF);
 1029              		.loc 1 590 13 view .LVU390
 1030 01fa 1BB2     		sxth	r3, r3
 590:Src/LTC6811.c **** 		data[2] = (uint16_t) ((rx_data[8] << 8) & 0xFF00) | (rx_data[9] & 0x00FF);
 1031              		.loc 1 590 63 view .LVU391
 1032 01fc 9DF80720 		ldrb	r2, [sp, #7]	@ zero_extendqisi2
 590:Src/LTC6811.c **** 		data[2] = (uint16_t) ((rx_data[8] << 8) & 0xFF00) | (rx_data[9] & 0x00FF);
 1033              		.loc 1 590 53 view .LVU392
 1034 0200 1343     		orrs	r3, r3, r2
 590:Src/LTC6811.c **** 		data[2] = (uint16_t) ((rx_data[8] << 8) & 0xFF00) | (rx_data[9] & 0x00FF);
 1035              		.loc 1 590 11 view .LVU393
 1036 0202 7B80     		strh	r3, [r7, #2]	@ movhi
 591:Src/LTC6811.c **** 		data[3] = (uint16_t) ((rx_data[10] << 8) & 0xFF00) | (rx_data[11] & 0x00FF);
 1037              		.loc 1 591 3 is_stmt 1 view .LVU394
 591:Src/LTC6811.c **** 		data[3] = (uint16_t) ((rx_data[10] << 8) & 0xFF00) | (rx_data[11] & 0x00FF);
 1038              		.loc 1 591 33 is_stmt 0 view .LVU395
 1039 0204 9DF80830 		ldrb	r3, [sp, #8]	@ zero_extendqisi2
 591:Src/LTC6811.c **** 		data[3] = (uint16_t) ((rx_data[10] << 8) & 0xFF00) | (rx_data[11] & 0x00FF);
 1040              		.loc 1 591 37 view .LVU396
 1041 0208 1B02     		lsls	r3, r3, #8
 591:Src/LTC6811.c **** 		data[3] = (uint16_t) ((rx_data[10] << 8) & 0xFF00) | (rx_data[11] & 0x00FF);
 1042              		.loc 1 591 13 view .LVU397
 1043 020a 1BB2     		sxth	r3, r3
 591:Src/LTC6811.c **** 		data[3] = (uint16_t) ((rx_data[10] << 8) & 0xFF00) | (rx_data[11] & 0x00FF);
 1044              		.loc 1 591 63 view .LVU398
 1045 020c 9DF80920 		ldrb	r2, [sp, #9]	@ zero_extendqisi2
 591:Src/LTC6811.c **** 		data[3] = (uint16_t) ((rx_data[10] << 8) & 0xFF00) | (rx_data[11] & 0x00FF);
ARM GAS  C:\cygwin64\tmp\cc5fh40e.s 			page 37


 1046              		.loc 1 591 53 view .LVU399
 1047 0210 1343     		orrs	r3, r3, r2
 591:Src/LTC6811.c **** 		data[3] = (uint16_t) ((rx_data[10] << 8) & 0xFF00) | (rx_data[11] & 0x00FF);
 1048              		.loc 1 591 11 view .LVU400
 1049 0212 BB80     		strh	r3, [r7, #4]	@ movhi
 592:Src/LTC6811.c **** 	}
 1050              		.loc 1 592 3 is_stmt 1 view .LVU401
 592:Src/LTC6811.c **** 	}
 1051              		.loc 1 592 33 is_stmt 0 view .LVU402
 1052 0214 9DF80A30 		ldrb	r3, [sp, #10]	@ zero_extendqisi2
 592:Src/LTC6811.c **** 	}
 1053              		.loc 1 592 38 view .LVU403
 1054 0218 1B02     		lsls	r3, r3, #8
 592:Src/LTC6811.c **** 	}
 1055              		.loc 1 592 13 view .LVU404
 1056 021a 1BB2     		sxth	r3, r3
 592:Src/LTC6811.c **** 	}
 1057              		.loc 1 592 64 view .LVU405
 1058 021c 9DF80B20 		ldrb	r2, [sp, #11]	@ zero_extendqisi2
 592:Src/LTC6811.c **** 	}
 1059              		.loc 1 592 54 view .LVU406
 1060 0220 1343     		orrs	r3, r3, r2
 592:Src/LTC6811.c **** 	}
 1061              		.loc 1 592 11 view .LVU407
 1062 0222 FB80     		strh	r3, [r7, #6]	@ movhi
 1063 0224 54E7     		b	.L34
 1064              		.cfi_endproc
 1065              	.LFE77:
 1067              		.section	.text.readConfig,"ax",%progbits
 1068              		.align	1
 1069              		.global	readConfig
 1070              		.syntax unified
 1071              		.thumb
 1072              		.thumb_func
 1073              		.fpu softvfp
 1075              	readConfig:
 1076              	.LVL54:
 1077              	.LFB73:
 339:Src/LTC6811.c **** 	
 1078              		.loc 1 339 50 is_stmt 1 view -0
 1079              		.cfi_startproc
 1080              		@ args = 0, pretend = 0, frame = 0
 1081              		@ frame_needed = 0, uses_anonymous_args = 0
 339:Src/LTC6811.c **** 	
 1082              		.loc 1 339 50 is_stmt 0 view .LVU409
 1083 0000 70B5     		push	{r4, r5, r6, lr}
 1084              	.LCFI16:
 1085              		.cfi_def_cfa_offset 16
 1086              		.cfi_offset 4, -16
 1087              		.cfi_offset 5, -12
 1088              		.cfi_offset 6, -8
 1089              		.cfi_offset 14, -4
 1090 0002 0646     		mov	r6, r0
 1091 0004 0C46     		mov	r4, r1
 341:Src/LTC6811.c **** 	bool dataValid = false;
 1092              		.loc 1 341 2 is_stmt 1 view .LVU410
 342:Src/LTC6811.c **** 	
ARM GAS  C:\cygwin64\tmp\cc5fh40e.s 			page 38


 1093              		.loc 1 342 2 view .LVU411
 1094              	.LVL55:
 344:Src/LTC6811.c **** 	
 1095              		.loc 1 344 2 view .LVU412
 344:Src/LTC6811.c **** 	
 1096              		.loc 1 344 23 is_stmt 0 view .LVU413
 1097 0006 0820     		movs	r0, #8
 1098              	.LVL56:
 344:Src/LTC6811.c **** 	
 1099              		.loc 1 344 23 view .LVU414
 1100 0008 FFF7FEFF 		bl	malloc
 1101              	.LVL57:
 344:Src/LTC6811.c **** 	
 1102              		.loc 1 344 23 view .LVU415
 1103 000c 0546     		mov	r5, r0
 1104              	.LVL58:
 346:Src/LTC6811.c **** 	
 1105              		.loc 1 346 2 is_stmt 1 view .LVU416
 346:Src/LTC6811.c **** 	
 1106              		.loc 1 346 14 is_stmt 0 view .LVU417
 1107 000e 0246     		mov	r2, r0
 1108 0010 3146     		mov	r1, r6
 1109 0012 0220     		movs	r0, #2
 1110              	.LVL59:
 346:Src/LTC6811.c **** 	
 1111              		.loc 1 346 14 view .LVU418
 1112 0014 FFF7FEFF 		bl	readRegister
 1113              	.LVL60:
 348:Src/LTC6811.c **** 	cfg[1] = (uint8_t) (config[0] & 0xFF);
 1114              		.loc 1 348 2 is_stmt 1 view .LVU419
 348:Src/LTC6811.c **** 	cfg[1] = (uint8_t) (config[0] & 0xFF);
 1115              		.loc 1 348 29 is_stmt 0 view .LVU420
 1116 0018 2B88     		ldrh	r3, [r5]
 348:Src/LTC6811.c **** 	cfg[1] = (uint8_t) (config[0] & 0xFF);
 1117              		.loc 1 348 11 view .LVU421
 1118 001a 1A0A     		lsrs	r2, r3, #8
 348:Src/LTC6811.c **** 	cfg[1] = (uint8_t) (config[0] & 0xFF);
 1119              		.loc 1 348 9 view .LVU422
 1120 001c 2270     		strb	r2, [r4]
 349:Src/LTC6811.c **** 	cfg[2] = (uint8_t) ((config[1] >> 8) & 0xFF);
 1121              		.loc 1 349 2 is_stmt 1 view .LVU423
 349:Src/LTC6811.c **** 	cfg[2] = (uint8_t) ((config[1] >> 8) & 0xFF);
 1122              		.loc 1 349 9 is_stmt 0 view .LVU424
 1123 001e 6370     		strb	r3, [r4, #1]
 350:Src/LTC6811.c **** 	cfg[3] = (uint8_t) (config[1] & 0xFF);
 1124              		.loc 1 350 2 is_stmt 1 view .LVU425
 350:Src/LTC6811.c **** 	cfg[3] = (uint8_t) (config[1] & 0xFF);
 1125              		.loc 1 350 29 is_stmt 0 view .LVU426
 1126 0020 6B88     		ldrh	r3, [r5, #2]
 350:Src/LTC6811.c **** 	cfg[3] = (uint8_t) (config[1] & 0xFF);
 1127              		.loc 1 350 11 view .LVU427
 1128 0022 1A0A     		lsrs	r2, r3, #8
 350:Src/LTC6811.c **** 	cfg[3] = (uint8_t) (config[1] & 0xFF);
 1129              		.loc 1 350 9 view .LVU428
 1130 0024 A270     		strb	r2, [r4, #2]
 351:Src/LTC6811.c **** 	cfg[4] = (uint8_t) ((config[2] >> 8) & 0xFF);
 1131              		.loc 1 351 2 is_stmt 1 view .LVU429
ARM GAS  C:\cygwin64\tmp\cc5fh40e.s 			page 39


 351:Src/LTC6811.c **** 	cfg[4] = (uint8_t) ((config[2] >> 8) & 0xFF);
 1132              		.loc 1 351 9 is_stmt 0 view .LVU430
 1133 0026 E370     		strb	r3, [r4, #3]
 352:Src/LTC6811.c **** 	cfg[5] = (uint8_t) (config[2] & 0xFF);
 1134              		.loc 1 352 2 is_stmt 1 view .LVU431
 352:Src/LTC6811.c **** 	cfg[5] = (uint8_t) (config[2] & 0xFF);
 1135              		.loc 1 352 29 is_stmt 0 view .LVU432
 1136 0028 AB88     		ldrh	r3, [r5, #4]
 352:Src/LTC6811.c **** 	cfg[5] = (uint8_t) (config[2] & 0xFF);
 1137              		.loc 1 352 11 view .LVU433
 1138 002a 1A0A     		lsrs	r2, r3, #8
 352:Src/LTC6811.c **** 	cfg[5] = (uint8_t) (config[2] & 0xFF);
 1139              		.loc 1 352 9 view .LVU434
 1140 002c 2271     		strb	r2, [r4, #4]
 353:Src/LTC6811.c **** 	cfg[6] = (uint8_t) ((config[3] >> 8) & 0xFF);
 1141              		.loc 1 353 2 is_stmt 1 view .LVU435
 353:Src/LTC6811.c **** 	cfg[6] = (uint8_t) ((config[3] >> 8) & 0xFF);
 1142              		.loc 1 353 9 is_stmt 0 view .LVU436
 1143 002e 6371     		strb	r3, [r4, #5]
 354:Src/LTC6811.c **** 	cfg[7] = (uint8_t) (config[3] & 0xFF);
 1144              		.loc 1 354 2 is_stmt 1 view .LVU437
 354:Src/LTC6811.c **** 	cfg[7] = (uint8_t) (config[3] & 0xFF);
 1145              		.loc 1 354 29 is_stmt 0 view .LVU438
 1146 0030 EB88     		ldrh	r3, [r5, #6]
 354:Src/LTC6811.c **** 	cfg[7] = (uint8_t) (config[3] & 0xFF);
 1147              		.loc 1 354 11 view .LVU439
 1148 0032 1A0A     		lsrs	r2, r3, #8
 354:Src/LTC6811.c **** 	cfg[7] = (uint8_t) (config[3] & 0xFF);
 1149              		.loc 1 354 9 view .LVU440
 1150 0034 A271     		strb	r2, [r4, #6]
 355:Src/LTC6811.c **** 	
 1151              		.loc 1 355 2 is_stmt 1 view .LVU441
 355:Src/LTC6811.c **** 	
 1152              		.loc 1 355 9 is_stmt 0 view .LVU442
 1153 0036 E371     		strb	r3, [r4, #7]
 357:Src/LTC6811.c **** }
 1154              		.loc 1 357 2 is_stmt 1 view .LVU443
 358:Src/LTC6811.c **** 
 1155              		.loc 1 358 1 is_stmt 0 view .LVU444
 1156 0038 70BD     		pop	{r4, r5, r6, pc}
 358:Src/LTC6811.c **** 
 1157              		.loc 1 358 1 view .LVU445
 1158              		.cfi_endproc
 1159              	.LFE73:
 1161              		.section	.text.dischargeCellGroups,"ax",%progbits
 1162              		.align	1
 1163              		.global	dischargeCellGroups
 1164              		.syntax unified
 1165              		.thumb
 1166              		.thumb_func
 1167              		.fpu softvfp
 1169              	dischargeCellGroups:
 1170              	.LVL61:
 1171              	.LFB76:
 417:Src/LTC6811.c **** 	
 1172              		.loc 1 417 84 is_stmt 1 view -0
 1173              		.cfi_startproc
ARM GAS  C:\cygwin64\tmp\cc5fh40e.s 			page 40


 1174              		@ args = 80, pretend = 16, frame = 8
 1175              		@ frame_needed = 0, uses_anonymous_args = 0
 417:Src/LTC6811.c **** 	
 1176              		.loc 1 417 84 is_stmt 0 view .LVU447
 1177 0000 84B0     		sub	sp, sp, #16
 1178              	.LCFI17:
 1179              		.cfi_def_cfa_offset 16
 1180 0002 70B5     		push	{r4, r5, r6, lr}
 1181              	.LCFI18:
 1182              		.cfi_def_cfa_offset 32
 1183              		.cfi_offset 4, -32
 1184              		.cfi_offset 5, -28
 1185              		.cfi_offset 6, -24
 1186              		.cfi_offset 14, -20
 1187 0004 92B0     		sub	sp, sp, #72
 1188              	.LCFI19:
 1189              		.cfi_def_cfa_offset 104
 1190 0006 16AC     		add	r4, sp, #88
 1191 0008 84E80F00 		stm	r4, {r0, r1, r2, r3}
 1192 000c 299B     		ldr	r3, [sp, #164]
 419:Src/LTC6811.c **** 	cfg = &config;
 1193              		.loc 1 419 2 is_stmt 1 view .LVU448
 420:Src/LTC6811.c **** 	uint8_t dummy[8];
 1194              		.loc 1 420 2 view .LVU449
 1195              	.LVL62:
 421:Src/LTC6811.c **** 
 1196              		.loc 1 421 2 view .LVU450
 423:Src/LTC6811.c **** 	cfg->DischargeCell2 = cellDischarge[0][1];
 1197              		.loc 1 423 2 view .LVU451
 423:Src/LTC6811.c **** 	cfg->DischargeCell2 = cellDischarge[0][1];
 1198              		.loc 1 423 40 is_stmt 0 view .LVU452
 1199 000e 1A78     		ldrb	r2, [r3]	@ zero_extendqisi2
 423:Src/LTC6811.c **** 	cfg->DischargeCell2 = cellDischarge[0][1];
 1200              		.loc 1 423 22 view .LVU453
 1201 0010 8DF89220 		strb	r2, [sp, #146]
 424:Src/LTC6811.c **** 	cfg->DischargeCell3 = cellDischarge[0][2];
 1202              		.loc 1 424 2 is_stmt 1 view .LVU454
 424:Src/LTC6811.c **** 	cfg->DischargeCell3 = cellDischarge[0][2];
 1203              		.loc 1 424 40 is_stmt 0 view .LVU455
 1204 0014 5A78     		ldrb	r2, [r3, #1]	@ zero_extendqisi2
 424:Src/LTC6811.c **** 	cfg->DischargeCell3 = cellDischarge[0][2];
 1205              		.loc 1 424 22 view .LVU456
 1206 0016 8DF89320 		strb	r2, [sp, #147]
 425:Src/LTC6811.c **** 	cfg->DischargeCell4 = cellDischarge[0][3];
 1207              		.loc 1 425 2 is_stmt 1 view .LVU457
 425:Src/LTC6811.c **** 	cfg->DischargeCell4 = cellDischarge[0][3];
 1208              		.loc 1 425 40 is_stmt 0 view .LVU458
 1209 001a 9A78     		ldrb	r2, [r3, #2]	@ zero_extendqisi2
 425:Src/LTC6811.c **** 	cfg->DischargeCell4 = cellDischarge[0][3];
 1210              		.loc 1 425 22 view .LVU459
 1211 001c 8DF89420 		strb	r2, [sp, #148]
 426:Src/LTC6811.c **** 	cfg->DischargeCell7 = cellDischarge[0][4];
 1212              		.loc 1 426 2 is_stmt 1 view .LVU460
 426:Src/LTC6811.c **** 	cfg->DischargeCell7 = cellDischarge[0][4];
 1213              		.loc 1 426 40 is_stmt 0 view .LVU461
 1214 0020 DA78     		ldrb	r2, [r3, #3]	@ zero_extendqisi2
 426:Src/LTC6811.c **** 	cfg->DischargeCell7 = cellDischarge[0][4];
ARM GAS  C:\cygwin64\tmp\cc5fh40e.s 			page 41


 1215              		.loc 1 426 22 view .LVU462
 1216 0022 8DF89520 		strb	r2, [sp, #149]
 427:Src/LTC6811.c **** 	cfg->DischargeCell8 = cellDischarge[0][5];
 1217              		.loc 1 427 2 is_stmt 1 view .LVU463
 427:Src/LTC6811.c **** 	cfg->DischargeCell8 = cellDischarge[0][5];
 1218              		.loc 1 427 40 is_stmt 0 view .LVU464
 1219 0026 1A79     		ldrb	r2, [r3, #4]	@ zero_extendqisi2
 427:Src/LTC6811.c **** 	cfg->DischargeCell8 = cellDischarge[0][5];
 1220              		.loc 1 427 22 view .LVU465
 1221 0028 8DF89820 		strb	r2, [sp, #152]
 428:Src/LTC6811.c **** 	cfg->DischargeCell9 = cellDischarge[0][6];
 1222              		.loc 1 428 2 is_stmt 1 view .LVU466
 428:Src/LTC6811.c **** 	cfg->DischargeCell9 = cellDischarge[0][6];
 1223              		.loc 1 428 40 is_stmt 0 view .LVU467
 1224 002c 5A79     		ldrb	r2, [r3, #5]	@ zero_extendqisi2
 428:Src/LTC6811.c **** 	cfg->DischargeCell9 = cellDischarge[0][6];
 1225              		.loc 1 428 22 view .LVU468
 1226 002e 8DF89920 		strb	r2, [sp, #153]
 429:Src/LTC6811.c **** 	cfg->DischargeCell10 = cellDischarge[0][7];
 1227              		.loc 1 429 2 is_stmt 1 view .LVU469
 429:Src/LTC6811.c **** 	cfg->DischargeCell10 = cellDischarge[0][7];
 1228              		.loc 1 429 40 is_stmt 0 view .LVU470
 1229 0032 9A79     		ldrb	r2, [r3, #6]	@ zero_extendqisi2
 429:Src/LTC6811.c **** 	cfg->DischargeCell10 = cellDischarge[0][7];
 1230              		.loc 1 429 22 view .LVU471
 1231 0034 8DF89A20 		strb	r2, [sp, #154]
 430:Src/LTC6811.c **** 
 1232              		.loc 1 430 2 is_stmt 1 view .LVU472
 430:Src/LTC6811.c **** 
 1233              		.loc 1 430 41 is_stmt 0 view .LVU473
 1234 0038 DB79     		ldrb	r3, [r3, #7]	@ zero_extendqisi2
 430:Src/LTC6811.c **** 
 1235              		.loc 1 430 23 view .LVU474
 1236 003a 8DF89B30 		strb	r3, [sp, #155]
 432:Src/LTC6811.c **** 	writeConfigAddress(config, 0);
 1237              		.loc 1 432 2 is_stmt 1 view .LVU475
 1238 003e 10A9     		add	r1, sp, #64
 1239 0040 0020     		movs	r0, #0
 1240 0042 FFF7FEFF 		bl	readConfig
 1241              	.LVL63:
 433:Src/LTC6811.c **** 	readConfig(0, dummy);
 1242              		.loc 1 433 2 view .LVU476
 1243 0046 0026     		movs	r6, #0
 1244 0048 0F96     		str	r6, [sp, #60]
 1245 004a 6C46     		mov	r4, sp
 1246              	.LVL64:
 433:Src/LTC6811.c **** 	readConfig(0, dummy);
 1247              		.loc 1 433 2 is_stmt 0 view .LVU477
 1248 004c 1AAD     		add	r5, sp, #104
 1249 004e 0FCD     		ldmia	r5!, {r0, r1, r2, r3}
 1250 0050 0FC4     		stmia	r4!, {r0, r1, r2, r3}
 1251 0052 0FCD     		ldmia	r5!, {r0, r1, r2, r3}
 1252 0054 0FC4     		stmia	r4!, {r0, r1, r2, r3}
 1253 0056 0FCD     		ldmia	r5!, {r0, r1, r2, r3}
 1254 0058 0FC4     		stmia	r4!, {r0, r1, r2, r3}
 1255 005a 95E80700 		ldm	r5, {r0, r1, r2}
 1256 005e 03C4     		stmia	r4!, {r0, r1}
ARM GAS  C:\cygwin64\tmp\cc5fh40e.s 			page 42


 1257 0060 2280     		strh	r2, [r4]	@ movhi
 1258 0062 16AB     		add	r3, sp, #88
 1259              	.LVL65:
 433:Src/LTC6811.c **** 	readConfig(0, dummy);
 1260              		.loc 1 433 2 view .LVU478
 1261 0064 0FCB     		ldm	r3, {r0, r1, r2, r3}
 1262              	.LVL66:
 433:Src/LTC6811.c **** 	readConfig(0, dummy);
 1263              		.loc 1 433 2 view .LVU479
 1264 0066 FFF7FEFF 		bl	writeConfigAddress
 1265              	.LVL67:
 434:Src/LTC6811.c **** 
 1266              		.loc 1 434 2 is_stmt 1 view .LVU480
 1267 006a 10A9     		add	r1, sp, #64
 1268 006c 3046     		mov	r0, r6
 1269 006e FFF7FEFF 		bl	readConfig
 1270              	.LVL68:
 436:Src/LTC6811.c **** 	cfg->DischargeCell2 = 0;
 1271              		.loc 1 436 2 view .LVU481
 437:Src/LTC6811.c **** 	cfg->DischargeCell3 = 0;
 1272              		.loc 1 437 2 view .LVU482
 438:Src/LTC6811.c **** 	cfg->DischargeCell4 = 0;
 1273              		.loc 1 438 2 view .LVU483
 439:Src/LTC6811.c **** 	cfg->DischargeCell7 = 0;
 1274              		.loc 1 439 2 view .LVU484
 440:Src/LTC6811.c **** 	cfg->DischargeCell8 = 0;
 1275              		.loc 1 440 2 view .LVU485
 441:Src/LTC6811.c **** 	cfg->DischargeCell9 = 0;
 1276              		.loc 1 441 2 view .LVU486
 442:Src/LTC6811.c **** 	cfg->DischargeCell10 = 0;
 1277              		.loc 1 442 2 view .LVU487
 443:Src/LTC6811.c **** 	
 1278              		.loc 1 443 2 view .LVU488
 470:Src/LTC6811.c **** 	
 1279              		.loc 1 470 2 view .LVU489
 472:Src/LTC6811.c **** 
 1280              		.loc 1 472 1 is_stmt 0 view .LVU490
 1281 0072 3046     		mov	r0, r6
 1282 0074 12B0     		add	sp, sp, #72
 1283              	.LCFI20:
 1284              		.cfi_def_cfa_offset 32
 1285              		@ sp needed
 1286 0076 BDE87040 		pop	{r4, r5, r6, lr}
 1287              	.LCFI21:
 1288              		.cfi_restore 14
 1289              		.cfi_restore 6
 1290              		.cfi_restore 5
 1291              		.cfi_restore 4
 1292              		.cfi_def_cfa_offset 16
 1293              	.LVL69:
 472:Src/LTC6811.c **** 
 1294              		.loc 1 472 1 view .LVU491
 1295 007a 04B0     		add	sp, sp, #16
 1296              	.LCFI22:
 1297              		.cfi_def_cfa_offset 0
 1298              	.LVL70:
 472:Src/LTC6811.c **** 
ARM GAS  C:\cygwin64\tmp\cc5fh40e.s 			page 43


 1299              		.loc 1 472 1 view .LVU492
 1300 007c 7047     		bx	lr
 1301              		.cfi_endproc
 1302              	.LFE76:
 1304              		.section	.text.sendBroadcastCommand,"ax",%progbits
 1305              		.align	1
 1306              		.global	sendBroadcastCommand
 1307              		.syntax unified
 1308              		.thumb
 1309              		.thumb_func
 1310              		.fpu softvfp
 1312              	sendBroadcastCommand:
 1313              	.LVL71:
 1314              	.LFB78:
 599:Src/LTC6811.c **** 	
 1315              		.loc 1 599 55 is_stmt 1 view -0
 1316              		.cfi_startproc
 1317              		@ args = 0, pretend = 0, frame = 8
 1318              		@ frame_needed = 0, uses_anonymous_args = 0
 599:Src/LTC6811.c **** 	
 1319              		.loc 1 599 55 is_stmt 0 view .LVU494
 1320 0000 00B5     		push	{lr}
 1321              	.LCFI23:
 1322              		.cfi_def_cfa_offset 4
 1323              		.cfi_offset 14, -4
 1324 0002 83B0     		sub	sp, sp, #12
 1325              	.LCFI24:
 1326              		.cfi_def_cfa_offset 16
 601:Src/LTC6811.c **** 	uint16_t PEC_return;
 1327              		.loc 1 601 2 is_stmt 1 view .LVU495
 602:Src/LTC6811.c **** 	
 1328              		.loc 1 602 2 view .LVU496
 604:Src/LTC6811.c **** 	cmd[1] = (uint8_t) (command & 0xFF);
 1329              		.loc 1 604 2 view .LVU497
 604:Src/LTC6811.c **** 	cmd[1] = (uint8_t) (command & 0xFF);
 1330              		.loc 1 604 11 is_stmt 0 view .LVU498
 1331 0004 C0F30323 		ubfx	r3, r0, #8, #4
 604:Src/LTC6811.c **** 	cmd[1] = (uint8_t) (command & 0xFF);
 1332              		.loc 1 604 9 view .LVU499
 1333 0008 8DF80430 		strb	r3, [sp, #4]
 605:Src/LTC6811.c **** 	
 1334              		.loc 1 605 2 is_stmt 1 view .LVU500
 605:Src/LTC6811.c **** 	
 1335              		.loc 1 605 9 is_stmt 0 view .LVU501
 1336 000c 8DF80500 		strb	r0, [sp, #5]
 607:Src/LTC6811.c **** 	
 1337              		.loc 1 607 2 is_stmt 1 view .LVU502
 607:Src/LTC6811.c **** 	
 1338              		.loc 1 607 15 is_stmt 0 view .LVU503
 1339 0010 01A9     		add	r1, sp, #4
 1340 0012 0220     		movs	r0, #2
 1341              	.LVL72:
 607:Src/LTC6811.c **** 	
 1342              		.loc 1 607 15 view .LVU504
 1343 0014 FFF7FEFF 		bl	calculatePEC
 1344              	.LVL73:
 609:Src/LTC6811.c **** 	cmd[3] = PEC_return & 0xFF;
ARM GAS  C:\cygwin64\tmp\cc5fh40e.s 			page 44


 1345              		.loc 1 609 2 is_stmt 1 view .LVU505
 609:Src/LTC6811.c **** 	cmd[3] = PEC_return & 0xFF;
 1346              		.loc 1 609 9 is_stmt 0 view .LVU506
 1347 0018 030A     		lsrs	r3, r0, #8
 1348 001a 8DF80630 		strb	r3, [sp, #6]
 610:Src/LTC6811.c **** 	
 1349              		.loc 1 610 2 is_stmt 1 view .LVU507
 610:Src/LTC6811.c **** 	
 1350              		.loc 1 610 9 is_stmt 0 view .LVU508
 1351 001e 8DF80700 		strb	r0, [sp, #7]
 612:Src/LTC6811.c **** };
 1352              		.loc 1 612 2 is_stmt 1 view .LVU509
 1353 0022 0421     		movs	r1, #4
 1354 0024 0DEB0100 		add	r0, sp, r1
 1355              	.LVL74:
 612:Src/LTC6811.c **** };
 1356              		.loc 1 612 2 is_stmt 0 view .LVU510
 1357 0028 FFF7FEFF 		bl	SPIWrite
 1358              	.LVL75:
 613:Src/LTC6811.c **** 
 1359              		.loc 1 613 1 view .LVU511
 1360 002c 03B0     		add	sp, sp, #12
 1361              	.LCFI25:
 1362              		.cfi_def_cfa_offset 4
 1363              		@ sp needed
 1364 002e 5DF804FB 		ldr	pc, [sp], #4
 1365              		.cfi_endproc
 1366              	.LFE78:
 1368              		.section	.text.sendAddressCommand,"ax",%progbits
 1369              		.align	1
 1370              		.global	sendAddressCommand
 1371              		.syntax unified
 1372              		.thumb
 1373              		.thumb_func
 1374              		.fpu softvfp
 1376              	sendAddressCommand:
 1377              	.LVL76:
 1378              	.LFB79:
 615:Src/LTC6811.c **** 	
 1379              		.loc 1 615 70 is_stmt 1 view -0
 1380              		.cfi_startproc
 1381              		@ args = 0, pretend = 0, frame = 8
 1382              		@ frame_needed = 0, uses_anonymous_args = 0
 615:Src/LTC6811.c **** 	
 1383              		.loc 1 615 70 is_stmt 0 view .LVU513
 1384 0000 70B5     		push	{r4, r5, r6, lr}
 1385              	.LCFI26:
 1386              		.cfi_def_cfa_offset 16
 1387              		.cfi_offset 4, -16
 1388              		.cfi_offset 5, -12
 1389              		.cfi_offset 6, -8
 1390              		.cfi_offset 14, -4
 1391 0002 82B0     		sub	sp, sp, #8
 1392              	.LCFI27:
 1393              		.cfi_def_cfa_offset 24
 1394 0004 0546     		mov	r5, r0
 1395 0006 0C46     		mov	r4, r1
ARM GAS  C:\cygwin64\tmp\cc5fh40e.s 			page 45


 617:Src/LTC6811.c **** 	uint16_t PEC_return;
 1396              		.loc 1 617 2 is_stmt 1 view .LVU514
 618:Src/LTC6811.c **** 	uint8_t *msbytes;
 1397              		.loc 1 618 2 view .LVU515
 619:Src/LTC6811.c **** 	
 1398              		.loc 1 619 2 view .LVU516
 621:Src/LTC6811.c **** 	
 1399              		.loc 1 621 2 view .LVU517
 621:Src/LTC6811.c **** 	
 1400              		.loc 1 621 23 is_stmt 0 view .LVU518
 1401 0008 0220     		movs	r0, #2
 1402              	.LVL77:
 621:Src/LTC6811.c **** 	
 1403              		.loc 1 621 23 view .LVU519
 1404 000a FFF7FEFF 		bl	malloc
 1405              	.LVL78:
 621:Src/LTC6811.c **** 	
 1406              		.loc 1 621 23 view .LVU520
 1407 000e 0646     		mov	r6, r0
 1408              	.LVL79:
 623:Src/LTC6811.c **** 	msbytes[1] = (uint8_t) (command & 0xFF);
 1409              		.loc 1 623 2 is_stmt 1 view .LVU521
 623:Src/LTC6811.c **** 	msbytes[1] = (uint8_t) (command & 0xFF);
 1410              		.loc 1 623 43 is_stmt 0 view .LVU522
 1411 0010 E300     		lsls	r3, r4, #3
 623:Src/LTC6811.c **** 	msbytes[1] = (uint8_t) (command & 0xFF);
 1412              		.loc 1 623 49 view .LVU523
 1413 0012 03F07803 		and	r3, r3, #120
 623:Src/LTC6811.c **** 	msbytes[1] = (uint8_t) (command & 0xFF);
 1414              		.loc 1 623 31 view .LVU524
 1415 0016 63F07F03 		orn	r3, r3, #127
 623:Src/LTC6811.c **** 	msbytes[1] = (uint8_t) (command & 0xFF);
 1416              		.loc 1 623 75 view .LVU525
 1417 001a C5F30224 		ubfx	r4, r5, #8, #3
 623:Src/LTC6811.c **** 	msbytes[1] = (uint8_t) (command & 0xFF);
 1418              		.loc 1 623 57 view .LVU526
 1419 001e 2343     		orrs	r3, r3, r4
 623:Src/LTC6811.c **** 	msbytes[1] = (uint8_t) (command & 0xFF);
 1420              		.loc 1 623 15 view .LVU527
 1421 0020 DBB2     		uxtb	r3, r3
 623:Src/LTC6811.c **** 	msbytes[1] = (uint8_t) (command & 0xFF);
 1422              		.loc 1 623 13 view .LVU528
 1423 0022 0370     		strb	r3, [r0]
 624:Src/LTC6811.c **** 
 1424              		.loc 1 624 2 is_stmt 1 view .LVU529
 624:Src/LTC6811.c **** 
 1425              		.loc 1 624 15 is_stmt 0 view .LVU530
 1426 0024 EDB2     		uxtb	r5, r5
 624:Src/LTC6811.c **** 
 1427              		.loc 1 624 13 view .LVU531
 1428 0026 4570     		strb	r5, [r0, #1]
 626:Src/LTC6811.c **** 	cmd[1] = msbytes[1];
 1429              		.loc 1 626 2 is_stmt 1 view .LVU532
 626:Src/LTC6811.c **** 	cmd[1] = msbytes[1];
 1430              		.loc 1 626 9 is_stmt 0 view .LVU533
 1431 0028 8DF80430 		strb	r3, [sp, #4]
 627:Src/LTC6811.c **** 	
ARM GAS  C:\cygwin64\tmp\cc5fh40e.s 			page 46


 1432              		.loc 1 627 2 is_stmt 1 view .LVU534
 627:Src/LTC6811.c **** 	
 1433              		.loc 1 627 9 is_stmt 0 view .LVU535
 1434 002c 8DF80550 		strb	r5, [sp, #5]
 629:Src/LTC6811.c **** 	
 1435              		.loc 1 629 2 is_stmt 1 view .LVU536
 629:Src/LTC6811.c **** 	
 1436              		.loc 1 629 15 is_stmt 0 view .LVU537
 1437 0030 0146     		mov	r1, r0
 1438 0032 0220     		movs	r0, #2
 1439              	.LVL80:
 629:Src/LTC6811.c **** 	
 1440              		.loc 1 629 15 view .LVU538
 1441 0034 FFF7FEFF 		bl	calculatePEC
 1442              	.LVL81:
 631:Src/LTC6811.c **** 	cmd[3] = PEC_return & 0xFF;
 1443              		.loc 1 631 2 is_stmt 1 view .LVU539
 631:Src/LTC6811.c **** 	cmd[3] = PEC_return & 0xFF;
 1444              		.loc 1 631 9 is_stmt 0 view .LVU540
 1445 0038 030A     		lsrs	r3, r0, #8
 1446 003a 8DF80630 		strb	r3, [sp, #6]
 632:Src/LTC6811.c **** 	
 1447              		.loc 1 632 2 is_stmt 1 view .LVU541
 632:Src/LTC6811.c **** 	
 1448              		.loc 1 632 9 is_stmt 0 view .LVU542
 1449 003e 8DF80700 		strb	r0, [sp, #7]
 634:Src/LTC6811.c **** 	
 1450              		.loc 1 634 2 is_stmt 1 view .LVU543
 1451 0042 0421     		movs	r1, #4
 1452 0044 0DEB0100 		add	r0, sp, r1
 1453              	.LVL82:
 634:Src/LTC6811.c **** 	
 1454              		.loc 1 634 2 is_stmt 0 view .LVU544
 1455 0048 FFF7FEFF 		bl	SPIWrite
 1456              	.LVL83:
 636:Src/LTC6811.c **** };
 1457              		.loc 1 636 2 is_stmt 1 view .LVU545
 1458 004c 3046     		mov	r0, r6
 1459 004e FFF7FEFF 		bl	free
 1460              	.LVL84:
 637:Src/LTC6811.c **** 
 1461              		.loc 1 637 1 is_stmt 0 view .LVU546
 1462 0052 02B0     		add	sp, sp, #8
 1463              	.LCFI28:
 1464              		.cfi_def_cfa_offset 16
 1465              		@ sp needed
 1466 0054 70BD     		pop	{r4, r5, r6, pc}
 637:Src/LTC6811.c **** 
 1467              		.loc 1 637 1 view .LVU547
 1468              		.cfi_endproc
 1469              	.LFE79:
 1471              		.section	.text.readCellVoltage,"ax",%progbits
 1472              		.align	1
 1473              		.global	readCellVoltage
 1474              		.syntax unified
 1475              		.thumb
 1476              		.thumb_func
ARM GAS  C:\cygwin64\tmp\cc5fh40e.s 			page 47


 1477              		.fpu softvfp
 1479              	readCellVoltage:
 1480              	.LVL85:
 1481              	.LFB69:
 163:Src/LTC6811.c **** 	
 1482              		.loc 1 163 65 is_stmt 1 view -0
 1483              		.cfi_startproc
 1484              		@ args = 0, pretend = 0, frame = 0
 1485              		@ frame_needed = 0, uses_anonymous_args = 0
 163:Src/LTC6811.c **** 	
 1486              		.loc 1 163 65 is_stmt 0 view .LVU549
 1487 0000 F8B5     		push	{r3, r4, r5, r6, r7, lr}
 1488              	.LCFI29:
 1489              		.cfi_def_cfa_offset 24
 1490              		.cfi_offset 3, -24
 1491              		.cfi_offset 4, -20
 1492              		.cfi_offset 5, -16
 1493              		.cfi_offset 6, -12
 1494              		.cfi_offset 7, -8
 1495              		.cfi_offset 14, -4
 1496 0002 0746     		mov	r7, r0
 1497 0004 0D46     		mov	r5, r1
 165:Src/LTC6811.c **** 	bool dataValid = true;
 1498              		.loc 1 165 2 is_stmt 1 view .LVU550
 1499              	.LVL86:
 166:Src/LTC6811.c **** 	uint16_t *voltage;
 1500              		.loc 1 166 2 view .LVU551
 167:Src/LTC6811.c **** 	
 1501              		.loc 1 167 2 view .LVU552
 169:Src/LTC6811.c **** 	
 1502              		.loc 1 169 2 view .LVU553
 169:Src/LTC6811.c **** 	
 1503              		.loc 1 169 24 is_stmt 0 view .LVU554
 1504 0006 1820     		movs	r0, #24
 1505              	.LVL87:
 169:Src/LTC6811.c **** 	
 1506              		.loc 1 169 24 view .LVU555
 1507 0008 FFF7FEFF 		bl	malloc
 1508              	.LVL88:
 169:Src/LTC6811.c **** 	
 1509              		.loc 1 169 24 view .LVU556
 1510 000c 0446     		mov	r4, r0
 1511              	.LVL89:
 171:Src/LTC6811.c **** 
 1512              		.loc 1 171 2 is_stmt 1 view .LVU557
 1513 000e 3946     		mov	r1, r7
 1514 0010 4FF41870 		mov	r0, #608
 1515              	.LVL90:
 171:Src/LTC6811.c **** 
 1516              		.loc 1 171 2 is_stmt 0 view .LVU558
 1517 0014 FFF7FEFF 		bl	sendAddressCommand
 1518              	.LVL91:
 173:Src/LTC6811.c **** 	
 1519              		.loc 1 173 2 is_stmt 1 view .LVU559
 1520 0018 3220     		movs	r0, #50
 1521 001a FFF7FEFF 		bl	HAL_Delay
 1522              	.LVL92:
ARM GAS  C:\cygwin64\tmp\cc5fh40e.s 			page 48


 175:Src/LTC6811.c **** 	//dataValid = dataValid & PEC_check;
 1523              		.loc 1 175 2 view .LVU560
 175:Src/LTC6811.c **** 	//dataValid = dataValid & PEC_check;
 1524              		.loc 1 175 14 is_stmt 0 view .LVU561
 1525 001e 2246     		mov	r2, r4
 1526 0020 3946     		mov	r1, r7
 1527 0022 0420     		movs	r0, #4
 1528 0024 FFF7FEFF 		bl	readRegister
 1529              	.LVL93:
 177:Src/LTC6811.c **** 	dataValid = dataValid & PEC_check;
 1530              		.loc 1 177 2 is_stmt 1 view .LVU562
 177:Src/LTC6811.c **** 	dataValid = dataValid & PEC_check;
 1531              		.loc 1 177 14 is_stmt 0 view .LVU563
 1532 0028 2246     		mov	r2, r4
 1533 002a 3946     		mov	r1, r7
 1534 002c 0620     		movs	r0, #6
 1535 002e FFF7FEFF 		bl	readRegister
 1536              	.LVL94:
 1537 0032 0646     		mov	r6, r0
 1538              	.LVL95:
 178:Src/LTC6811.c **** 	PEC_check = readRegister(ReadCellVoltageRegisterGroup7to9, address, voltage);
 1539              		.loc 1 178 2 is_stmt 1 view .LVU564
 179:Src/LTC6811.c **** 	dataValid = dataValid & PEC_check;
 1540              		.loc 1 179 2 view .LVU565
 179:Src/LTC6811.c **** 	dataValid = dataValid & PEC_check;
 1541              		.loc 1 179 14 is_stmt 0 view .LVU566
 1542 0034 2246     		mov	r2, r4
 1543 0036 3946     		mov	r1, r7
 1544 0038 0820     		movs	r0, #8
 1545 003a FFF7FEFF 		bl	readRegister
 1546              	.LVL96:
 180:Src/LTC6811.c **** 	PEC_check = readRegister(ReadCellVoltageRegisterGroup10to12, address, voltage);
 1547              		.loc 1 180 2 is_stmt 1 view .LVU567
 1548 003e 0640     		ands	r6, r6, r0
 1549              	.LVL97:
 180:Src/LTC6811.c **** 	PEC_check = readRegister(ReadCellVoltageRegisterGroup10to12, address, voltage);
 1550              		.loc 1 180 2 is_stmt 0 view .LVU568
 1551 0040 F6B2     		uxtb	r6, r6
 1552              	.LVL98:
 181:Src/LTC6811.c **** 	dataValid = dataValid & PEC_check;
 1553              		.loc 1 181 2 is_stmt 1 view .LVU569
 181:Src/LTC6811.c **** 	dataValid = dataValid & PEC_check;
 1554              		.loc 1 181 14 is_stmt 0 view .LVU570
 1555 0042 2246     		mov	r2, r4
 1556 0044 3946     		mov	r1, r7
 1557 0046 0A20     		movs	r0, #10
 1558              	.LVL99:
 181:Src/LTC6811.c **** 	dataValid = dataValid & PEC_check;
 1559              		.loc 1 181 14 view .LVU571
 1560 0048 FFF7FEFF 		bl	readRegister
 1561              	.LVL100:
 182:Src/LTC6811.c **** 	PEC_check = readRegister(ReadCellVoltageRegisterGroup1to3, address, voltage);
 1562              		.loc 1 182 2 is_stmt 1 view .LVU572
 1563 004c 0640     		ands	r6, r6, r0
 1564              	.LVL101:
 183:Src/LTC6811.c **** 	dataValid = dataValid & PEC_check;
 1565              		.loc 1 183 2 view .LVU573
ARM GAS  C:\cygwin64\tmp\cc5fh40e.s 			page 49


 183:Src/LTC6811.c **** 	dataValid = dataValid & PEC_check;
 1566              		.loc 1 183 14 is_stmt 0 view .LVU574
 1567 004e 2246     		mov	r2, r4
 1568 0050 3946     		mov	r1, r7
 1569 0052 0420     		movs	r0, #4
 1570              	.LVL102:
 183:Src/LTC6811.c **** 	dataValid = dataValid & PEC_check;
 1571              		.loc 1 183 14 view .LVU575
 1572 0054 FFF7FEFF 		bl	readRegister
 1573              	.LVL103:
 184:Src/LTC6811.c **** 	
 1574              		.loc 1 184 2 is_stmt 1 view .LVU576
 1575 0058 0640     		ands	r6, r6, r0
 1576              	.LVL104:
 186:Src/LTC6811.c **** 		cellVoltage[i] = voltage[i];
 1577              		.loc 1 186 2 view .LVU577
 1578              	.LBB8:
 186:Src/LTC6811.c **** 		cellVoltage[i] = voltage[i];
 1579              		.loc 1 186 7 view .LVU578
 186:Src/LTC6811.c **** 		cellVoltage[i] = voltage[i];
 1580              		.loc 1 186 15 is_stmt 0 view .LVU579
 1581 005a 0023     		movs	r3, #0
 1582              	.LVL105:
 1583              	.L54:
 186:Src/LTC6811.c **** 		cellVoltage[i] = voltage[i];
 1584              		.loc 1 186 2 discriminator 1 view .LVU580
 1585 005c 0B2B     		cmp	r3, #11
 1586 005e 06D8     		bhi	.L57
 187:Src/LTC6811.c **** 	}
 1587              		.loc 1 187 3 is_stmt 1 discriminator 3 view .LVU581
 187:Src/LTC6811.c **** 	}
 1588              		.loc 1 187 27 is_stmt 0 discriminator 3 view .LVU582
 1589 0060 34F81320 		ldrh	r2, [r4, r3, lsl #1]
 187:Src/LTC6811.c **** 	}
 1590              		.loc 1 187 18 discriminator 3 view .LVU583
 1591 0064 25F81320 		strh	r2, [r5, r3, lsl #1]	@ movhi
 186:Src/LTC6811.c **** 		cellVoltage[i] = voltage[i];
 1592              		.loc 1 186 31 discriminator 3 view .LVU584
 1593 0068 0133     		adds	r3, r3, #1
 1594              	.LVL106:
 186:Src/LTC6811.c **** 		cellVoltage[i] = voltage[i];
 1595              		.loc 1 186 31 discriminator 3 view .LVU585
 1596 006a DBB2     		uxtb	r3, r3
 1597              	.LVL107:
 186:Src/LTC6811.c **** 		cellVoltage[i] = voltage[i];
 1598              		.loc 1 186 31 discriminator 3 view .LVU586
 1599 006c F6E7     		b	.L54
 1600              	.L57:
 186:Src/LTC6811.c **** 		cellVoltage[i] = voltage[i];
 1601              		.loc 1 186 31 discriminator 3 view .LVU587
 1602              	.LBE8:
 190:Src/LTC6811.c **** 	
 1603              		.loc 1 190 2 is_stmt 1 view .LVU588
 1604 006e 2046     		mov	r0, r4
 1605              	.LVL108:
 190:Src/LTC6811.c **** 	
 1606              		.loc 1 190 2 is_stmt 0 view .LVU589
ARM GAS  C:\cygwin64\tmp\cc5fh40e.s 			page 50


 1607 0070 FFF7FEFF 		bl	free
 1608              	.LVL109:
 192:Src/LTC6811.c **** 	
 1609              		.loc 1 192 2 is_stmt 1 view .LVU590
 194:Src/LTC6811.c **** 
 1610              		.loc 1 194 1 is_stmt 0 view .LVU591
 1611 0074 3046     		mov	r0, r6
 1612 0076 F8BD     		pop	{r3, r4, r5, r6, r7, pc}
 194:Src/LTC6811.c **** 
 1613              		.loc 1 194 1 view .LVU592
 1614              		.cfi_endproc
 1615              	.LFE69:
 1617              		.section	.text.readAllCellVoltages,"ax",%progbits
 1618              		.align	1
 1619              		.global	readAllCellVoltages
 1620              		.syntax unified
 1621              		.thumb
 1622              		.thumb_func
 1623              		.fpu softvfp
 1625              	readAllCellVoltages:
 1626              	.LVL110:
 1627              	.LFB70:
 196:Src/LTC6811.c **** 	
 1628              		.loc 1 196 84 is_stmt 1 view -0
 1629              		.cfi_startproc
 1630              		@ args = 80, pretend = 16, frame = 0
 1631              		@ frame_needed = 1, uses_anonymous_args = 0
 196:Src/LTC6811.c **** 	
 1632              		.loc 1 196 84 is_stmt 0 view .LVU594
 1633 0000 84B0     		sub	sp, sp, #16
 1634              	.LCFI30:
 1635              		.cfi_def_cfa_offset 16
 1636 0002 2DE9F843 		push	{r3, r4, r5, r6, r7, r8, r9, lr}
 1637              	.LCFI31:
 1638              		.cfi_def_cfa_offset 48
 1639              		.cfi_offset 3, -48
 1640              		.cfi_offset 4, -44
 1641              		.cfi_offset 5, -40
 1642              		.cfi_offset 6, -36
 1643              		.cfi_offset 7, -32
 1644              		.cfi_offset 8, -28
 1645              		.cfi_offset 9, -24
 1646              		.cfi_offset 14, -20
 1647 0006 00AF     		add	r7, sp, #0
 1648              	.LCFI32:
 1649              		.cfi_def_cfa_register 7
 1650 0008 07F12004 		add	r4, r7, #32
 1651 000c 84E80F00 		stm	r4, {r0, r1, r2, r3}
 1652 0010 FE6E     		ldr	r6, [r7, #108]
 216:Src/LTC6811.c **** 	bool PEC_check[cfg.numOfICs];
 1653              		.loc 1 216 2 is_stmt 1 view .LVU595
 216:Src/LTC6811.c **** 	bool PEC_check[cfg.numOfICs];
 1654              		.loc 1 216 27 is_stmt 0 view .LVU596
 1655 0012 97F84130 		ldrb	r3, [r7, #65]	@ zero_extendqisi2
 1656              	.LVL111:
 216:Src/LTC6811.c **** 	bool PEC_check[cfg.numOfICs];
 1657              		.loc 1 216 11 view .LVU597
ARM GAS  C:\cygwin64\tmp\cc5fh40e.s 			page 51


 1658 0016 5B00     		lsls	r3, r3, #1
 1659              	.LVL112:
 216:Src/LTC6811.c **** 	bool PEC_check[cfg.numOfICs];
 1660              		.loc 1 216 11 view .LVU598
 1661 0018 0733     		adds	r3, r3, #7
 1662 001a 03F47E73 		and	r3, r3, #1016
 1663 001e ADEB030D 		sub	sp, sp, r3
 1664 0022 6D46     		mov	r5, sp
 1665              	.LVL113:
 217:Src/LTC6811.c **** 	bool dataValid = true;
 1666              		.loc 1 217 2 is_stmt 1 view .LVU599
 217:Src/LTC6811.c **** 	bool dataValid = true;
 1667              		.loc 1 217 20 is_stmt 0 view .LVU600
 1668 0024 97F82080 		ldrb	r8, [r7, #32]	@ zero_extendqisi2
 1669              	.LVL114:
 217:Src/LTC6811.c **** 	bool dataValid = true;
 1670              		.loc 1 217 7 view .LVU601
 1671 0028 08F10703 		add	r3, r8, #7
 1672 002c 03F4FC73 		and	r3, r3, #504
 1673 0030 ADEB030D 		sub	sp, sp, r3
 1674 0034 E946     		mov	r9, sp
 1675              	.LVL115:
 218:Src/LTC6811.c **** 
 1676              		.loc 1 218 2 is_stmt 1 view .LVU602
 220:Src/LTC6811.c **** 
 1677              		.loc 1 220 2 view .LVU603
 1678              	.LBB9:
 220:Src/LTC6811.c **** 
 1679              		.loc 1 220 7 view .LVU604
 220:Src/LTC6811.c **** 
 1680              		.loc 1 220 15 is_stmt 0 view .LVU605
 1681 0036 0024     		movs	r4, #0
 220:Src/LTC6811.c **** 
 1682              		.loc 1 220 2 view .LVU606
 1683 0038 01E0     		b	.L59
 1684              	.LVL116:
 1685              	.L69:
 220:Src/LTC6811.c **** 
 1686              		.loc 1 220 41 discriminator 2 view .LVU607
 1687 003a 0134     		adds	r4, r4, #1
 1688              	.LVL117:
 220:Src/LTC6811.c **** 
 1689              		.loc 1 220 41 discriminator 2 view .LVU608
 1690 003c E4B2     		uxtb	r4, r4
 1691              	.LVL118:
 1692              	.L59:
 220:Src/LTC6811.c **** 
 1693              		.loc 1 220 2 discriminator 1 view .LVU609
 1694 003e 4445     		cmp	r4, r8
 1695 0040 16D2     		bcs	.L68
 222:Src/LTC6811.c **** 
 1696              		.loc 1 222 3 is_stmt 1 view .LVU610
 222:Src/LTC6811.c **** 
 1697              		.loc 1 222 18 is_stmt 0 view .LVU611
 1698 0042 07F12003 		add	r3, r7, #32
 1699 0046 2344     		add	r3, r3, r4
 1700 0048 2946     		mov	r1, r5
ARM GAS  C:\cygwin64\tmp\cc5fh40e.s 			page 52


 1701 004a 5878     		ldrb	r0, [r3, #1]	@ zero_extendqisi2
 1702 004c FFF7FEFF 		bl	readCellVoltage
 1703              	.LVL119:
 222:Src/LTC6811.c **** 
 1704              		.loc 1 222 16 view .LVU612
 1705 0050 09F80400 		strb	r0, [r9, r4]
 224:Src/LTC6811.c **** 			cellVoltage[i][j] = boardVoltage[j];
 1706              		.loc 1 224 3 is_stmt 1 view .LVU613
 1707              	.LBB10:
 224:Src/LTC6811.c **** 			cellVoltage[i][j] = boardVoltage[j];
 1708              		.loc 1 224 8 view .LVU614
 1709              	.LVL120:
 224:Src/LTC6811.c **** 			cellVoltage[i][j] = boardVoltage[j];
 1710              		.loc 1 224 16 is_stmt 0 view .LVU615
 1711 0054 0023     		movs	r3, #0
 1712              	.LVL121:
 1713              	.L60:
 224:Src/LTC6811.c **** 			cellVoltage[i][j] = boardVoltage[j];
 1714              		.loc 1 224 3 discriminator 1 view .LVU616
 1715 0056 0B2B     		cmp	r3, #11
 1716 0058 EFD8     		bhi	.L69
 225:Src/LTC6811.c **** 		}
 1717              		.loc 1 225 4 is_stmt 1 discriminator 3 view .LVU617
 225:Src/LTC6811.c **** 		}
 1718              		.loc 1 225 15 is_stmt 0 discriminator 3 view .LVU618
 1719 005a 04EB4401 		add	r1, r4, r4, lsl #1
 1720 005e CA00     		lsls	r2, r1, #3
 1721 0060 3244     		add	r2, r2, r6
 225:Src/LTC6811.c **** 		}
 1722              		.loc 1 225 36 discriminator 3 view .LVU619
 1723 0062 35F81310 		ldrh	r1, [r5, r3, lsl #1]
 225:Src/LTC6811.c **** 		}
 1724              		.loc 1 225 22 discriminator 3 view .LVU620
 1725 0066 22F81310 		strh	r1, [r2, r3, lsl #1]	@ movhi
 224:Src/LTC6811.c **** 			cellVoltage[i][j] = boardVoltage[j];
 1726              		.loc 1 224 32 discriminator 3 view .LVU621
 1727 006a 0133     		adds	r3, r3, #1
 1728              	.LVL122:
 224:Src/LTC6811.c **** 			cellVoltage[i][j] = boardVoltage[j];
 1729              		.loc 1 224 32 discriminator 3 view .LVU622
 1730 006c DBB2     		uxtb	r3, r3
 1731              	.LVL123:
 224:Src/LTC6811.c **** 			cellVoltage[i][j] = boardVoltage[j];
 1732              		.loc 1 224 32 discriminator 3 view .LVU623
 1733 006e F2E7     		b	.L60
 1734              	.LVL124:
 1735              	.L68:
 224:Src/LTC6811.c **** 			cellVoltage[i][j] = boardVoltage[j];
 1736              		.loc 1 224 32 discriminator 3 view .LVU624
 1737              	.LBE10:
 1738              	.LBE9:
 1739              	.LBB11:
 229:Src/LTC6811.c **** 		if (PEC_check[k] == 0)
 1740              		.loc 1 229 15 view .LVU625
 1741 0070 0023     		movs	r3, #0
 1742              	.LBE11:
 218:Src/LTC6811.c **** 
ARM GAS  C:\cygwin64\tmp\cc5fh40e.s 			page 53


 1743              		.loc 1 218 7 view .LVU626
 1744 0072 0120     		movs	r0, #1
 1745 0074 01E0     		b	.L63
 1746              	.LVL125:
 1747              	.L64:
 1748              	.LBB12:
 229:Src/LTC6811.c **** 		if (PEC_check[k] == 0)
 1749              		.loc 1 229 41 discriminator 2 view .LVU627
 1750 0076 0133     		adds	r3, r3, #1
 1751              	.LVL126:
 229:Src/LTC6811.c **** 		if (PEC_check[k] == 0)
 1752              		.loc 1 229 41 discriminator 2 view .LVU628
 1753 0078 DBB2     		uxtb	r3, r3
 1754              	.LVL127:
 1755              	.L63:
 229:Src/LTC6811.c **** 		if (PEC_check[k] == 0)
 1756              		.loc 1 229 2 discriminator 1 view .LVU629
 1757 007a 4345     		cmp	r3, r8
 1758 007c 05D2     		bcs	.L70
 230:Src/LTC6811.c **** 			dataValid = false;
 1759              		.loc 1 230 3 is_stmt 1 view .LVU630
 230:Src/LTC6811.c **** 			dataValid = false;
 1760              		.loc 1 230 16 is_stmt 0 view .LVU631
 1761 007e 19F80320 		ldrb	r2, [r9, r3]	@ zero_extendqisi2
 230:Src/LTC6811.c **** 			dataValid = false;
 1762              		.loc 1 230 6 view .LVU632
 1763 0082 002A     		cmp	r2, #0
 1764 0084 F7D1     		bne	.L64
 231:Src/LTC6811.c **** 	}
 1765              		.loc 1 231 14 view .LVU633
 1766 0086 1046     		mov	r0, r2
 1767              	.LVL128:
 231:Src/LTC6811.c **** 	}
 1768              		.loc 1 231 14 view .LVU634
 1769 0088 F5E7     		b	.L64
 1770              	.LVL129:
 1771              	.L70:
 231:Src/LTC6811.c **** 	}
 1772              		.loc 1 231 14 view .LVU635
 1773              	.LBE12:
 235:Src/LTC6811.c **** 
 1774              		.loc 1 235 1 view .LVU636
 1775 008a BD46     		mov	sp, r7
 1776              	.LCFI33:
 1777              		.cfi_def_cfa_register 13
 1778              		@ sp needed
 1779 008c BDE8F843 		pop	{r3, r4, r5, r6, r7, r8, r9, lr}
 1780              	.LCFI34:
 1781              		.cfi_restore 14
 1782              		.cfi_restore 9
 1783              		.cfi_restore 8
 1784              		.cfi_restore 7
 1785              		.cfi_restore 6
 1786              		.cfi_restore 5
 1787              		.cfi_restore 4
 1788              		.cfi_restore 3
 1789              		.cfi_def_cfa_offset 16
ARM GAS  C:\cygwin64\tmp\cc5fh40e.s 			page 54


 1790              	.LVL130:
 235:Src/LTC6811.c **** 
 1791              		.loc 1 235 1 view .LVU637
 1792 0090 04B0     		add	sp, sp, #16
 1793              	.LCFI35:
 1794              		.cfi_def_cfa_offset 0
 1795 0092 7047     		bx	lr
 1796              		.cfi_endproc
 1797              	.LFE70:
 1799              		.section	.text.checkCellConnection,"ax",%progbits
 1800              		.align	1
 1801              		.global	checkCellConnection
 1802              		.syntax unified
 1803              		.thumb
 1804              		.thumb_func
 1805              		.fpu softvfp
 1807              	checkCellConnection:
 1808              	.LVL131:
 1809              	.LFB74:
 360:Src/LTC6811.c **** 		
 1810              		.loc 1 360 77 is_stmt 1 view -0
 1811              		.cfi_startproc
 1812              		@ args = 0, pretend = 0, frame = 24
 1813              		@ frame_needed = 0, uses_anonymous_args = 0
 360:Src/LTC6811.c **** 		
 1814              		.loc 1 360 77 is_stmt 0 view .LVU639
 1815 0000 30B5     		push	{r4, r5, lr}
 1816              	.LCFI36:
 1817              		.cfi_def_cfa_offset 12
 1818              		.cfi_offset 4, -12
 1819              		.cfi_offset 5, -8
 1820              		.cfi_offset 14, -4
 1821 0002 87B0     		sub	sp, sp, #28
 1822              	.LCFI37:
 1823              		.cfi_def_cfa_offset 40
 1824 0004 0446     		mov	r4, r0
 1825 0006 0D46     		mov	r5, r1
 362:Src/LTC6811.c **** 	bool disconnect = false;
 1826              		.loc 1 362 2 is_stmt 1 view .LVU640
 363:Src/LTC6811.c **** 	
 1827              		.loc 1 363 2 view .LVU641
 1828              	.LVL132:
 366:Src/LTC6811.c **** 	sendBroadcastCommand(StartOpenWireConversionPulldown);
 1829              		.loc 1 366 2 view .LVU642
 1830 0008 40F22920 		movw	r0, #553
 1831              	.LVL133:
 366:Src/LTC6811.c **** 	sendBroadcastCommand(StartOpenWireConversionPulldown);
 1832              		.loc 1 366 2 is_stmt 0 view .LVU643
 1833 000c FFF7FEFF 		bl	sendBroadcastCommand
 1834              	.LVL134:
 367:Src/LTC6811.c **** 	sendBroadcastCommand(StartOpenWireConversionPulldown);
 1835              		.loc 1 367 2 is_stmt 1 view .LVU644
 1836 0010 40F22920 		movw	r0, #553
 1837 0014 FFF7FEFF 		bl	sendBroadcastCommand
 1838              	.LVL135:
 368:Src/LTC6811.c **** 	sendBroadcastCommand(StartOpenWireConversionPulldown);
 1839              		.loc 1 368 2 view .LVU645
ARM GAS  C:\cygwin64\tmp\cc5fh40e.s 			page 55


 1840 0018 40F22920 		movw	r0, #553
 1841 001c FFF7FEFF 		bl	sendBroadcastCommand
 1842              	.LVL136:
 369:Src/LTC6811.c **** 	sendBroadcastCommand(StartOpenWireConversionPulldown);
 1843              		.loc 1 369 2 view .LVU646
 1844 0020 40F22920 		movw	r0, #553
 1845 0024 FFF7FEFF 		bl	sendBroadcastCommand
 1846              	.LVL137:
 370:Src/LTC6811.c **** 	sendBroadcastCommand(StartOpenWireConversionPulldown);
 1847              		.loc 1 370 2 view .LVU647
 1848 0028 40F22920 		movw	r0, #553
 1849 002c FFF7FEFF 		bl	sendBroadcastCommand
 1850              	.LVL138:
 371:Src/LTC6811.c **** 	sendBroadcastCommand(StartOpenWireConversionPulldown);
 1851              		.loc 1 371 2 view .LVU648
 1852 0030 40F22920 		movw	r0, #553
 1853 0034 FFF7FEFF 		bl	sendBroadcastCommand
 1854              	.LVL139:
 372:Src/LTC6811.c **** 	sendBroadcastCommand(StartOpenWireConversionPulldown);
 1855              		.loc 1 372 2 view .LVU649
 1856 0038 40F22920 		movw	r0, #553
 1857 003c FFF7FEFF 		bl	sendBroadcastCommand
 1858              	.LVL140:
 373:Src/LTC6811.c **** 
 1859              		.loc 1 373 2 view .LVU650
 1860 0040 40F22920 		movw	r0, #553
 1861 0044 FFF7FEFF 		bl	sendBroadcastCommand
 1862              	.LVL141:
 375:Src/LTC6811.c **** 	
 1863              		.loc 1 375 2 view .LVU651
 1864 0048 3220     		movs	r0, #50
 1865 004a FFF7FEFF 		bl	HAL_Delay
 1866              	.LVL142:
 377:Src/LTC6811.c **** 	readCellVoltage(0, ADOWvoltage);
 1867              		.loc 1 377 2 view .LVU652
 1868 004e 6946     		mov	r1, sp
 1869 0050 0020     		movs	r0, #0
 1870 0052 FFF7FEFF 		bl	readCellVoltage
 1871              	.LVL143:
 378:Src/LTC6811.c **** 	readCellVoltage(0, ADOWvoltage);
 1872              		.loc 1 378 2 view .LVU653
 1873 0056 6946     		mov	r1, sp
 1874 0058 0020     		movs	r0, #0
 1875 005a FFF7FEFF 		bl	readCellVoltage
 1876              	.LVL144:
 379:Src/LTC6811.c **** 	
 1877              		.loc 1 379 2 view .LVU654
 1878 005e 6946     		mov	r1, sp
 1879 0060 0020     		movs	r0, #0
 1880 0062 FFF7FEFF 		bl	readCellVoltage
 1881              	.LVL145:
 381:Src/LTC6811.c **** 		// if voltage fell by > 100mV
 1882              		.loc 1 381 2 view .LVU655
 1883              	.LBB13:
 381:Src/LTC6811.c **** 		// if voltage fell by > 100mV
 1884              		.loc 1 381 7 view .LVU656
 381:Src/LTC6811.c **** 		// if voltage fell by > 100mV
ARM GAS  C:\cygwin64\tmp\cc5fh40e.s 			page 56


 1885              		.loc 1 381 15 is_stmt 0 view .LVU657
 1886 0066 0023     		movs	r3, #0
 1887              	.LBE13:
 363:Src/LTC6811.c **** 	
 1888              		.loc 1 363 7 view .LVU658
 1889 0068 1846     		mov	r0, r3
 1890              	.LBB14:
 381:Src/LTC6811.c **** 		// if voltage fell by > 100mV
 1891              		.loc 1 381 2 view .LVU659
 1892 006a 03E0     		b	.L72
 1893              	.LVL146:
 1894              	.L73:
 388:Src/LTC6811.c **** 		}
 1895              		.loc 1 388 4 is_stmt 1 view .LVU660
 388:Src/LTC6811.c **** 		}
 1896              		.loc 1 388 22 is_stmt 0 view .LVU661
 1897 006c 0122     		movs	r2, #1
 1898 006e EA54     		strb	r2, [r5, r3]
 1899              	.LVL147:
 1900              	.L74:
 381:Src/LTC6811.c **** 		// if voltage fell by > 100mV
 1901              		.loc 1 381 31 discriminator 2 view .LVU662
 1902 0070 0133     		adds	r3, r3, #1
 1903              	.LVL148:
 381:Src/LTC6811.c **** 		// if voltage fell by > 100mV
 1904              		.loc 1 381 31 discriminator 2 view .LVU663
 1905 0072 DBB2     		uxtb	r3, r3
 1906              	.LVL149:
 1907              	.L72:
 381:Src/LTC6811.c **** 		// if voltage fell by > 100mV
 1908              		.loc 1 381 2 discriminator 1 view .LVU664
 1909 0074 0B2B     		cmp	r3, #11
 1910 0076 0ED8     		bhi	.L77
 383:Src/LTC6811.c **** 			cellConnection[i] = 0; // cell is disconnected
 1911              		.loc 1 383 3 is_stmt 1 view .LVU665
 383:Src/LTC6811.c **** 			cellConnection[i] = 0; // cell is disconnected
 1912              		.loc 1 383 19 is_stmt 0 view .LVU666
 1913 0078 34F81320 		ldrh	r2, [r4, r3, lsl #1]
 383:Src/LTC6811.c **** 			cellConnection[i] = 0; // cell is disconnected
 1914              		.loc 1 383 36 view .LVU667
 1915 007c 06A9     		add	r1, sp, #24
 1916 007e 01EB4301 		add	r1, r1, r3, lsl #1
 1917 0082 31F8181C 		ldrh	r1, [r1, #-24]
 383:Src/LTC6811.c **** 			cellConnection[i] = 0; // cell is disconnected
 1918              		.loc 1 383 23 view .LVU668
 1919 0086 521A     		subs	r2, r2, r1
 383:Src/LTC6811.c **** 			cellConnection[i] = 0; // cell is disconnected
 1920              		.loc 1 383 6 view .LVU669
 1921 0088 B2F57A7F 		cmp	r2, #1000
 1922 008c EEDD     		ble	.L73
 384:Src/LTC6811.c **** 			disconnect = true;
 1923              		.loc 1 384 4 is_stmt 1 view .LVU670
 384:Src/LTC6811.c **** 			disconnect = true;
 1924              		.loc 1 384 22 is_stmt 0 view .LVU671
 1925 008e 0022     		movs	r2, #0
 1926 0090 EA54     		strb	r2, [r5, r3]
 385:Src/LTC6811.c **** 		}
ARM GAS  C:\cygwin64\tmp\cc5fh40e.s 			page 57


 1927              		.loc 1 385 4 is_stmt 1 view .LVU672
 1928              	.LVL150:
 385:Src/LTC6811.c **** 		}
 1929              		.loc 1 385 15 is_stmt 0 view .LVU673
 1930 0092 0120     		movs	r0, #1
 1931 0094 ECE7     		b	.L74
 1932              	.LVL151:
 1933              	.L77:
 385:Src/LTC6811.c **** 		}
 1934              		.loc 1 385 15 view .LVU674
 1935              	.LBE14:
 392:Src/LTC6811.c **** 
 1936              		.loc 1 392 1 view .LVU675
 1937 0096 07B0     		add	sp, sp, #28
 1938              	.LCFI38:
 1939              		.cfi_def_cfa_offset 12
 1940              		@ sp needed
 1941 0098 30BD     		pop	{r4, r5, pc}
 392:Src/LTC6811.c **** 
 1942              		.loc 1 392 1 view .LVU676
 1943              		.cfi_endproc
 1944              	.LFE74:
 1946              		.section	.text.checkAllCellConnections,"ax",%progbits
 1947              		.align	1
 1948              		.global	checkAllCellConnections
 1949              		.syntax unified
 1950              		.thumb
 1951              		.thumb_func
 1952              		.fpu softvfp
 1954              	checkAllCellConnections:
 1955              	.LVL152:
 1956              	.LFB75:
 394:Src/LTC6811.c **** 	
 1957              		.loc 1 394 117 is_stmt 1 view -0
 1958              		.cfi_startproc
 1959              		@ args = 84, pretend = 16, frame = 40
 1960              		@ frame_needed = 0, uses_anonymous_args = 0
 394:Src/LTC6811.c **** 	
 1961              		.loc 1 394 117 is_stmt 0 view .LVU678
 1962 0000 84B0     		sub	sp, sp, #16
 1963              	.LCFI39:
 1964              		.cfi_def_cfa_offset 16
 1965 0002 F0B5     		push	{r4, r5, r6, r7, lr}
 1966              	.LCFI40:
 1967              		.cfi_def_cfa_offset 36
 1968              		.cfi_offset 4, -36
 1969              		.cfi_offset 5, -32
 1970              		.cfi_offset 6, -28
 1971              		.cfi_offset 7, -24
 1972              		.cfi_offset 14, -20
 1973 0004 8BB0     		sub	sp, sp, #44
 1974              	.LCFI41:
 1975              		.cfi_def_cfa_offset 80
 1976 0006 10AC     		add	r4, sp, #64
 1977 0008 84E80F00 		stm	r4, {r0, r1, r2, r3}
 1978 000c 239E     		ldr	r6, [sp, #140]
 1979 000e 249D     		ldr	r5, [sp, #144]
ARM GAS  C:\cygwin64\tmp\cc5fh40e.s 			page 58


 396:Src/LTC6811.c **** 	bool connectionBuffer[12];
 1980              		.loc 1 396 2 is_stmt 1 view .LVU679
 397:Src/LTC6811.c **** 	bool individual_check;
 1981              		.loc 1 397 2 view .LVU680
 398:Src/LTC6811.c **** 	bool disconnect = false;
 1982              		.loc 1 398 2 view .LVU681
 399:Src/LTC6811.c **** 	
 1983              		.loc 1 399 2 view .LVU682
 1984              	.LVL153:
 401:Src/LTC6811.c **** 
 1985              		.loc 1 401 2 view .LVU683
 1986              	.LBB15:
 401:Src/LTC6811.c **** 
 1987              		.loc 1 401 7 view .LVU684
 401:Src/LTC6811.c **** 
 1988              		.loc 1 401 15 is_stmt 0 view .LVU685
 1989 0010 0024     		movs	r4, #0
 1990              	.LBE15:
 399:Src/LTC6811.c **** 	
 1991              		.loc 1 399 7 view .LVU686
 1992 0012 2746     		mov	r7, r4
 1993              	.LBB18:
 401:Src/LTC6811.c **** 
 1994              		.loc 1 401 2 view .LVU687
 1995 0014 16E0     		b	.L79
 1996              	.LVL154:
 1997              	.L88:
 406:Src/LTC6811.c **** 		disconnect = disconnect | individual_check;
 1998              		.loc 1 406 3 is_stmt 1 view .LVU688
 406:Src/LTC6811.c **** 		disconnect = disconnect | individual_check;
 1999              		.loc 1 406 22 is_stmt 0 view .LVU689
 2000 0016 01A9     		add	r1, sp, #4
 2001 0018 04A8     		add	r0, sp, #16
 2002 001a FFF7FEFF 		bl	checkCellConnection
 2003              	.LVL155:
 407:Src/LTC6811.c **** 
 2004              		.loc 1 407 3 is_stmt 1 view .LVU690
 407:Src/LTC6811.c **** 
 2005              		.loc 1 407 27 is_stmt 0 view .LVU691
 2006 001e 0743     		orrs	r7, r7, r0
 2007              	.LVL156:
 407:Src/LTC6811.c **** 
 2008              		.loc 1 407 27 view .LVU692
 2009 0020 FFB2     		uxtb	r7, r7
 2010              	.LVL157:
 409:Src/LTC6811.c **** 			cellConnection[i][j] = connectionBuffer[j];
 2011              		.loc 1 409 3 is_stmt 1 view .LVU693
 2012              	.LBB16:
 409:Src/LTC6811.c **** 			cellConnection[i][j] = connectionBuffer[j];
 2013              		.loc 1 409 8 view .LVU694
 409:Src/LTC6811.c **** 			cellConnection[i][j] = connectionBuffer[j];
 2014              		.loc 1 409 16 is_stmt 0 view .LVU695
 2015 0022 0023     		movs	r3, #0
 2016              	.LVL158:
 2017              	.L81:
 409:Src/LTC6811.c **** 			cellConnection[i][j] = connectionBuffer[j];
 2018              		.loc 1 409 3 discriminator 1 view .LVU696
ARM GAS  C:\cygwin64\tmp\cc5fh40e.s 			page 59


 2019 0024 0B2B     		cmp	r3, #11
 2020 0026 0BD8     		bhi	.L86
 410:Src/LTC6811.c **** 		}
 2021              		.loc 1 410 4 is_stmt 1 discriminator 3 view .LVU697
 410:Src/LTC6811.c **** 		}
 2022              		.loc 1 410 18 is_stmt 0 discriminator 3 view .LVU698
 2023 0028 04EB4401 		add	r1, r4, r4, lsl #1
 2024 002c 8A00     		lsls	r2, r1, #2
 2025 002e 2A44     		add	r2, r2, r5
 410:Src/LTC6811.c **** 		}
 2026              		.loc 1 410 43 discriminator 3 view .LVU699
 2027 0030 0AA9     		add	r1, sp, #40
 2028 0032 1944     		add	r1, r1, r3
 2029 0034 11F8241C 		ldrb	r1, [r1, #-36]	@ zero_extendqisi2
 410:Src/LTC6811.c **** 		}
 2030              		.loc 1 410 25 discriminator 3 view .LVU700
 2031 0038 D154     		strb	r1, [r2, r3]
 409:Src/LTC6811.c **** 			cellConnection[i][j] = connectionBuffer[j];
 2032              		.loc 1 409 32 discriminator 3 view .LVU701
 2033 003a 0133     		adds	r3, r3, #1
 2034              	.LVL159:
 409:Src/LTC6811.c **** 			cellConnection[i][j] = connectionBuffer[j];
 2035              		.loc 1 409 32 discriminator 3 view .LVU702
 2036 003c DBB2     		uxtb	r3, r3
 2037              	.LVL160:
 409:Src/LTC6811.c **** 			cellConnection[i][j] = connectionBuffer[j];
 2038              		.loc 1 409 32 discriminator 3 view .LVU703
 2039 003e F1E7     		b	.L81
 2040              	.L86:
 409:Src/LTC6811.c **** 			cellConnection[i][j] = connectionBuffer[j];
 2041              		.loc 1 409 32 discriminator 3 view .LVU704
 2042              	.LBE16:
 401:Src/LTC6811.c **** 
 2043              		.loc 1 401 41 discriminator 2 view .LVU705
 2044 0040 0134     		adds	r4, r4, #1
 2045              	.LVL161:
 401:Src/LTC6811.c **** 
 2046              		.loc 1 401 41 discriminator 2 view .LVU706
 2047 0042 E4B2     		uxtb	r4, r4
 2048              	.LVL162:
 2049              	.L79:
 401:Src/LTC6811.c **** 
 2050              		.loc 1 401 29 discriminator 1 view .LVU707
 2051 0044 9DF84030 		ldrb	r3, [sp, #64]	@ zero_extendqisi2
 401:Src/LTC6811.c **** 
 2052              		.loc 1 401 2 discriminator 1 view .LVU708
 2053 0048 A342     		cmp	r3, r4
 2054 004a 10D9     		bls	.L87
 2055              	.LBB17:
 403:Src/LTC6811.c **** 			voltageBuffer[k] = cellVoltage[i][k];
 2056              		.loc 1 403 16 view .LVU709
 2057 004c 0023     		movs	r3, #0
 2058              	.L83:
 2059              	.LVL163:
 403:Src/LTC6811.c **** 			voltageBuffer[k] = cellVoltage[i][k];
 2060              		.loc 1 403 3 discriminator 1 view .LVU710
 2061 004e 0B2B     		cmp	r3, #11
ARM GAS  C:\cygwin64\tmp\cc5fh40e.s 			page 60


 2062 0050 E1D8     		bhi	.L88
 404:Src/LTC6811.c **** 
 2063              		.loc 1 404 4 is_stmt 1 discriminator 3 view .LVU711
 404:Src/LTC6811.c **** 
 2064              		.loc 1 404 34 is_stmt 0 discriminator 3 view .LVU712
 2065 0052 04EB4401 		add	r1, r4, r4, lsl #1
 2066 0056 CA00     		lsls	r2, r1, #3
 2067 0058 3244     		add	r2, r2, r6
 404:Src/LTC6811.c **** 
 2068              		.loc 1 404 37 discriminator 3 view .LVU713
 2069 005a 32F81310 		ldrh	r1, [r2, r3, lsl #1]
 404:Src/LTC6811.c **** 
 2070              		.loc 1 404 21 discriminator 3 view .LVU714
 2071 005e 0AAA     		add	r2, sp, #40
 2072 0060 02EB4302 		add	r2, r2, r3, lsl #1
 2073 0064 22F8181C 		strh	r1, [r2, #-24]	@ movhi
 403:Src/LTC6811.c **** 			voltageBuffer[k] = cellVoltage[i][k];
 2074              		.loc 1 403 32 discriminator 3 view .LVU715
 2075 0068 0133     		adds	r3, r3, #1
 2076              	.LVL164:
 403:Src/LTC6811.c **** 			voltageBuffer[k] = cellVoltage[i][k];
 2077              		.loc 1 403 32 discriminator 3 view .LVU716
 2078 006a DBB2     		uxtb	r3, r3
 2079              	.LVL165:
 403:Src/LTC6811.c **** 			voltageBuffer[k] = cellVoltage[i][k];
 2080              		.loc 1 403 32 discriminator 3 view .LVU717
 2081 006c EFE7     		b	.L83
 2082              	.LVL166:
 2083              	.L87:
 403:Src/LTC6811.c **** 			voltageBuffer[k] = cellVoltage[i][k];
 2084              		.loc 1 403 32 discriminator 3 view .LVU718
 2085              	.LBE17:
 2086              	.LBE18:
 414:Src/LTC6811.c **** }
 2087              		.loc 1 414 2 is_stmt 1 view .LVU719
 415:Src/LTC6811.c **** 
 2088              		.loc 1 415 1 is_stmt 0 view .LVU720
 2089 006e 3846     		mov	r0, r7
 2090 0070 0BB0     		add	sp, sp, #44
 2091              	.LCFI42:
 2092              		.cfi_def_cfa_offset 36
 2093              		@ sp needed
 2094 0072 BDE8F040 		pop	{r4, r5, r6, r7, lr}
 2095              	.LCFI43:
 2096              		.cfi_restore 14
 2097              		.cfi_restore 7
 2098              		.cfi_restore 6
 2099              		.cfi_restore 5
 2100              		.cfi_restore 4
 2101              		.cfi_def_cfa_offset 16
 2102              	.LVL167:
 415:Src/LTC6811.c **** 
 2103              		.loc 1 415 1 view .LVU721
 2104 0076 04B0     		add	sp, sp, #16
 2105              	.LCFI44:
 2106              		.cfi_def_cfa_offset 0
 2107 0078 7047     		bx	lr
ARM GAS  C:\cygwin64\tmp\cc5fh40e.s 			page 61


 2108              		.cfi_endproc
 2109              	.LFE75:
 2111              		.global	__aeabi_ui2d
 2112              		.global	__aeabi_ddiv
 2113              		.global	__aeabi_dmul
 2114              		.global	__aeabi_dsub
 2115              		.global	__aeabi_dadd
 2116              		.global	__aeabi_d2uiz
 2117              		.section	.text.readCellTemp,"ax",%progbits
 2118              		.align	1
 2119              		.global	readCellTemp
 2120              		.syntax unified
 2121              		.thumb
 2122              		.thumb_func
 2123              		.fpu softvfp
 2125              	readCellTemp:
 2126              	.LVL168:
 2127              	.LFB71:
 237:Src/LTC6811.c **** 	
 2128              		.loc 1 237 94 is_stmt 1 view -0
 2129              		.cfi_startproc
 2130              		@ args = 0, pretend = 0, frame = 16
 2131              		@ frame_needed = 0, uses_anonymous_args = 0
 237:Src/LTC6811.c **** 	
 2132              		.loc 1 237 94 is_stmt 0 view .LVU723
 2133 0000 2DE9F04F 		push	{r4, r5, r6, r7, r8, r9, r10, fp, lr}
 2134              	.LCFI45:
 2135              		.cfi_def_cfa_offset 36
 2136              		.cfi_offset 4, -36
 2137              		.cfi_offset 5, -32
 2138              		.cfi_offset 6, -28
 2139              		.cfi_offset 7, -24
 2140              		.cfi_offset 8, -20
 2141              		.cfi_offset 9, -16
 2142              		.cfi_offset 10, -12
 2143              		.cfi_offset 11, -8
 2144              		.cfi_offset 14, -4
 2145 0004 85B0     		sub	sp, sp, #20
 2146              	.LCFI46:
 2147              		.cfi_def_cfa_offset 56
 2148 0006 0546     		mov	r5, r0
 2149 0008 8B46     		mov	fp, r1
 2150 000a 1646     		mov	r6, r2
 2151 000c 1F46     		mov	r7, r3
 239:Src/LTC6811.c **** 	bool dataValid = true;
 2152              		.loc 1 239 2 is_stmt 1 view .LVU724
 2153              	.LVL169:
 240:Src/LTC6811.c **** 	uint16_t *temp;
 2154              		.loc 1 240 2 view .LVU725
 241:Src/LTC6811.c **** 	double dummy[4];
 2155              		.loc 1 241 2 view .LVU726
 242:Src/LTC6811.c **** 	double conversion[4];
 2156              		.loc 1 242 2 view .LVU727
 243:Src/LTC6811.c **** 	
 2157              		.loc 1 243 2 view .LVU728
 245:Src/LTC6811.c **** 	
 2158              		.loc 1 245 2 view .LVU729
ARM GAS  C:\cygwin64\tmp\cc5fh40e.s 			page 62


 245:Src/LTC6811.c **** 	
 2159              		.loc 1 245 21 is_stmt 0 view .LVU730
 2160 000e 0820     		movs	r0, #8
 2161              	.LVL170:
 245:Src/LTC6811.c **** 	
 2162              		.loc 1 245 21 view .LVU731
 2163 0010 FFF7FEFF 		bl	malloc
 2164              	.LVL171:
 245:Src/LTC6811.c **** 	
 2165              		.loc 1 245 21 view .LVU732
 2166 0014 8246     		mov	r10, r0
 2167              	.LVL172:
 247:Src/LTC6811.c **** 	
 2168              		.loc 1 247 2 is_stmt 1 view .LVU733
 2169 0016 2946     		mov	r1, r5
 2170 0018 4FF48C60 		mov	r0, #1120
 2171              	.LVL173:
 247:Src/LTC6811.c **** 	
 2172              		.loc 1 247 2 is_stmt 0 view .LVU734
 2173 001c FFF7FEFF 		bl	sendAddressCommand
 2174              	.LVL174:
 249:Src/LTC6811.c **** 	
 2175              		.loc 1 249 2 is_stmt 1 view .LVU735
 2176 0020 3220     		movs	r0, #50
 2177 0022 FFF7FEFF 		bl	HAL_Delay
 2178              	.LVL175:
 251:Src/LTC6811.c **** 	dataValid = dataValid & PEC_check;
 2179              		.loc 1 251 2 view .LVU736
 251:Src/LTC6811.c **** 	dataValid = dataValid & PEC_check;
 2180              		.loc 1 251 14 is_stmt 0 view .LVU737
 2181 0026 5246     		mov	r2, r10
 2182 0028 2946     		mov	r1, r5
 2183 002a 0C20     		movs	r0, #12
 2184 002c FFF7FEFF 		bl	readRegister
 2185              	.LVL176:
 2186 0030 0446     		mov	r4, r0
 2187              	.LVL177:
 252:Src/LTC6811.c **** 	PEC_check = readRegister(ReadAuxiliaryGroupB, address, temp);
 2188              		.loc 1 252 2 is_stmt 1 view .LVU738
 253:Src/LTC6811.c **** 	dataValid = dataValid & PEC_check;
 2189              		.loc 1 253 2 view .LVU739
 253:Src/LTC6811.c **** 	dataValid = dataValid & PEC_check;
 2190              		.loc 1 253 14 is_stmt 0 view .LVU740
 2191 0032 5246     		mov	r2, r10
 2192 0034 2946     		mov	r1, r5
 2193 0036 0E20     		movs	r0, #14
 2194 0038 FFF7FEFF 		bl	readRegister
 2195              	.LVL178:
 254:Src/LTC6811.c **** 	PEC_check = readRegister(ReadAuxiliaryGroupA, address, temp);
 2196              		.loc 1 254 2 is_stmt 1 view .LVU741
 2197 003c 0440     		ands	r4, r4, r0
 2198              	.LVL179:
 254:Src/LTC6811.c **** 	PEC_check = readRegister(ReadAuxiliaryGroupA, address, temp);
 2199              		.loc 1 254 2 is_stmt 0 view .LVU742
 2200 003e E4B2     		uxtb	r4, r4
 2201              	.LVL180:
 255:Src/LTC6811.c **** 	dataValid = dataValid & PEC_check;
ARM GAS  C:\cygwin64\tmp\cc5fh40e.s 			page 63


 2202              		.loc 1 255 2 is_stmt 1 view .LVU743
 255:Src/LTC6811.c **** 	dataValid = dataValid & PEC_check;
 2203              		.loc 1 255 14 is_stmt 0 view .LVU744
 2204 0040 5246     		mov	r2, r10
 2205 0042 2946     		mov	r1, r5
 2206 0044 0C20     		movs	r0, #12
 2207              	.LVL181:
 255:Src/LTC6811.c **** 	dataValid = dataValid & PEC_check;
 2208              		.loc 1 255 14 view .LVU745
 2209 0046 FFF7FEFF 		bl	readRegister
 2210              	.LVL182:
 256:Src/LTC6811.c **** 
 2211              		.loc 1 256 2 is_stmt 1 view .LVU746
 2212 004a 04EA0003 		and	r3, r4, r0
 2213 004e 0393     		str	r3, [sp, #12]
 2214              	.LVL183:
 266:Src/LTC6811.c **** 		if ((temp[i] > 24400) || (temp[i] < 13000)) {
 2215              		.loc 1 266 2 view .LVU747
 2216              	.LBB19:
 266:Src/LTC6811.c **** 		if ((temp[i] > 24400) || (temp[i] < 13000)) {
 2217              		.loc 1 266 7 view .LVU748
 266:Src/LTC6811.c **** 		if ((temp[i] > 24400) || (temp[i] < 13000)) {
 2218              		.loc 1 266 15 is_stmt 0 view .LVU749
 2219 0050 0025     		movs	r5, #0
 266:Src/LTC6811.c **** 		if ((temp[i] > 24400) || (temp[i] < 13000)) {
 2220              		.loc 1 266 2 view .LVU750
 2221 0052 10E0     		b	.L90
 2222              	.LVL184:
 2223              	.L91:
 272:Src/LTC6811.c **** 		
 2224              		.loc 1 272 4 is_stmt 1 view .LVU751
 272:Src/LTC6811.c **** 		
 2225              		.loc 1 272 15 is_stmt 0 view .LVU752
 2226 0054 0023     		movs	r3, #0
 2227 0056 7355     		strb	r3, [r6, r5]
 2228 0058 21E0     		b	.L92
 2229              	.L93:
 279:Src/LTC6811.c **** 		
 2230              		.loc 1 279 4 is_stmt 1 view .LVU753
 279:Src/LTC6811.c **** 		
 2231              		.loc 1 279 17 is_stmt 0 view .LVU754
 2232 005a 0023     		movs	r3, #0
 2233 005c BB54     		strb	r3, [r7, r2]
 2234              	.L94:
 281:Src/LTC6811.c **** 			dummy[i] = (double) temp[i] / 10000; // convert from ADC value to voltage
 2235              		.loc 1 281 3 is_stmt 1 view .LVU755
 281:Src/LTC6811.c **** 			dummy[i] = (double) temp[i] / 10000; // convert from ADC value to voltage
 2236              		.loc 1 281 12 is_stmt 0 view .LVU756
 2237 005e 3AF80400 		ldrh	r0, [r10, r4]
 281:Src/LTC6811.c **** 			dummy[i] = (double) temp[i] / 10000; // convert from ADC value to voltage
 2238              		.loc 1 281 26 view .LVU757
 2239 0062 A0F56B53 		sub	r3, r0, #15040
 2240 0066 3C3B     		subs	r3, r3, #60
 2241 0068 9BB2     		uxth	r3, r3
 281:Src/LTC6811.c **** 			dummy[i] = (double) temp[i] / 10000; // convert from ADC value to voltage
 2242              		.loc 1 281 6 view .LVU758
 2243 006a 42F25442 		movw	r2, #9300
ARM GAS  C:\cygwin64\tmp\cc5fh40e.s 			page 64


 2244 006e 9342     		cmp	r3, r2
 2245 0070 26D9     		bls	.L98
 2246              	.L95:
 266:Src/LTC6811.c **** 		if ((temp[i] > 24400) || (temp[i] < 13000)) {
 2247              		.loc 1 266 30 discriminator 2 view .LVU759
 2248 0072 0135     		adds	r5, r5, #1
 2249              	.LVL185:
 266:Src/LTC6811.c **** 		if ((temp[i] > 24400) || (temp[i] < 13000)) {
 2250              		.loc 1 266 30 discriminator 2 view .LVU760
 2251 0074 EDB2     		uxtb	r5, r5
 2252              	.LVL186:
 2253              	.L90:
 266:Src/LTC6811.c **** 		if ((temp[i] > 24400) || (temp[i] < 13000)) {
 2254              		.loc 1 266 2 discriminator 1 view .LVU761
 2255 0076 032D     		cmp	r5, #3
 2256 0078 00F2A480 		bhi	.L99
 267:Src/LTC6811.c **** 			dcFault[i] = true;
 2257              		.loc 1 267 3 is_stmt 1 view .LVU762
 267:Src/LTC6811.c **** 			dcFault[i] = true;
 2258              		.loc 1 267 12 is_stmt 0 view .LVU763
 2259 007c 2A46     		mov	r2, r5
 2260 007e 6C00     		lsls	r4, r5, #1
 2261 0080 3AF81530 		ldrh	r3, [r10, r5, lsl #1]
 267:Src/LTC6811.c **** 			dcFault[i] = true;
 2262              		.loc 1 267 25 view .LVU764
 2263 0084 A3F54B53 		sub	r3, r3, #12992
 2264 0088 083B     		subs	r3, r3, #8
 2265 008a 9BB2     		uxth	r3, r3
 267:Src/LTC6811.c **** 			dcFault[i] = true;
 2266              		.loc 1 267 6 view .LVU765
 2267 008c 42F68841 		movw	r1, #11400
 2268 0090 8B42     		cmp	r3, r1
 2269 0092 DFD9     		bls	.L91
 268:Src/LTC6811.c **** 			cellTemp[i] = 0x0000;
 2270              		.loc 1 268 4 is_stmt 1 view .LVU766
 268:Src/LTC6811.c **** 			cellTemp[i] = 0x0000;
 2271              		.loc 1 268 15 is_stmt 0 view .LVU767
 2272 0094 0123     		movs	r3, #1
 2273 0096 7355     		strb	r3, [r6, r5]
 269:Src/LTC6811.c **** 		}
 2274              		.loc 1 269 4 is_stmt 1 view .LVU768
 269:Src/LTC6811.c **** 		}
 2275              		.loc 1 269 16 is_stmt 0 view .LVU769
 2276 0098 0023     		movs	r3, #0
 2277 009a 2BF81530 		strh	r3, [fp, r5, lsl #1]	@ movhi
 2278              	.L92:
 274:Src/LTC6811.c **** 			tempFault[i] = true;
 2279              		.loc 1 274 3 is_stmt 1 view .LVU770
 274:Src/LTC6811.c **** 			tempFault[i] = true;
 2280              		.loc 1 274 12 is_stmt 0 view .LVU771
 2281 009e 3AF80430 		ldrh	r3, [r10, r4]
 274:Src/LTC6811.c **** 			tempFault[i] = true;
 2282              		.loc 1 274 26 view .LVU772
 2283 00a2 A3F54B53 		sub	r3, r3, #12992
 2284 00a6 083B     		subs	r3, r3, #8
 2285 00a8 9BB2     		uxth	r3, r3
 274:Src/LTC6811.c **** 			tempFault[i] = true;
ARM GAS  C:\cygwin64\tmp\cc5fh40e.s 			page 65


 2286              		.loc 1 274 6 view .LVU773
 2287 00aa 40F63301 		movw	r1, #2099
 2288 00ae 8B42     		cmp	r3, r1
 2289 00b0 D3D8     		bhi	.L93
 275:Src/LTC6811.c **** 			cellTemp[i] = 0xFFFF;
 2290              		.loc 1 275 4 is_stmt 1 view .LVU774
 275:Src/LTC6811.c **** 			cellTemp[i] = 0xFFFF;
 2291              		.loc 1 275 17 is_stmt 0 view .LVU775
 2292 00b2 0123     		movs	r3, #1
 2293 00b4 BB54     		strb	r3, [r7, r2]
 276:Src/LTC6811.c **** 		}
 2294              		.loc 1 276 4 is_stmt 1 view .LVU776
 276:Src/LTC6811.c **** 		}
 2295              		.loc 1 276 16 is_stmt 0 view .LVU777
 2296 00b6 4FF6FF73 		movw	r3, #65535
 2297 00ba 2BF80430 		strh	r3, [fp, r4]	@ movhi
 2298 00be CEE7     		b	.L94
 2299              	.L98:
 282:Src/LTC6811.c **** 			// convert from voltage to temperature
 2300              		.loc 1 282 4 is_stmt 1 view .LVU778
 282:Src/LTC6811.c **** 			// convert from voltage to temperature
 2301              		.loc 1 282 15 is_stmt 0 view .LVU779
 2302 00c0 FFF7FEFF 		bl	__aeabi_ui2d
 2303              	.LVL187:
 282:Src/LTC6811.c **** 			// convert from voltage to temperature
 2304              		.loc 1 282 32 view .LVU780
 2305 00c4 44A3     		adr	r3, .L100
 2306 00c6 D3E90023 		ldrd	r2, [r3]
 2307 00ca FFF7FEFF 		bl	__aeabi_ddiv
 2308              	.LVL188:
 2309 00ce CDE90001 		strd	r0, [sp]
 284:Src/LTC6811.c **** 			conversion[i] = 500 * (conversion[i] + 20); // map value to larger range
 2310              		.loc 1 284 4 is_stmt 1 view .LVU781
 284:Src/LTC6811.c **** 			conversion[i] = 500 * (conversion[i] + 20); // map value to larger range
 2311              		.loc 1 284 35 is_stmt 0 view .LVU782
 2312 00d2 43A3     		adr	r3, .L100+8
 2313 00d4 D3E90023 		ldrd	r2, [r3]
 2314 00d8 FFF7FEFF 		bl	__aeabi_dmul
 2315              	.LVL189:
 284:Src/LTC6811.c **** 			conversion[i] = 500 * (conversion[i] + 20); // map value to larger range
 2316              		.loc 1 284 26 view .LVU783
 2317 00dc 0246     		mov	r2, r0
 2318 00de 0B46     		mov	r3, r1
 2319 00e0 41A1     		adr	r1, .L100+16
 2320 00e2 D1E90001 		ldrd	r0, [r1]
 2321 00e6 FFF7FEFF 		bl	__aeabi_dsub
 2322              	.LVL190:
 2323 00ea 8046     		mov	r8, r0
 2324 00ec 8946     		mov	r9, r1
 284:Src/LTC6811.c **** 			conversion[i] = 500 * (conversion[i] + 20); // map value to larger range
 2325              		.loc 1 284 57 view .LVU784
 2326 00ee 0022     		movs	r2, #0
 2327 00f0 4FF08043 		mov	r3, #1073741824
 2328 00f4 DDE90001 		ldrd	r0, [sp]
 2329 00f8 FFF7FEFF 		bl	pow
 2330              	.LVL191:
 284:Src/LTC6811.c **** 			conversion[i] = 500 * (conversion[i] + 20); // map value to larger range
ARM GAS  C:\cygwin64\tmp\cc5fh40e.s 			page 66


 2331              		.loc 1 284 55 view .LVU785
 2332 00fc 3CA3     		adr	r3, .L100+24
 2333 00fe D3E90023 		ldrd	r2, [r3]
 2334 0102 FFF7FEFF 		bl	__aeabi_dmul
 2335              	.LVL192:
 284:Src/LTC6811.c **** 			conversion[i] = 500 * (conversion[i] + 20); // map value to larger range
 2336              		.loc 1 284 46 view .LVU786
 2337 0106 0246     		mov	r2, r0
 2338 0108 0B46     		mov	r3, r1
 2339 010a 4046     		mov	r0, r8
 2340 010c 4946     		mov	r1, r9
 2341 010e FFF7FEFF 		bl	__aeabi_dadd
 2342              	.LVL193:
 2343 0112 8046     		mov	r8, r0
 2344 0114 8946     		mov	r9, r1
 284:Src/LTC6811.c **** 			conversion[i] = 500 * (conversion[i] + 20); // map value to larger range
 2345              		.loc 1 284 84 view .LVU787
 2346 0116 0022     		movs	r2, #0
 2347 0118 3F4B     		ldr	r3, .L100+64
 2348 011a DDE90001 		ldrd	r0, [sp]
 2349 011e FFF7FEFF 		bl	pow
 2350              	.LVL194:
 284:Src/LTC6811.c **** 			conversion[i] = 500 * (conversion[i] + 20); // map value to larger range
 2351              		.loc 1 284 82 view .LVU788
 2352 0122 35A3     		adr	r3, .L100+32
 2353 0124 D3E90023 		ldrd	r2, [r3]
 2354 0128 FFF7FEFF 		bl	__aeabi_dmul
 2355              	.LVL195:
 284:Src/LTC6811.c **** 			conversion[i] = 500 * (conversion[i] + 20); // map value to larger range
 2356              		.loc 1 284 74 view .LVU789
 2357 012c 0246     		mov	r2, r0
 2358 012e 0B46     		mov	r3, r1
 2359 0130 4046     		mov	r0, r8
 2360 0132 4946     		mov	r1, r9
 2361 0134 FFF7FEFF 		bl	__aeabi_dsub
 2362              	.LVL196:
 2363 0138 8046     		mov	r8, r0
 2364 013a 8946     		mov	r9, r1
 284:Src/LTC6811.c **** 			conversion[i] = 500 * (conversion[i] + 20); // map value to larger range
 2365              		.loc 1 284 111 view .LVU790
 2366 013c 0022     		movs	r2, #0
 2367 013e 374B     		ldr	r3, .L100+68
 2368 0140 DDE90001 		ldrd	r0, [sp]
 2369 0144 FFF7FEFF 		bl	pow
 2370              	.LVL197:
 284:Src/LTC6811.c **** 			conversion[i] = 500 * (conversion[i] + 20); // map value to larger range
 2371              		.loc 1 284 109 view .LVU791
 2372 0148 2DA3     		adr	r3, .L100+40
 2373 014a D3E90023 		ldrd	r2, [r3]
 2374 014e FFF7FEFF 		bl	__aeabi_dmul
 2375              	.LVL198:
 284:Src/LTC6811.c **** 			conversion[i] = 500 * (conversion[i] + 20); // map value to larger range
 2376              		.loc 1 284 101 view .LVU792
 2377 0152 0246     		mov	r2, r0
 2378 0154 0B46     		mov	r3, r1
 2379 0156 4046     		mov	r0, r8
 2380 0158 4946     		mov	r1, r9
ARM GAS  C:\cygwin64\tmp\cc5fh40e.s 			page 67


 2381 015a FFF7FEFF 		bl	__aeabi_dadd
 2382              	.LVL199:
 2383 015e 8046     		mov	r8, r0
 2384 0160 8946     		mov	r9, r1
 284:Src/LTC6811.c **** 			conversion[i] = 500 * (conversion[i] + 20); // map value to larger range
 2385              		.loc 1 284 137 view .LVU793
 2386 0162 0022     		movs	r2, #0
 2387 0164 2E4B     		ldr	r3, .L100+72
 2388 0166 DDE90001 		ldrd	r0, [sp]
 2389 016a FFF7FEFF 		bl	pow
 2390              	.LVL200:
 284:Src/LTC6811.c **** 			conversion[i] = 500 * (conversion[i] + 20); // map value to larger range
 2391              		.loc 1 284 135 view .LVU794
 2392 016e 26A3     		adr	r3, .L100+48
 2393 0170 D3E90023 		ldrd	r2, [r3]
 2394 0174 FFF7FEFF 		bl	__aeabi_dmul
 2395              	.LVL201:
 284:Src/LTC6811.c **** 			conversion[i] = 500 * (conversion[i] + 20); // map value to larger range
 2396              		.loc 1 284 128 view .LVU795
 2397 0178 0246     		mov	r2, r0
 2398 017a 0B46     		mov	r3, r1
 2399 017c 4046     		mov	r0, r8
 2400 017e 4946     		mov	r1, r9
 2401 0180 FFF7FEFF 		bl	__aeabi_dsub
 2402              	.LVL202:
 2403 0184 8046     		mov	r8, r0
 2404 0186 8946     		mov	r9, r1
 284:Src/LTC6811.c **** 			conversion[i] = 500 * (conversion[i] + 20); // map value to larger range
 2405              		.loc 1 284 165 view .LVU796
 2406 0188 0022     		movs	r2, #0
 2407 018a 264B     		ldr	r3, .L100+76
 2408 018c DDE90001 		ldrd	r0, [sp]
 2409 0190 FFF7FEFF 		bl	pow
 2410              	.LVL203:
 284:Src/LTC6811.c **** 			conversion[i] = 500 * (conversion[i] + 20); // map value to larger range
 2411              		.loc 1 284 163 view .LVU797
 2412 0194 1EA3     		adr	r3, .L100+56
 2413 0196 D3E90023 		ldrd	r2, [r3]
 2414 019a FFF7FEFF 		bl	__aeabi_dmul
 2415              	.LVL204:
 284:Src/LTC6811.c **** 			conversion[i] = 500 * (conversion[i] + 20); // map value to larger range
 2416              		.loc 1 284 154 view .LVU798
 2417 019e 0246     		mov	r2, r0
 2418 01a0 0B46     		mov	r3, r1
 2419 01a2 4046     		mov	r0, r8
 2420 01a4 4946     		mov	r1, r9
 2421 01a6 FFF7FEFF 		bl	__aeabi_dadd
 2422              	.LVL205:
 285:Src/LTC6811.c **** 			cellTemp[i] = (uint16_t) conversion[i];
 2423              		.loc 1 285 4 is_stmt 1 view .LVU799
 285:Src/LTC6811.c **** 			cellTemp[i] = (uint16_t) conversion[i];
 2424              		.loc 1 285 41 is_stmt 0 view .LVU800
 2425 01aa 0022     		movs	r2, #0
 2426 01ac 1E4B     		ldr	r3, .L100+80
 2427 01ae FFF7FEFF 		bl	__aeabi_dadd
 2428              	.LVL206:
 285:Src/LTC6811.c **** 			cellTemp[i] = (uint16_t) conversion[i];
ARM GAS  C:\cygwin64\tmp\cc5fh40e.s 			page 68


 2429              		.loc 1 285 24 view .LVU801
 2430 01b2 0022     		movs	r2, #0
 2431 01b4 1D4B     		ldr	r3, .L100+84
 2432 01b6 FFF7FEFF 		bl	__aeabi_dmul
 2433              	.LVL207:
 286:Src/LTC6811.c **** 			//cellTemp[i] = temp[i];
 2434              		.loc 1 286 4 is_stmt 1 view .LVU802
 286:Src/LTC6811.c **** 			//cellTemp[i] = temp[i];
 2435              		.loc 1 286 18 is_stmt 0 view .LVU803
 2436 01ba FFF7FEFF 		bl	__aeabi_d2uiz
 2437              	.LVL208:
 286:Src/LTC6811.c **** 			//cellTemp[i] = temp[i];
 2438              		.loc 1 286 16 view .LVU804
 2439 01be 2BF80400 		strh	r0, [fp, r4]	@ movhi
 2440 01c2 56E7     		b	.L95
 2441              	.L99:
 286:Src/LTC6811.c **** 			//cellTemp[i] = temp[i];
 2442              		.loc 1 286 16 view .LVU805
 2443              	.LBE19:
 291:Src/LTC6811.c **** 	
 2444              		.loc 1 291 2 is_stmt 1 view .LVU806
 2445 01c4 5046     		mov	r0, r10
 2446 01c6 FFF7FEFF 		bl	free
 2447              	.LVL209:
 293:Src/LTC6811.c **** 	
 2448              		.loc 1 293 2 view .LVU807
 295:Src/LTC6811.c **** 
 2449              		.loc 1 295 1 is_stmt 0 view .LVU808
 2450 01ca 0398     		ldr	r0, [sp, #12]
 2451 01cc 05B0     		add	sp, sp, #20
 2452              	.LCFI47:
 2453              		.cfi_def_cfa_offset 36
 2454              		@ sp needed
 2455 01ce BDE8F08F 		pop	{r4, r5, r6, r7, r8, r9, r10, fp, pc}
 2456              	.LVL210:
 2457              	.L101:
 295:Src/LTC6811.c **** 
 2458              		.loc 1 295 1 view .LVU809
 2459 01d2 00BFAFF3 		.align	3
 2459      0080
 2460              	.L100:
 2461 01d8 00000000 		.word	0
 2462 01dc 0088C340 		.word	1086556160
 2463 01e0 00000000 		.word	0
 2464 01e4 30D0FB40 		.word	1090244656
 2465 01e8 00000000 		.word	0
 2466 01ec E06CE240 		.word	1088580832
 2467 01f0 00000000 		.word	0
 2468 01f4 386A0141 		.word	1090611768
 2469 01f8 00000000 		.word	0
 2470 01fc 1010F740 		.word	1089933328
 2471 0200 00000000 		.word	0
 2472 0204 E0FDE040 		.word	1088486880
 2473 0208 00000000 		.word	0
 2474 020c 005DBA40 		.word	1085955328
 2475 0210 7B14AE47 		.word	1202590843
 2476 0214 E1C88040 		.word	1082181857
ARM GAS  C:\cygwin64\tmp\cc5fh40e.s 			page 69


 2477 0218 00000840 		.word	1074266112
 2478 021c 00001040 		.word	1074790400
 2479 0220 00001440 		.word	1075052544
 2480 0224 00001840 		.word	1075314688
 2481 0228 00003440 		.word	1077149696
 2482 022c 00407F40 		.word	1082081280
 2483              		.cfi_endproc
 2484              	.LFE71:
 2486              		.section	.text.readAllCellTemps,"ax",%progbits
 2487              		.align	1
 2488              		.global	readAllCellTemps
 2489              		.syntax unified
 2490              		.thumb
 2491              		.thumb_func
 2492              		.fpu softvfp
 2494              	readAllCellTemps:
 2495              	.LVL211:
 2496              	.LFB72:
 297:Src/LTC6811.c **** 	
 2497              		.loc 1 297 121 is_stmt 1 view -0
 2498              		.cfi_startproc
 2499              		@ args = 88, pretend = 16, frame = 16
 2500              		@ frame_needed = 0, uses_anonymous_args = 0
 297:Src/LTC6811.c **** 	
 2501              		.loc 1 297 121 is_stmt 0 view .LVU811
 2502 0000 84B0     		sub	sp, sp, #16
 2503              	.LCFI48:
 2504              		.cfi_def_cfa_offset 16
 2505 0002 F0B5     		push	{r4, r5, r6, r7, lr}
 2506              	.LCFI49:
 2507              		.cfi_def_cfa_offset 36
 2508              		.cfi_offset 4, -36
 2509              		.cfi_offset 5, -32
 2510              		.cfi_offset 6, -28
 2511              		.cfi_offset 7, -24
 2512              		.cfi_offset 14, -20
 2513 0004 85B0     		sub	sp, sp, #20
 2514              	.LCFI50:
 2515              		.cfi_def_cfa_offset 56
 2516 0006 0AAC     		add	r4, sp, #40
 2517 0008 84E80F00 		stm	r4, {r0, r1, r2, r3}
 2518 000c 1D9F     		ldr	r7, [sp, #116]
 2519 000e 1E9E     		ldr	r6, [sp, #120]
 2520 0010 1F9D     		ldr	r5, [sp, #124]
 320:Src/LTC6811.c **** 	bool boardDCFault[4];
 2521              		.loc 1 320 2 is_stmt 1 view .LVU812
 321:Src/LTC6811.c **** 	bool boardTempFault[4];
 2522              		.loc 1 321 2 view .LVU813
 322:Src/LTC6811.c **** 	bool dataValid = true;
 2523              		.loc 1 322 2 view .LVU814
 323:Src/LTC6811.c **** 
 2524              		.loc 1 323 2 view .LVU815
 2525              	.LVL212:
 325:Src/LTC6811.c **** 		
 2526              		.loc 1 325 2 view .LVU816
 2527              	.LBB20:
 325:Src/LTC6811.c **** 		
ARM GAS  C:\cygwin64\tmp\cc5fh40e.s 			page 70


 2528              		.loc 1 325 7 view .LVU817
 325:Src/LTC6811.c **** 		
 2529              		.loc 1 325 15 is_stmt 0 view .LVU818
 2530 0012 0024     		movs	r4, #0
 2531              	.LBE20:
 323:Src/LTC6811.c **** 
 2532              		.loc 1 323 7 view .LVU819
 2533 0014 0120     		movs	r0, #1
 2534              	.LBB23:
 325:Src/LTC6811.c **** 		
 2535              		.loc 1 325 2 view .LVU820
 2536 0016 1BE0     		b	.L103
 2537              	.LVL213:
 2538              	.L105:
 2539              	.LBB21:
 330:Src/LTC6811.c **** 			dcFault[i][j] = boardDCFault[j];
 2540              		.loc 1 330 4 is_stmt 1 discriminator 3 view .LVU821
 330:Src/LTC6811.c **** 			dcFault[i][j] = boardDCFault[j];
 2541              		.loc 1 330 12 is_stmt 0 discriminator 3 view .LVU822
 2542 0018 07EBC402 		add	r2, r7, r4, lsl #3
 330:Src/LTC6811.c **** 			dcFault[i][j] = boardDCFault[j];
 2543              		.loc 1 330 30 discriminator 3 view .LVU823
 2544 001c 04A9     		add	r1, sp, #16
 2545 001e 01EB4301 		add	r1, r1, r3, lsl #1
 2546 0022 31F8081C 		ldrh	r1, [r1, #-8]
 330:Src/LTC6811.c **** 			dcFault[i][j] = boardDCFault[j];
 2547              		.loc 1 330 19 discriminator 3 view .LVU824
 2548 0026 22F81310 		strh	r1, [r2, r3, lsl #1]	@ movhi
 331:Src/LTC6811.c **** 			tempFault[i][j] = boardTempFault[j];
 2549              		.loc 1 331 4 is_stmt 1 discriminator 3 view .LVU825
 331:Src/LTC6811.c **** 			tempFault[i][j] = boardTempFault[j];
 2550              		.loc 1 331 11 is_stmt 0 discriminator 3 view .LVU826
 2551 002a A200     		lsls	r2, r4, #2
 2552 002c 06EB020C 		add	ip, r6, r2
 331:Src/LTC6811.c **** 			tempFault[i][j] = boardTempFault[j];
 2553              		.loc 1 331 32 discriminator 3 view .LVU827
 2554 0030 04A9     		add	r1, sp, #16
 2555 0032 1944     		add	r1, r1, r3
 2556 0034 11F80CEC 		ldrb	lr, [r1, #-12]	@ zero_extendqisi2
 331:Src/LTC6811.c **** 			tempFault[i][j] = boardTempFault[j];
 2557              		.loc 1 331 18 discriminator 3 view .LVU828
 2558 0038 0CF803E0 		strb	lr, [ip, r3]
 332:Src/LTC6811.c **** 		}
 2559              		.loc 1 332 4 is_stmt 1 discriminator 3 view .LVU829
 332:Src/LTC6811.c **** 		}
 2560              		.loc 1 332 13 is_stmt 0 discriminator 3 view .LVU830
 2561 003c 2A44     		add	r2, r2, r5
 332:Src/LTC6811.c **** 		}
 2562              		.loc 1 332 36 discriminator 3 view .LVU831
 2563 003e 11F8101C 		ldrb	r1, [r1, #-16]	@ zero_extendqisi2
 332:Src/LTC6811.c **** 		}
 2564              		.loc 1 332 20 discriminator 3 view .LVU832
 2565 0042 D154     		strb	r1, [r2, r3]
 329:Src/LTC6811.c **** 			cellTemp[i][j] = boardTemp[j];
 2566              		.loc 1 329 31 discriminator 3 view .LVU833
 2567 0044 0133     		adds	r3, r3, #1
 2568              	.LVL214:
ARM GAS  C:\cygwin64\tmp\cc5fh40e.s 			page 71


 329:Src/LTC6811.c **** 			cellTemp[i][j] = boardTemp[j];
 2569              		.loc 1 329 31 discriminator 3 view .LVU834
 2570 0046 DBB2     		uxtb	r3, r3
 2571              	.LVL215:
 2572              	.L104:
 329:Src/LTC6811.c **** 			cellTemp[i][j] = boardTemp[j];
 2573              		.loc 1 329 3 discriminator 1 view .LVU835
 2574 0048 032B     		cmp	r3, #3
 2575 004a E5D9     		bls	.L105
 2576              	.LBE21:
 325:Src/LTC6811.c **** 		
 2577              		.loc 1 325 41 discriminator 2 view .LVU836
 2578 004c 0134     		adds	r4, r4, #1
 2579              	.LVL216:
 325:Src/LTC6811.c **** 		
 2580              		.loc 1 325 41 discriminator 2 view .LVU837
 2581 004e E4B2     		uxtb	r4, r4
 2582              	.LVL217:
 2583              	.L103:
 325:Src/LTC6811.c **** 		
 2584              		.loc 1 325 29 discriminator 1 view .LVU838
 2585 0050 9DF82830 		ldrb	r3, [sp, #40]	@ zero_extendqisi2
 325:Src/LTC6811.c **** 		
 2586              		.loc 1 325 2 discriminator 1 view .LVU839
 2587 0054 A342     		cmp	r3, r4
 2588 0056 09D9     		bls	.L108
 327:Src/LTC6811.c **** 
 2589              		.loc 1 327 3 is_stmt 1 view .LVU840
 327:Src/LTC6811.c **** 
 2590              		.loc 1 327 15 is_stmt 0 view .LVU841
 2591 0058 0AAB     		add	r3, sp, #40
 2592 005a 1819     		adds	r0, r3, r4
 2593              	.LVL218:
 327:Src/LTC6811.c **** 
 2594              		.loc 1 327 15 view .LVU842
 2595 005c 6B46     		mov	r3, sp
 2596 005e 01AA     		add	r2, sp, #4
 2597 0060 02A9     		add	r1, sp, #8
 2598 0062 4078     		ldrb	r0, [r0, #1]	@ zero_extendqisi2
 2599 0064 FFF7FEFF 		bl	readCellTemp
 2600              	.LVL219:
 329:Src/LTC6811.c **** 			cellTemp[i][j] = boardTemp[j];
 2601              		.loc 1 329 3 is_stmt 1 view .LVU843
 2602              	.LBB22:
 329:Src/LTC6811.c **** 			cellTemp[i][j] = boardTemp[j];
 2603              		.loc 1 329 8 view .LVU844
 329:Src/LTC6811.c **** 			cellTemp[i][j] = boardTemp[j];
 2604              		.loc 1 329 16 is_stmt 0 view .LVU845
 2605 0068 0023     		movs	r3, #0
 329:Src/LTC6811.c **** 			cellTemp[i][j] = boardTemp[j];
 2606              		.loc 1 329 3 view .LVU846
 2607 006a EDE7     		b	.L104
 2608              	.LVL220:
 2609              	.L108:
 329:Src/LTC6811.c **** 			cellTemp[i][j] = boardTemp[j];
 2610              		.loc 1 329 3 view .LVU847
 2611              	.LBE22:
ARM GAS  C:\cygwin64\tmp\cc5fh40e.s 			page 72


 2612              	.LBE23:
 337:Src/LTC6811.c **** 
 2613              		.loc 1 337 1 view .LVU848
 2614 006c 05B0     		add	sp, sp, #20
 2615              	.LCFI51:
 2616              		.cfi_def_cfa_offset 36
 2617              		@ sp needed
 2618 006e BDE8F040 		pop	{r4, r5, r6, r7, lr}
 2619              	.LCFI52:
 2620              		.cfi_restore 14
 2621              		.cfi_restore 7
 2622              		.cfi_restore 6
 2623              		.cfi_restore 5
 2624              		.cfi_restore 4
 2625              		.cfi_def_cfa_offset 16
 2626              	.LVL221:
 337:Src/LTC6811.c **** 
 2627              		.loc 1 337 1 view .LVU849
 2628 0072 04B0     		add	sp, sp, #16
 2629              	.LCFI53:
 2630              		.cfi_def_cfa_offset 0
 2631 0074 7047     		bx	lr
 2632              		.cfi_endproc
 2633              	.LFE72:
 2635              		.global	CRC15_POLY
 2636              		.comm	pec15Table,512,4
 2637              		.section	.data.CRC15_POLY,"aw"
 2638              		.align	1
 2639              		.set	.LANCHOR0,. + 0
 2642              	CRC15_POLY:
 2643 0000 9945     		.short	17817
 2644              		.text
 2645              	.Letext0:
 2646              		.file 2 "c:\\arm-gcc\\8-2018-q4-major\\arm-none-eabi\\include\\machine\\_default_types.h"
 2647              		.file 3 "c:\\arm-gcc\\8-2018-q4-major\\arm-none-eabi\\include\\sys\\_stdint.h"
 2648              		.file 4 "Drivers/CMSIS/Include/core_cm3.h"
 2649              		.file 5 "Drivers/CMSIS/Device/ST/STM32F1xx/Include/system_stm32f1xx.h"
 2650              		.file 6 "c:\\arm-gcc\\8-2018-q4-major\\arm-none-eabi\\include\\sys\\lock.h"
 2651              		.file 7 "c:\\arm-gcc\\8-2018-q4-major\\arm-none-eabi\\include\\sys\\_types.h"
 2652              		.file 8 "c:\\arm-gcc\\8-2018-q4-major\\lib\\gcc\\arm-none-eabi\\8.2.1\\include\\stddef.h"
 2653              		.file 9 "c:\\arm-gcc\\8-2018-q4-major\\arm-none-eabi\\include\\sys\\reent.h"
 2654              		.file 10 "Drivers/STM32F1xx_HAL_Driver/Inc/stm32f1xx_hal.h"
 2655              		.file 11 "c:\\arm-gcc\\8-2018-q4-major\\arm-none-eabi\\include\\stdlib.h"
 2656              		.file 12 "Inc/BMSconfig.h"
 2657              		.file 13 "c:\\arm-gcc\\8-2018-q4-major\\arm-none-eabi\\include\\math.h"
 2658              		.file 14 "Inc/LTC6811.h"
 2659              		.file 15 "Inc/SPI.h"
ARM GAS  C:\cygwin64\tmp\cc5fh40e.s 			page 73

