ARM GAS  /tmp/cc8ca0WU.s 			page 1


   1              		.cpu cortex-m3
   2              		.eabi_attribute 20, 1
   3              		.eabi_attribute 21, 1
   4              		.eabi_attribute 23, 3
   5              		.eabi_attribute 24, 1
   6              		.eabi_attribute 25, 1
   7              		.eabi_attribute 26, 1
   8              		.eabi_attribute 30, 1
   9              		.eabi_attribute 34, 1
  10              		.eabi_attribute 18, 4
  11              		.file	"SPI.c"
  12              		.text
  13              	.Ltext0:
  14              		.cfi_sections	.debug_frame
  15              		.section	.text.SPI_Init,"ax",%progbits
  16              		.align	1
  17              		.global	SPI_Init
  18              		.syntax unified
  19              		.thumb
  20              		.thumb_func
  21              		.fpu softvfp
  23              	SPI_Init:
  24              	.LFB66:
  25              		.file 1 "Src/SPI.c"
   1:Src/SPI.c     **** //uint8_t SPIWrite();
   2:Src/SPI.c     **** 
   3:Src/SPI.c     **** #include "SPI.h"
   4:Src/SPI.c     **** 
   5:Src/SPI.c     **** SPI_HandleTypeDef SPIHandle;
   6:Src/SPI.c     **** 
   7:Src/SPI.c     **** void SPI_Init(void)
   8:Src/SPI.c     **** {
  26              		.loc 1 8 0
  27              		.cfi_startproc
  28              		@ args = 0, pretend = 0, frame = 0
  29              		@ frame_needed = 0, uses_anonymous_args = 0
  30 0000 08B5     		push	{r3, lr}
  31              	.LCFI0:
  32              		.cfi_def_cfa_offset 8
  33              		.cfi_offset 3, -8
  34              		.cfi_offset 14, -4
   9:Src/SPI.c     **** 
  10:Src/SPI.c     ****   SPIHandle.Instance = SPI1;
  35              		.loc 1 10 0
  36 0002 0D48     		ldr	r0, .L3
  37 0004 0D4B     		ldr	r3, .L3+4
  38 0006 0360     		str	r3, [r0]
  11:Src/SPI.c     ****   SPIHandle.Init.Mode = SPI_MODE_MASTER;
  39              		.loc 1 11 0
  40 0008 4FF48273 		mov	r3, #260
  41 000c 4360     		str	r3, [r0, #4]
  12:Src/SPI.c     ****   SPIHandle.Init.Direction = SPI_DIRECTION_2LINES;
  42              		.loc 1 12 0
  43 000e 0023     		movs	r3, #0
  44 0010 8360     		str	r3, [r0, #8]
  13:Src/SPI.c     ****   SPIHandle.Init.DataSize = SPI_DATASIZE_8BIT;
  45              		.loc 1 13 0
ARM GAS  /tmp/cc8ca0WU.s 			page 2


  46 0012 C360     		str	r3, [r0, #12]
  14:Src/SPI.c     ****   SPIHandle.Init.CLKPolarity = SPI_POLARITY_HIGH;
  47              		.loc 1 14 0
  48 0014 0222     		movs	r2, #2
  49 0016 0261     		str	r2, [r0, #16]
  15:Src/SPI.c     ****   SPIHandle.Init.CLKPhase = SPI_PHASE_2EDGE;
  50              		.loc 1 15 0
  51 0018 0122     		movs	r2, #1
  52 001a 4261     		str	r2, [r0, #20]
  16:Src/SPI.c     ****   SPIHandle.Init.NSS = SPI_NSS_HARD_OUTPUT;
  53              		.loc 1 16 0
  54 001c 4FF48022 		mov	r2, #262144
  55 0020 8261     		str	r2, [r0, #24]
  17:Src/SPI.c     ****   SPIHandle.Init.BaudRatePrescaler = SPI_BAUDRATEPRESCALER_16; // minimum SPI period is 1us, so min
  56              		.loc 1 17 0
  57 0022 1822     		movs	r2, #24
  58 0024 C261     		str	r2, [r0, #28]
  18:Src/SPI.c     ****   SPIHandle.Init.FirstBit = SPI_FIRSTBIT_MSB;
  59              		.loc 1 18 0
  60 0026 0362     		str	r3, [r0, #32]
  19:Src/SPI.c     ****   SPIHandle.Init.TIMode = SPI_TIMODE_DISABLE;
  61              		.loc 1 19 0
  62 0028 4362     		str	r3, [r0, #36]
  20:Src/SPI.c     ****   SPIHandle.Init.CRCCalculation = SPI_CRCCALCULATION_DISABLE;
  63              		.loc 1 20 0
  64 002a 8362     		str	r3, [r0, #40]
  21:Src/SPI.c     ****   SPIHandle.Init.CRCPolynomial = 10;
  65              		.loc 1 21 0
  66 002c 0A23     		movs	r3, #10
  67 002e C362     		str	r3, [r0, #44]
  22:Src/SPI.c     **** 
  23:Src/SPI.c     ****   HAL_SPI_Init(&SPIHandle);
  68              		.loc 1 23 0
  69 0030 FFF7FEFF 		bl	HAL_SPI_Init
  70              	.LVL0:
  24:Src/SPI.c     **** 
  25:Src/SPI.c     **** }
  71              		.loc 1 25 0
  72 0034 08BD     		pop	{r3, pc}
  73              	.L4:
  74 0036 00BF     		.align	2
  75              	.L3:
  76 0038 00000000 		.word	SPIHandle
  77 003c 00300140 		.word	1073819648
  78              		.cfi_endproc
  79              	.LFE66:
  81              		.section	.text.SPIWrite,"ax",%progbits
  82              		.align	1
  83              		.global	SPIWrite
  84              		.syntax unified
  85              		.thumb
  86              		.thumb_func
  87              		.fpu softvfp
  89              	SPIWrite:
  90              	.LFB67:
  26:Src/SPI.c     **** 
  27:Src/SPI.c     **** bool SPIWrite(uint8_t *writeBuffer, uint8_t totalBytes) {
ARM GAS  /tmp/cc8ca0WU.s 			page 3


  91              		.loc 1 27 0
  92              		.cfi_startproc
  93              		@ args = 0, pretend = 0, frame = 0
  94              		@ frame_needed = 1, uses_anonymous_args = 0
  95              	.LVL1:
  96 0000 F0B5     		push	{r4, r5, r6, r7, lr}
  97              	.LCFI1:
  98              		.cfi_def_cfa_offset 20
  99              		.cfi_offset 4, -20
 100              		.cfi_offset 5, -16
 101              		.cfi_offset 6, -12
 102              		.cfi_offset 7, -8
 103              		.cfi_offset 14, -4
 104 0002 83B0     		sub	sp, sp, #12
 105              	.LCFI2:
 106              		.cfi_def_cfa_offset 32
 107 0004 02AF     		add	r7, sp, #8
 108              	.LCFI3:
 109              		.cfi_def_cfa 7, 24
 110 0006 0546     		mov	r5, r0
 111 0008 0C46     		mov	r4, r1
 112              	.LVL2:
  28:Src/SPI.c     **** 	
  29:Src/SPI.c     **** 	HAL_StatusTypeDef halReturnStatus;
  30:Src/SPI.c     **** 	uint8_t readBuffer[totalBytes];
 113              		.loc 1 30 0
 114 000a CB1D     		adds	r3, r1, #7
 115 000c 03F4FC73 		and	r3, r3, #504
 116 0010 ADEB030D 		sub	sp, sp, r3
 117 0014 02AE     		add	r6, sp, #8
 118              	.LVL3:
  31:Src/SPI.c     **** 	
  32:Src/SPI.c     **** 	HAL_GPIO_WritePin(GPIOA, GPIO_PIN_4, GPIO_PIN_RESET);
 119              		.loc 1 32 0
 120 0016 0022     		movs	r2, #0
 121 0018 1021     		movs	r1, #16
 122              	.LVL4:
 123 001a 0F48     		ldr	r0, .L8
 124              	.LVL5:
 125 001c FFF7FEFF 		bl	HAL_GPIO_WritePin
 126              	.LVL6:
  33:Src/SPI.c     **** 	//HAL_Delay(10);
  34:Src/SPI.c     **** 	halReturnStatus = HAL_SPI_TransmitReceive(&SPIHandle, writeBuffer, readBuffer, totalBytes, 1000);
 127              		.loc 1 34 0
 128 0020 4FF47A73 		mov	r3, #1000
 129 0024 0093     		str	r3, [sp]
 130 0026 2346     		mov	r3, r4
 131 0028 3246     		mov	r2, r6
 132 002a 2946     		mov	r1, r5
 133 002c 0B48     		ldr	r0, .L8+4
 134 002e FFF7FEFF 		bl	HAL_SPI_TransmitReceive
 135              	.LVL7:
 136 0032 0446     		mov	r4, r0
 137              	.LVL8:
 138              	.L6:
  35:Src/SPI.c     **** 	while( SPIHandle.State == HAL_SPI_STATE_BUSY );  // wait xmission complete
 139              		.loc 1 35 0 discriminator 1
ARM GAS  /tmp/cc8ca0WU.s 			page 4


 140 0034 094B     		ldr	r3, .L8+4
 141 0036 93F85130 		ldrb	r3, [r3, #81]	@ zero_extendqisi2
 142 003a DBB2     		uxtb	r3, r3
 143 003c 022B     		cmp	r3, #2
 144 003e F9D0     		beq	.L6
  36:Src/SPI.c     **** 	//HAL_Delay(10);
  37:Src/SPI.c     **** 	HAL_GPIO_WritePin(GPIOA, GPIO_PIN_4, GPIO_PIN_SET);
 145              		.loc 1 37 0
 146 0040 0122     		movs	r2, #1
 147 0042 1021     		movs	r1, #16
 148 0044 0448     		ldr	r0, .L8
 149 0046 FFF7FEFF 		bl	HAL_GPIO_WritePin
 150              	.LVL9:
  38:Src/SPI.c     **** 	
  39:Src/SPI.c     **** 	return(halReturnStatus == HAL_OK);
  40:Src/SPI.c     **** };
 151              		.loc 1 40 0
 152 004a B4FA84F0 		clz	r0, r4
 153 004e 4009     		lsrs	r0, r0, #5
 154 0050 0437     		adds	r7, r7, #4
 155              	.LCFI4:
 156              		.cfi_def_cfa_offset 20
 157 0052 BD46     		mov	sp, r7
 158              	.LCFI5:
 159              		.cfi_def_cfa_register 13
 160              		@ sp needed
 161 0054 F0BD     		pop	{r4, r5, r6, r7, pc}
 162              	.LVL10:
 163              	.L9:
 164 0056 00BF     		.align	2
 165              	.L8:
 166 0058 00080140 		.word	1073809408
 167 005c 00000000 		.word	SPIHandle
 168              		.cfi_endproc
 169              	.LFE67:
 171              		.section	.text.SPIWriteRead,"ax",%progbits
 172              		.align	1
 173              		.global	SPIWriteRead
 174              		.syntax unified
 175              		.thumb
 176              		.thumb_func
 177              		.fpu softvfp
 179              	SPIWriteRead:
 180              	.LFB68:
  41:Src/SPI.c     **** 
  42:Src/SPI.c     **** bool SPIWriteRead(uint8_t *writeBuffer, uint8_t *readBuffer, uint8_t totalBytes) {
 181              		.loc 1 42 0
 182              		.cfi_startproc
 183              		@ args = 0, pretend = 0, frame = 0
 184              		@ frame_needed = 0, uses_anonymous_args = 0
 185              	.LVL11:
 186 0000 70B5     		push	{r4, r5, r6, lr}
 187              	.LCFI6:
 188              		.cfi_def_cfa_offset 16
 189              		.cfi_offset 4, -16
 190              		.cfi_offset 5, -12
 191              		.cfi_offset 6, -8
ARM GAS  /tmp/cc8ca0WU.s 			page 5


 192              		.cfi_offset 14, -4
 193 0002 82B0     		sub	sp, sp, #8
 194              	.LCFI7:
 195              		.cfi_def_cfa_offset 24
 196 0004 0446     		mov	r4, r0
 197 0006 0D46     		mov	r5, r1
 198 0008 1646     		mov	r6, r2
  43:Src/SPI.c     **** 	
  44:Src/SPI.c     **** 	HAL_StatusTypeDef halReturnStatus;
  45:Src/SPI.c     **** 	
  46:Src/SPI.c     **** 	HAL_GPIO_WritePin(GPIOA, GPIO_PIN_4, GPIO_PIN_RESET);
 199              		.loc 1 46 0
 200 000a 0022     		movs	r2, #0
 201              	.LVL12:
 202 000c 1021     		movs	r1, #16
 203              	.LVL13:
 204 000e 1148     		ldr	r0, .L13
 205              	.LVL14:
 206 0010 FFF7FEFF 		bl	HAL_GPIO_WritePin
 207              	.LVL15:
  47:Src/SPI.c     **** 	HAL_Delay(1);
 208              		.loc 1 47 0
 209 0014 0120     		movs	r0, #1
 210 0016 FFF7FEFF 		bl	HAL_Delay
 211              	.LVL16:
  48:Src/SPI.c     **** 	halReturnStatus = HAL_SPI_TransmitReceive(&SPIHandle, writeBuffer, readBuffer, totalBytes, 1000);
 212              		.loc 1 48 0
 213 001a 4FF47A73 		mov	r3, #1000
 214 001e 0093     		str	r3, [sp]
 215 0020 3346     		mov	r3, r6
 216 0022 2A46     		mov	r2, r5
 217 0024 2146     		mov	r1, r4
 218 0026 0C48     		ldr	r0, .L13+4
 219 0028 FFF7FEFF 		bl	HAL_SPI_TransmitReceive
 220              	.LVL17:
 221 002c 0446     		mov	r4, r0
 222              	.LVL18:
 223              	.L11:
  49:Src/SPI.c     **** 	while( SPIHandle.State == HAL_SPI_STATE_BUSY );  // wait xmission complete
 224              		.loc 1 49 0 discriminator 1
 225 002e 0A4B     		ldr	r3, .L13+4
 226 0030 93F85130 		ldrb	r3, [r3, #81]	@ zero_extendqisi2
 227 0034 DBB2     		uxtb	r3, r3
 228 0036 022B     		cmp	r3, #2
 229 0038 F9D0     		beq	.L11
  50:Src/SPI.c     **** 	HAL_Delay(1);
 230              		.loc 1 50 0
 231 003a 0120     		movs	r0, #1
 232 003c FFF7FEFF 		bl	HAL_Delay
 233              	.LVL19:
  51:Src/SPI.c     **** 	HAL_GPIO_WritePin(GPIOA, GPIO_PIN_4, GPIO_PIN_SET);
 234              		.loc 1 51 0
 235 0040 0122     		movs	r2, #1
 236 0042 1021     		movs	r1, #16
 237 0044 0348     		ldr	r0, .L13
 238 0046 FFF7FEFF 		bl	HAL_GPIO_WritePin
 239              	.LVL20:
ARM GAS  /tmp/cc8ca0WU.s 			page 6


  52:Src/SPI.c     **** 	
  53:Src/SPI.c     **** 	return(halReturnStatus == HAL_OK);
  54:Src/SPI.c     **** };...
 240              		.loc 1 54 0
 241 004a B4FA84F0 		clz	r0, r4
 242 004e 4009     		lsrs	r0, r0, #5
 243 0050 02B0     		add	sp, sp, #8
 244              	.LCFI8:
 245              		.cfi_def_cfa_offset 16
 246              		@ sp needed
 247 0052 70BD     		pop	{r4, r5, r6, pc}
 248              	.LVL21:
 249              	.L14:
 250              		.align	2
 251              	.L13:
 252 0054 00080140 		.word	1073809408
 253 0058 00000000 		.word	SPIHandle
 254              		.cfi_endproc
 255              	.LFE68:
 257              		.comm	SPIHandle,88,4
 258              		.text
 259              	.Letext0:
 260              		.file 2 "/usr/include/newlib/machine/_default_types.h"
 261              		.file 3 "/usr/include/newlib/sys/_stdint.h"
 262              		.file 4 "Drivers/CMSIS/Include/core_cm3.h"
 263              		.file 5 "Drivers/CMSIS/Device/ST/STM32F1xx/Include/system_stm32f1xx.h"
 264              		.file 6 "Drivers/CMSIS/Device/ST/STM32F1xx/Include/stm32f103xb.h"
 265              		.file 7 "/usr/include/newlib/sys/lock.h"
 266              		.file 8 "/usr/include/newlib/sys/_types.h"
 267              		.file 9 "/usr/lib/gcc/arm-none-eabi/7.3.1/include/stddef.h"
 268              		.file 10 "/usr/include/newlib/sys/reent.h"
 269              		.file 11 "Drivers/STM32F1xx_HAL_Driver/Inc/stm32f1xx_hal_def.h"
 270              		.file 12 "Drivers/STM32F1xx_HAL_Driver/Inc/stm32f1xx_hal_gpio.h"
 271              		.file 13 "Drivers/STM32F1xx_HAL_Driver/Inc/stm32f1xx_hal_dma.h"
 272              		.file 14 "Drivers/STM32F1xx_HAL_Driver/Inc/stm32f1xx_hal_spi.h"
 273              		.file 15 "Drivers/STM32F1xx_HAL_Driver/Inc/stm32f1xx_hal.h"
 274              		.file 16 "/usr/include/newlib/stdlib.h"
ARM GAS  /tmp/cc8ca0WU.s 			page 7

