ARM GAS  /tmp/ccx2Tc4g.s 			page 1


   1              		.cpu cortex-m3
   2              		.eabi_attribute 20, 1
   3              		.eabi_attribute 21, 1
   4              		.eabi_attribute 23, 3
   5              		.eabi_attribute 24, 1
   6              		.eabi_attribute 25, 1
   7              		.eabi_attribute 26, 1
   8              		.eabi_attribute 30, 1
   9              		.eabi_attribute 34, 1
  10              		.eabi_attribute 18, 4
  11              		.file	"SPI.c"
  12              		.text
  13              	.Ltext0:
  14              		.cfi_sections	.debug_frame
  15              		.section	.text.SPI_Init,"ax",%progbits
  16              		.align	1
  17              		.global	SPI_Init
  18              		.syntax unified
  19              		.thumb
  20              		.thumb_func
  21              		.fpu softvfp
  23              	SPI_Init:
  24              	.LFB66:
  25              		.file 1 "Src/SPI.c"
   1:Src/SPI.c     **** //uint8_t SPIWrite();
   2:Src/SPI.c     **** 
   3:Src/SPI.c     **** #include "SPI.h"
   4:Src/SPI.c     **** 
   5:Src/SPI.c     **** SPI_HandleTypeDef SPIHandle;
   6:Src/SPI.c     **** 
   7:Src/SPI.c     **** void SPI_Init(void)
   8:Src/SPI.c     **** {
  26              		.loc 1 8 0
  27              		.cfi_startproc
  28              		@ args = 0, pretend = 0, frame = 0
  29              		@ frame_needed = 0, uses_anonymous_args = 0
  30 0000 08B5     		push	{r3, lr}
  31              	.LCFI0:
  32              		.cfi_def_cfa_offset 8
  33              		.cfi_offset 3, -8
  34              		.cfi_offset 14, -4
   9:Src/SPI.c     **** 
  10:Src/SPI.c     ****   SPIHandle.Instance = SPI1;
  35              		.loc 1 10 0
  36 0002 0D48     		ldr	r0, .L3
  37 0004 0D4B     		ldr	r3, .L3+4
  38 0006 0360     		str	r3, [r0]
  11:Src/SPI.c     ****   SPIHandle.Init.Mode = SPI_MODE_MASTER;
  39              		.loc 1 11 0
  40 0008 4FF48273 		mov	r3, #260
  41 000c 4360     		str	r3, [r0, #4]
  12:Src/SPI.c     ****   SPIHandle.Init.Direction = SPI_DIRECTION_2LINES;
  42              		.loc 1 12 0
  43 000e 0023     		movs	r3, #0
  44 0010 8360     		str	r3, [r0, #8]
  13:Src/SPI.c     ****   SPIHandle.Init.DataSize = SPI_DATASIZE_8BIT;
  45              		.loc 1 13 0
ARM GAS  /tmp/ccx2Tc4g.s 			page 2


  46 0012 C360     		str	r3, [r0, #12]
  14:Src/SPI.c     ****   SPIHandle.Init.CLKPolarity = SPI_POLARITY_HIGH;
  47              		.loc 1 14 0
  48 0014 0222     		movs	r2, #2
  49 0016 0261     		str	r2, [r0, #16]
  15:Src/SPI.c     ****   SPIHandle.Init.CLKPhase = SPI_PHASE_2EDGE;
  50              		.loc 1 15 0
  51 0018 0122     		movs	r2, #1
  52 001a 4261     		str	r2, [r0, #20]
  16:Src/SPI.c     ****   SPIHandle.Init.NSS = SPI_NSS_HARD_OUTPUT;
  53              		.loc 1 16 0
  54 001c 4FF48022 		mov	r2, #262144
  55 0020 8261     		str	r2, [r0, #24]
  17:Src/SPI.c     ****   SPIHandle.Init.BaudRatePrescaler = SPI_BAUDRATEPRESCALER_16; // minimum SPI period is 1us, so min
  56              		.loc 1 17 0
  57 0022 1822     		movs	r2, #24
  58 0024 C261     		str	r2, [r0, #28]
  18:Src/SPI.c     ****   SPIHandle.Init.FirstBit = SPI_FIRSTBIT_MSB;
  59              		.loc 1 18 0
  60 0026 0362     		str	r3, [r0, #32]
  19:Src/SPI.c     ****   SPIHandle.Init.TIMode = SPI_TIMODE_DISABLE;
  61              		.loc 1 19 0
  62 0028 4362     		str	r3, [r0, #36]
  20:Src/SPI.c     ****   SPIHandle.Init.CRCCalculation = SPI_CRCCALCULATION_DISABLE;
  63              		.loc 1 20 0
  64 002a 8362     		str	r3, [r0, #40]
  21:Src/SPI.c     ****   SPIHandle.Init.CRCPolynomial = 10;
  65              		.loc 1 21 0
  66 002c 0A23     		movs	r3, #10
  67 002e C362     		str	r3, [r0, #44]
  22:Src/SPI.c     **** 
  23:Src/SPI.c     ****   HAL_SPI_Init(&SPIHandle);
  68              		.loc 1 23 0
  69 0030 FFF7FEFF 		bl	HAL_SPI_Init
  70              	.LVL0:
  24:Src/SPI.c     **** 
  25:Src/SPI.c     **** }
  71              		.loc 1 25 0
  72 0034 08BD     		pop	{r3, pc}
  73              	.L4:
  74 0036 00BF     		.align	2
  75              	.L3:
  76 0038 00000000 		.word	SPIHandle
  77 003c 00300140 		.word	1073819648
  78              		.cfi_endproc
  79              	.LFE66:
  81              		.section	.text.SPIWrite,"ax",%progbits
  82              		.align	1
  83              		.global	SPIWrite
  84              		.syntax unified
  85              		.thumb
  86              		.thumb_func
  87              		.fpu softvfp
  89              	SPIWrite:
  90              	.LFB67:
  26:Src/SPI.c     **** 
  27:Src/SPI.c     **** bool SPIWrite(uint8_t *writeBuffer, uint8_t totalBytes) {
ARM GAS  /tmp/ccx2Tc4g.s 			page 3


  91              		.loc 1 27 0
  92              		.cfi_startproc
  93              		@ args = 0, pretend = 0, frame = 0
  94              		@ frame_needed = 1, uses_anonymous_args = 0
  95              	.LVL1:
  96 0000 2DE9F041 		push	{r4, r5, r6, r7, r8, lr}
  97              	.LCFI1:
  98              		.cfi_def_cfa_offset 24
  99              		.cfi_offset 4, -24
 100              		.cfi_offset 5, -20
 101              		.cfi_offset 6, -16
 102              		.cfi_offset 7, -12
 103              		.cfi_offset 8, -8
 104              		.cfi_offset 14, -4
 105 0004 82B0     		sub	sp, sp, #8
 106              	.LCFI2:
 107              		.cfi_def_cfa_offset 32
 108 0006 02AF     		add	r7, sp, #8
 109              	.LCFI3:
 110              		.cfi_def_cfa 7, 24
 111 0008 0646     		mov	r6, r0
 112 000a 0C46     		mov	r4, r1
  28:Src/SPI.c     **** 
  29:Src/SPI.c     **** 	HAL_GPIO_WritePin(GPIOA, GPIO_PIN_8, GPIO_PIN_SET); //For debug only
 113              		.loc 1 29 0
 114 000c 1A4D     		ldr	r5, .L8
 115 000e 0122     		movs	r2, #1
 116 0010 4FF48071 		mov	r1, #256
 117              	.LVL2:
 118 0014 2846     		mov	r0, r5
 119              	.LVL3:
 120 0016 FFF7FEFF 		bl	HAL_GPIO_WritePin
 121              	.LVL4:
  30:Src/SPI.c     **** 	HAL_StatusTypeDef halReturnStatus;
  31:Src/SPI.c     **** 	uint8_t readBuffer[totalBytes];
 122              		.loc 1 31 0
 123 001a E31D     		adds	r3, r4, #7
 124 001c 03F4FC73 		and	r3, r3, #504
 125 0020 ADEB030D 		sub	sp, sp, r3
 126 0024 0DF10808 		add	r8, sp, #8
 127              	.LVL5:
  32:Src/SPI.c     **** 	
  33:Src/SPI.c     **** 	HAL_GPIO_WritePin(GPIOA, GPIO_PIN_4, GPIO_PIN_RESET);
 128              		.loc 1 33 0
 129 0028 0022     		movs	r2, #0
 130 002a 1021     		movs	r1, #16
 131 002c 2846     		mov	r0, r5
 132 002e FFF7FEFF 		bl	HAL_GPIO_WritePin
 133              	.LVL6:
  34:Src/SPI.c     **** 	// HAL_Delay(1);
  35:Src/SPI.c     **** 	halReturnStatus = HAL_SPI_TransmitReceive(&SPIHandle, writeBuffer, readBuffer, totalBytes, 1000);
 134              		.loc 1 35 0
 135 0032 4FF47A73 		mov	r3, #1000
 136 0036 0093     		str	r3, [sp]
 137 0038 2346     		mov	r3, r4
 138 003a 4246     		mov	r2, r8
 139 003c 3146     		mov	r1, r6
ARM GAS  /tmp/ccx2Tc4g.s 			page 4


 140 003e 0F48     		ldr	r0, .L8+4
 141 0040 FFF7FEFF 		bl	HAL_SPI_TransmitReceive
 142              	.LVL7:
 143 0044 0546     		mov	r5, r0
 144              	.LVL8:
 145              	.L6:
  36:Src/SPI.c     **** 	while( SPIHandle.State == HAL_SPI_STATE_BUSY );  // wait xmission complete
 146              		.loc 1 36 0 discriminator 1
 147 0046 0D4B     		ldr	r3, .L8+4
 148 0048 93F85130 		ldrb	r3, [r3, #81]	@ zero_extendqisi2
 149 004c DBB2     		uxtb	r3, r3
 150 004e 022B     		cmp	r3, #2
 151 0050 F9D0     		beq	.L6
  37:Src/SPI.c     **** 	// HAL_Delay(1);
  38:Src/SPI.c     **** 	HAL_GPIO_WritePin(GPIOA, GPIO_PIN_4, GPIO_PIN_SET);
 152              		.loc 1 38 0
 153 0052 094C     		ldr	r4, .L8
 154              	.LVL9:
 155 0054 0122     		movs	r2, #1
 156 0056 1021     		movs	r1, #16
 157 0058 2046     		mov	r0, r4
 158 005a FFF7FEFF 		bl	HAL_GPIO_WritePin
 159              	.LVL10:
  39:Src/SPI.c     **** 
  40:Src/SPI.c     **** 	HAL_GPIO_WritePin(GPIOA, GPIO_PIN_8, GPIO_PIN_RESET); //For debug only
 160              		.loc 1 40 0
 161 005e 0022     		movs	r2, #0
 162 0060 4FF48071 		mov	r1, #256
 163 0064 2046     		mov	r0, r4
 164 0066 FFF7FEFF 		bl	HAL_GPIO_WritePin
 165              	.LVL11:
  41:Src/SPI.c     **** 
  42:Src/SPI.c     **** 	return(halReturnStatus == HAL_OK);
  43:Src/SPI.c     **** };
 166              		.loc 1 43 0
 167 006a B5FA85F0 		clz	r0, r5
 168 006e 4009     		lsrs	r0, r0, #5
 169 0070 BD46     		mov	sp, r7
 170              	.LCFI4:
 171              		.cfi_def_cfa_register 13
 172              		@ sp needed
 173 0072 BDE8F081 		pop	{r4, r5, r6, r7, r8, pc}
 174              	.LVL12:
 175              	.L9:
 176 0076 00BF     		.align	2
 177              	.L8:
 178 0078 00080140 		.word	1073809408
 179 007c 00000000 		.word	SPIHandle
 180              		.cfi_endproc
 181              	.LFE67:
 183              		.section	.text.SPIWriteRead,"ax",%progbits
 184              		.align	1
 185              		.global	SPIWriteRead
 186              		.syntax unified
 187              		.thumb
 188              		.thumb_func
 189              		.fpu softvfp
ARM GAS  /tmp/ccx2Tc4g.s 			page 5


 191              	SPIWriteRead:
 192              	.LFB68:
  44:Src/SPI.c     **** 
  45:Src/SPI.c     **** bool SPIWriteRead(uint8_t *writeBuffer, uint8_t *readBuffer, uint8_t totalBytes) {
 193              		.loc 1 45 0
 194              		.cfi_startproc
 195              		@ args = 0, pretend = 0, frame = 0
 196              		@ frame_needed = 0, uses_anonymous_args = 0
 197              	.LVL13:
 198 0000 F0B5     		push	{r4, r5, r6, r7, lr}
 199              	.LCFI5:
 200              		.cfi_def_cfa_offset 20
 201              		.cfi_offset 4, -20
 202              		.cfi_offset 5, -16
 203              		.cfi_offset 6, -12
 204              		.cfi_offset 7, -8
 205              		.cfi_offset 14, -4
 206 0002 83B0     		sub	sp, sp, #12
 207              	.LCFI6:
 208              		.cfi_def_cfa_offset 32
 209 0004 0546     		mov	r5, r0
 210 0006 0E46     		mov	r6, r1
 211 0008 1746     		mov	r7, r2
  46:Src/SPI.c     **** 	HAL_GPIO_WritePin(GPIOA, GPIO_PIN_8, GPIO_PIN_SET); //For debug only
 212              		.loc 1 46 0
 213 000a 164C     		ldr	r4, .L13
 214 000c 0122     		movs	r2, #1
 215              	.LVL14:
 216 000e 4FF48071 		mov	r1, #256
 217              	.LVL15:
 218 0012 2046     		mov	r0, r4
 219              	.LVL16:
 220 0014 FFF7FEFF 		bl	HAL_GPIO_WritePin
 221              	.LVL17:
  47:Src/SPI.c     **** 
  48:Src/SPI.c     **** 	HAL_StatusTypeDef halReturnStatus;
  49:Src/SPI.c     **** 
  50:Src/SPI.c     **** 	HAL_GPIO_WritePin(GPIOA, GPIO_PIN_4, GPIO_PIN_RESET);
 222              		.loc 1 50 0
 223 0018 0022     		movs	r2, #0
 224 001a 1021     		movs	r1, #16
 225 001c 2046     		mov	r0, r4
 226 001e FFF7FEFF 		bl	HAL_GPIO_WritePin
 227              	.LVL18:
  51:Src/SPI.c     **** 	// HAL_Delay(1);
  52:Src/SPI.c     **** 	halReturnStatus = HAL_SPI_TransmitReceive(&SPIHandle, writeBuffer, readBuffer, totalBytes, 1000);
 228              		.loc 1 52 0
 229 0022 4FF47A73 		mov	r3, #1000
 230 0026 0093     		str	r3, [sp]
 231 0028 3B46     		mov	r3, r7
 232 002a 3246     		mov	r2, r6
 233 002c 2946     		mov	r1, r5
 234 002e 0E48     		ldr	r0, .L13+4
 235 0030 FFF7FEFF 		bl	HAL_SPI_TransmitReceive
 236              	.LVL19:
 237 0034 0546     		mov	r5, r0
 238              	.LVL20:
ARM GAS  /tmp/ccx2Tc4g.s 			page 6


 239              	.L11:
  53:Src/SPI.c     **** 	while( SPIHandle.State == HAL_SPI_STATE_BUSY );  // wait xmission complete
 240              		.loc 1 53 0 discriminator 1
 241 0036 0C4B     		ldr	r3, .L13+4
 242 0038 93F85130 		ldrb	r3, [r3, #81]	@ zero_extendqisi2
 243 003c DBB2     		uxtb	r3, r3
 244 003e 022B     		cmp	r3, #2
 245 0040 F9D0     		beq	.L11
  54:Src/SPI.c     **** 	// HAL_Delay(1);
  55:Src/SPI.c     **** 	HAL_GPIO_WritePin(GPIOA, GPIO_PIN_4, GPIO_PIN_SET);
 246              		.loc 1 55 0
 247 0042 084C     		ldr	r4, .L13
 248 0044 0122     		movs	r2, #1
 249 0046 1021     		movs	r1, #16
 250 0048 2046     		mov	r0, r4
 251 004a FFF7FEFF 		bl	HAL_GPIO_WritePin
 252              	.LVL21:
  56:Src/SPI.c     **** 	
  57:Src/SPI.c     **** 	HAL_GPIO_WritePin(GPIOA, GPIO_PIN_8, GPIO_PIN_RESET); //For debug only
 253              		.loc 1 57 0
 254 004e 0022     		movs	r2, #0
 255 0050 4FF48071 		mov	r1, #256
 256 0054 2046     		mov	r0, r4
 257 0056 FFF7FEFF 		bl	HAL_GPIO_WritePin
 258              	.LVL22:
  58:Src/SPI.c     **** 
  59:Src/SPI.c     **** 	return(halReturnStatus == HAL_OK);
  60:Src/SPI.c     **** };...
 259              		.loc 1 60 0
 260 005a B5FA85F0 		clz	r0, r5
 261 005e 4009     		lsrs	r0, r0, #5
 262 0060 03B0     		add	sp, sp, #12
 263              	.LCFI7:
 264              		.cfi_def_cfa_offset 20
 265              		@ sp needed
 266 0062 F0BD     		pop	{r4, r5, r6, r7, pc}
 267              	.LVL23:
 268              	.L14:
 269              		.align	2
 270              	.L13:
 271 0064 00080140 		.word	1073809408
 272 0068 00000000 		.word	SPIHandle
 273              		.cfi_endproc
 274              	.LFE68:
 276              		.comm	SPIHandle,88,4
 277              		.text
 278              	.Letext0:
 279              		.file 2 "/usr/include/newlib/machine/_default_types.h"
 280              		.file 3 "/usr/include/newlib/sys/_stdint.h"
 281              		.file 4 "Drivers/CMSIS/Include/core_cm3.h"
 282              		.file 5 "Drivers/CMSIS/Device/ST/STM32F1xx/Include/system_stm32f1xx.h"
 283              		.file 6 "Drivers/CMSIS/Device/ST/STM32F1xx/Include/stm32f103xb.h"
 284              		.file 7 "/usr/include/newlib/sys/lock.h"
 285              		.file 8 "/usr/include/newlib/sys/_types.h"
 286              		.file 9 "/usr/lib/gcc/arm-none-eabi/7.3.1/include/stddef.h"
 287              		.file 10 "/usr/include/newlib/sys/reent.h"
 288              		.file 11 "Drivers/STM32F1xx_HAL_Driver/Inc/stm32f1xx_hal_def.h"
ARM GAS  /tmp/ccx2Tc4g.s 			page 7


 289              		.file 12 "Drivers/STM32F1xx_HAL_Driver/Inc/stm32f1xx_hal_gpio.h"
 290              		.file 13 "Drivers/STM32F1xx_HAL_Driver/Inc/stm32f1xx_hal_dma.h"
 291              		.file 14 "Drivers/STM32F1xx_HAL_Driver/Inc/stm32f1xx_hal_spi.h"
 292              		.file 15 "Drivers/STM32F1xx_HAL_Driver/Inc/stm32f1xx_hal.h"
 293              		.file 16 "/usr/include/newlib/stdlib.h"
ARM GAS  /tmp/ccx2Tc4g.s 			page 8


DEFINED SYMBOLS
                            *ABS*:0000000000000000 SPI.c
     /tmp/ccx2Tc4g.s:16     .text.SPI_Init:0000000000000000 $t
     /tmp/ccx2Tc4g.s:23     .text.SPI_Init:0000000000000000 SPI_Init
     /tmp/ccx2Tc4g.s:76     .text.SPI_Init:0000000000000038 $d
                            *COM*:0000000000000058 SPIHandle
     /tmp/ccx2Tc4g.s:82     .text.SPIWrite:0000000000000000 $t
     /tmp/ccx2Tc4g.s:89     .text.SPIWrite:0000000000000000 SPIWrite
     /tmp/ccx2Tc4g.s:178    .text.SPIWrite:0000000000000078 $d
     /tmp/ccx2Tc4g.s:184    .text.SPIWriteRead:0000000000000000 $t
     /tmp/ccx2Tc4g.s:191    .text.SPIWriteRead:0000000000000000 SPIWriteRead
     /tmp/ccx2Tc4g.s:271    .text.SPIWriteRead:0000000000000064 $d

UNDEFINED SYMBOLS
HAL_SPI_Init
HAL_GPIO_WritePin
HAL_SPI_TransmitReceive
