ARM GAS  /var/folders/bp/f56jfl7x4ql_2mb87dhbknk40000gn/T//cc0yAegR.s 			page 1


   1              		.syntax unified
   2              		.cpu cortex-m3
   3              		.fpu softvfp
   4              		.eabi_attribute 20, 1
   5              		.eabi_attribute 21, 1
   6              		.eabi_attribute 23, 3
   7              		.eabi_attribute 24, 1
   8              		.eabi_attribute 25, 1
   9              		.eabi_attribute 26, 1
  10              		.eabi_attribute 30, 1
  11              		.eabi_attribute 34, 1
  12              		.eabi_attribute 18, 4
  13              		.thumb
  14              		.syntax unified
  15              		.file	"stm32f1xx_hal_msp.c"
  16              		.text
  17              	.Ltext0:
  18              		.cfi_sections	.debug_frame
  19              		.section	.text.HAL_MspInit,"ax",%progbits
  20              		.align	2
  21              		.global	HAL_MspInit
  22              		.thumb
  23              		.thumb_func
  25              	HAL_MspInit:
  26              	.LFB63:
  27              		.file 1 "Src/stm32f1xx_hal_msp.c"
   1:Src/stm32f1xx_hal_msp.c **** /* USER CODE BEGIN Header */
   2:Src/stm32f1xx_hal_msp.c **** /**
   3:Src/stm32f1xx_hal_msp.c ****   ******************************************************************************
   4:Src/stm32f1xx_hal_msp.c ****   * File Name          : stm32f1xx_hal_msp.c
   5:Src/stm32f1xx_hal_msp.c ****   * Description        : This file provides code for the MSP Initialization 
   6:Src/stm32f1xx_hal_msp.c ****   *                      and de-Initialization codes.
   7:Src/stm32f1xx_hal_msp.c ****   ******************************************************************************
   8:Src/stm32f1xx_hal_msp.c ****   ** This notice applies to any and all portions of this file
   9:Src/stm32f1xx_hal_msp.c ****   * that are not between comment pairs USER CODE BEGIN and
  10:Src/stm32f1xx_hal_msp.c ****   * USER CODE END. Other portions of this file, whether 
  11:Src/stm32f1xx_hal_msp.c ****   * inserted by the user or by software development tools
  12:Src/stm32f1xx_hal_msp.c ****   * are owned by their respective copyright owners.
  13:Src/stm32f1xx_hal_msp.c ****   *
  14:Src/stm32f1xx_hal_msp.c ****   * COPYRIGHT(c) 2019 STMicroelectronics
  15:Src/stm32f1xx_hal_msp.c ****   *
  16:Src/stm32f1xx_hal_msp.c ****   * Redistribution and use in source and binary forms, with or without modification,
  17:Src/stm32f1xx_hal_msp.c ****   * are permitted provided that the following conditions are met:
  18:Src/stm32f1xx_hal_msp.c ****   *   1. Redistributions of source code must retain the above copyright notice,
  19:Src/stm32f1xx_hal_msp.c ****   *      this list of conditions and the following disclaimer.
  20:Src/stm32f1xx_hal_msp.c ****   *   2. Redistributions in binary form must reproduce the above copyright notice,
  21:Src/stm32f1xx_hal_msp.c ****   *      this list of conditions and the following disclaimer in the documentation
  22:Src/stm32f1xx_hal_msp.c ****   *      and/or other materials provided with the distribution.
  23:Src/stm32f1xx_hal_msp.c ****   *   3. Neither the name of STMicroelectronics nor the names of its contributors
  24:Src/stm32f1xx_hal_msp.c ****   *      may be used to endorse or promote products derived from this software
  25:Src/stm32f1xx_hal_msp.c ****   *      without specific prior written permission.
  26:Src/stm32f1xx_hal_msp.c ****   *
  27:Src/stm32f1xx_hal_msp.c ****   * THIS SOFTWARE IS PROVIDED BY THE COPYRIGHT HOLDERS AND CONTRIBUTORS "AS IS"
  28:Src/stm32f1xx_hal_msp.c ****   * AND ANY EXPRESS OR IMPLIED WARRANTIES, INCLUDING, BUT NOT LIMITED TO, THE
  29:Src/stm32f1xx_hal_msp.c ****   * IMPLIED WARRANTIES OF MERCHANTABILITY AND FITNESS FOR A PARTICULAR PURPOSE ARE
  30:Src/stm32f1xx_hal_msp.c ****   * DISCLAIMED. IN NO EVENT SHALL THE COPYRIGHT HOLDER OR CONTRIBUTORS BE LIABLE
  31:Src/stm32f1xx_hal_msp.c ****   * FOR ANY DIRECT, INDIRECT, INCIDENTAL, SPECIAL, EXEMPLARY, OR CONSEQUENTIAL
ARM GAS  /var/folders/bp/f56jfl7x4ql_2mb87dhbknk40000gn/T//cc0yAegR.s 			page 2


  32:Src/stm32f1xx_hal_msp.c ****   * DAMAGES (INCLUDING, BUT NOT LIMITED TO, PROCUREMENT OF SUBSTITUTE GOODS OR
  33:Src/stm32f1xx_hal_msp.c ****   * SERVICES; LOSS OF USE, DATA, OR PROFITS; OR BUSINESS INTERRUPTION) HOWEVER
  34:Src/stm32f1xx_hal_msp.c ****   * CAUSED AND ON ANY THEORY OF LIABILITY, WHETHER IN CONTRACT, STRICT LIABILITY,
  35:Src/stm32f1xx_hal_msp.c ****   * OR TORT (INCLUDING NEGLIGENCE OR OTHERWISE) ARISING IN ANY WAY OUT OF THE USE
  36:Src/stm32f1xx_hal_msp.c ****   * OF THIS SOFTWARE, EVEN IF ADVISED OF THE POSSIBILITY OF SUCH DAMAGE.
  37:Src/stm32f1xx_hal_msp.c ****   *
  38:Src/stm32f1xx_hal_msp.c ****   ******************************************************************************
  39:Src/stm32f1xx_hal_msp.c ****   */
  40:Src/stm32f1xx_hal_msp.c **** /* USER CODE END Header */
  41:Src/stm32f1xx_hal_msp.c **** 
  42:Src/stm32f1xx_hal_msp.c **** /* Includes ------------------------------------------------------------------*/
  43:Src/stm32f1xx_hal_msp.c **** #include "main.h"
  44:Src/stm32f1xx_hal_msp.c **** /* USER CODE BEGIN Includes */
  45:Src/stm32f1xx_hal_msp.c **** 
  46:Src/stm32f1xx_hal_msp.c **** /* USER CODE END Includes */
  47:Src/stm32f1xx_hal_msp.c **** 
  48:Src/stm32f1xx_hal_msp.c **** /* Private typedef -----------------------------------------------------------*/
  49:Src/stm32f1xx_hal_msp.c **** /* USER CODE BEGIN TD */
  50:Src/stm32f1xx_hal_msp.c **** 
  51:Src/stm32f1xx_hal_msp.c **** /* USER CODE END TD */
  52:Src/stm32f1xx_hal_msp.c **** 
  53:Src/stm32f1xx_hal_msp.c **** /* Private define ------------------------------------------------------------*/
  54:Src/stm32f1xx_hal_msp.c **** /* USER CODE BEGIN Define */
  55:Src/stm32f1xx_hal_msp.c ****  
  56:Src/stm32f1xx_hal_msp.c **** /* USER CODE END Define */
  57:Src/stm32f1xx_hal_msp.c **** 
  58:Src/stm32f1xx_hal_msp.c **** /* Private macro -------------------------------------------------------------*/
  59:Src/stm32f1xx_hal_msp.c **** /* USER CODE BEGIN Macro */
  60:Src/stm32f1xx_hal_msp.c **** 
  61:Src/stm32f1xx_hal_msp.c **** /* USER CODE END Macro */
  62:Src/stm32f1xx_hal_msp.c **** 
  63:Src/stm32f1xx_hal_msp.c **** /* Private variables ---------------------------------------------------------*/
  64:Src/stm32f1xx_hal_msp.c **** /* USER CODE BEGIN PV */
  65:Src/stm32f1xx_hal_msp.c **** 
  66:Src/stm32f1xx_hal_msp.c **** /* USER CODE END PV */
  67:Src/stm32f1xx_hal_msp.c **** 
  68:Src/stm32f1xx_hal_msp.c **** /* Private function prototypes -----------------------------------------------*/
  69:Src/stm32f1xx_hal_msp.c **** /* USER CODE BEGIN PFP */
  70:Src/stm32f1xx_hal_msp.c **** 
  71:Src/stm32f1xx_hal_msp.c **** /* USER CODE END PFP */
  72:Src/stm32f1xx_hal_msp.c **** 
  73:Src/stm32f1xx_hal_msp.c **** /* External functions --------------------------------------------------------*/
  74:Src/stm32f1xx_hal_msp.c **** /* USER CODE BEGIN ExternalFunctions */
  75:Src/stm32f1xx_hal_msp.c **** 
  76:Src/stm32f1xx_hal_msp.c **** /* USER CODE END ExternalFunctions */
  77:Src/stm32f1xx_hal_msp.c **** 
  78:Src/stm32f1xx_hal_msp.c **** /* USER CODE BEGIN 0 */
  79:Src/stm32f1xx_hal_msp.c **** 
  80:Src/stm32f1xx_hal_msp.c **** /* USER CODE END 0 */
  81:Src/stm32f1xx_hal_msp.c **** /**
  82:Src/stm32f1xx_hal_msp.c ****   * Initializes the Global MSP.
  83:Src/stm32f1xx_hal_msp.c ****   */
  84:Src/stm32f1xx_hal_msp.c **** void HAL_MspInit(void)
  85:Src/stm32f1xx_hal_msp.c **** {
  28              		.loc 1 85 0
  29              		.cfi_startproc
  30              		@ args = 0, pretend = 0, frame = 8
ARM GAS  /var/folders/bp/f56jfl7x4ql_2mb87dhbknk40000gn/T//cc0yAegR.s 			page 3


  31              		@ frame_needed = 0, uses_anonymous_args = 0
  32              		@ link register save eliminated.
  33 0000 82B0     		sub	sp, sp, #8
  34              	.LCFI0:
  35              		.cfi_def_cfa_offset 8
  36              	.LBB2:
  86:Src/stm32f1xx_hal_msp.c ****   /* USER CODE BEGIN MspInit 0 */
  87:Src/stm32f1xx_hal_msp.c **** 
  88:Src/stm32f1xx_hal_msp.c ****   /* USER CODE END MspInit 0 */
  89:Src/stm32f1xx_hal_msp.c **** 
  90:Src/stm32f1xx_hal_msp.c ****   __HAL_RCC_AFIO_CLK_ENABLE();
  37              		.loc 1 90 0
  38 0002 0E4B     		ldr	r3, .L3
  39 0004 9A69     		ldr	r2, [r3, #24]
  40 0006 42F00102 		orr	r2, r2, #1
  41 000a 9A61     		str	r2, [r3, #24]
  42 000c 9A69     		ldr	r2, [r3, #24]
  43 000e 02F00102 		and	r2, r2, #1
  44 0012 0092     		str	r2, [sp]
  45 0014 009A     		ldr	r2, [sp]
  46              	.LBE2:
  47              	.LBB3:
  91:Src/stm32f1xx_hal_msp.c ****   __HAL_RCC_PWR_CLK_ENABLE();
  48              		.loc 1 91 0
  49 0016 DA69     		ldr	r2, [r3, #28]
  50 0018 42F08052 		orr	r2, r2, #268435456
  51 001c DA61     		str	r2, [r3, #28]
  52 001e DB69     		ldr	r3, [r3, #28]
  53 0020 03F08053 		and	r3, r3, #268435456
  54 0024 0193     		str	r3, [sp, #4]
  55 0026 019B     		ldr	r3, [sp, #4]
  56              	.LBE3:
  57              	.LBB4:
  92:Src/stm32f1xx_hal_msp.c **** 
  93:Src/stm32f1xx_hal_msp.c ****   /* System interrupt init*/
  94:Src/stm32f1xx_hal_msp.c **** 
  95:Src/stm32f1xx_hal_msp.c ****   /**NOJTAG: JTAG-DP Disabled and SW-DP Enabled 
  96:Src/stm32f1xx_hal_msp.c ****   */
  97:Src/stm32f1xx_hal_msp.c ****   __HAL_AFIO_REMAP_SWJ_NOJTAG();
  58              		.loc 1 97 0
  59 0028 054A     		ldr	r2, .L3+4
  60 002a 5368     		ldr	r3, [r2, #4]
  61              	.LVL0:
  62 002c 23F0E063 		bic	r3, r3, #117440512
  63              	.LVL1:
  64 0030 43F00073 		orr	r3, r3, #33554432
  65              	.LVL2:
  66 0034 5360     		str	r3, [r2, #4]
  67              	.LBE4:
  98:Src/stm32f1xx_hal_msp.c **** 
  99:Src/stm32f1xx_hal_msp.c ****   /* USER CODE BEGIN MspInit 1 */
 100:Src/stm32f1xx_hal_msp.c **** 
 101:Src/stm32f1xx_hal_msp.c ****   /* USER CODE END MspInit 1 */
 102:Src/stm32f1xx_hal_msp.c **** }
  68              		.loc 1 102 0
  69 0036 02B0     		add	sp, sp, #8
  70              	.LCFI1:
ARM GAS  /var/folders/bp/f56jfl7x4ql_2mb87dhbknk40000gn/T//cc0yAegR.s 			page 4


  71              		.cfi_def_cfa_offset 0
  72              		@ sp needed
  73 0038 7047     		bx	lr
  74              	.L4:
  75 003a 00BF     		.align	2
  76              	.L3:
  77 003c 00100240 		.word	1073876992
  78 0040 00000140 		.word	1073807360
  79              		.cfi_endproc
  80              	.LFE63:
  82              		.section	.text.HAL_ADC_MspInit,"ax",%progbits
  83              		.align	2
  84              		.global	HAL_ADC_MspInit
  85              		.thumb
  86              		.thumb_func
  88              	HAL_ADC_MspInit:
  89              	.LFB64:
 103:Src/stm32f1xx_hal_msp.c **** 
 104:Src/stm32f1xx_hal_msp.c **** /**
 105:Src/stm32f1xx_hal_msp.c **** * @brief ADC MSP Initialization
 106:Src/stm32f1xx_hal_msp.c **** * This function configures the hardware resources used in this example
 107:Src/stm32f1xx_hal_msp.c **** * @param hadc: ADC handle pointer
 108:Src/stm32f1xx_hal_msp.c **** * @retval None
 109:Src/stm32f1xx_hal_msp.c **** */
 110:Src/stm32f1xx_hal_msp.c **** void HAL_ADC_MspInit(ADC_HandleTypeDef* hadc)
 111:Src/stm32f1xx_hal_msp.c **** {
  90              		.loc 1 111 0
  91              		.cfi_startproc
  92              		@ args = 0, pretend = 0, frame = 24
  93              		@ frame_needed = 0, uses_anonymous_args = 0
  94              	.LVL3:
  95 0000 00B5     		push	{lr}
  96              	.LCFI2:
  97              		.cfi_def_cfa_offset 4
  98              		.cfi_offset 14, -4
  99 0002 87B0     		sub	sp, sp, #28
 100              	.LCFI3:
 101              		.cfi_def_cfa_offset 32
 112:Src/stm32f1xx_hal_msp.c **** 
 113:Src/stm32f1xx_hal_msp.c ****   GPIO_InitTypeDef GPIO_InitStruct = {0};
 102              		.loc 1 113 0
 103 0004 0023     		movs	r3, #0
 104 0006 0293     		str	r3, [sp, #8]
 105 0008 0393     		str	r3, [sp, #12]
 106 000a 0493     		str	r3, [sp, #16]
 107 000c 0593     		str	r3, [sp, #20]
 114:Src/stm32f1xx_hal_msp.c ****   if(hadc->Instance==ADC1)
 108              		.loc 1 114 0
 109 000e 0268     		ldr	r2, [r0]
 110 0010 104B     		ldr	r3, .L8
 111 0012 9A42     		cmp	r2, r3
 112 0014 1BD1     		bne	.L5
 113              	.LBB5:
 115:Src/stm32f1xx_hal_msp.c ****   {
 116:Src/stm32f1xx_hal_msp.c ****   /* USER CODE BEGIN ADC1_MspInit 0 */
 117:Src/stm32f1xx_hal_msp.c **** 
 118:Src/stm32f1xx_hal_msp.c ****   /* USER CODE END ADC1_MspInit 0 */
ARM GAS  /var/folders/bp/f56jfl7x4ql_2mb87dhbknk40000gn/T//cc0yAegR.s 			page 5


 119:Src/stm32f1xx_hal_msp.c ****     /* Peripheral clock enable */
 120:Src/stm32f1xx_hal_msp.c ****     __HAL_RCC_ADC1_CLK_ENABLE();
 114              		.loc 1 120 0
 115 0016 03F56C43 		add	r3, r3, #60416
 116 001a 9A69     		ldr	r2, [r3, #24]
 117 001c 42F40072 		orr	r2, r2, #512
 118 0020 9A61     		str	r2, [r3, #24]
 119 0022 9A69     		ldr	r2, [r3, #24]
 120 0024 02F40072 		and	r2, r2, #512
 121 0028 0092     		str	r2, [sp]
 122 002a 009A     		ldr	r2, [sp]
 123              	.LBE5:
 124              	.LBB6:
 121:Src/stm32f1xx_hal_msp.c ****   
 122:Src/stm32f1xx_hal_msp.c ****     __HAL_RCC_GPIOB_CLK_ENABLE();
 125              		.loc 1 122 0
 126 002c 9A69     		ldr	r2, [r3, #24]
 127 002e 42F00802 		orr	r2, r2, #8
 128 0032 9A61     		str	r2, [r3, #24]
 129 0034 9B69     		ldr	r3, [r3, #24]
 130 0036 03F00803 		and	r3, r3, #8
 131 003a 0193     		str	r3, [sp, #4]
 132 003c 019B     		ldr	r3, [sp, #4]
 133              	.LBE6:
 123:Src/stm32f1xx_hal_msp.c ****     /**ADC1 GPIO Configuration    
 124:Src/stm32f1xx_hal_msp.c ****     PB0     ------> ADC1_IN8 
 125:Src/stm32f1xx_hal_msp.c ****     */
 126:Src/stm32f1xx_hal_msp.c ****     GPIO_InitStruct.Pin = GPIO_PIN_0;
 134              		.loc 1 126 0
 135 003e 0123     		movs	r3, #1
 136 0040 0293     		str	r3, [sp, #8]
 127:Src/stm32f1xx_hal_msp.c ****     GPIO_InitStruct.Mode = GPIO_MODE_ANALOG;
 137              		.loc 1 127 0
 138 0042 0323     		movs	r3, #3
 139 0044 0393     		str	r3, [sp, #12]
 128:Src/stm32f1xx_hal_msp.c ****     HAL_GPIO_Init(GPIOB, &GPIO_InitStruct);
 140              		.loc 1 128 0
 141 0046 02A9     		add	r1, sp, #8
 142 0048 0348     		ldr	r0, .L8+4
 143              	.LVL4:
 144 004a FFF7FEFF 		bl	HAL_GPIO_Init
 145              	.LVL5:
 146              	.L5:
 129:Src/stm32f1xx_hal_msp.c **** 
 130:Src/stm32f1xx_hal_msp.c ****   /* USER CODE BEGIN ADC1_MspInit 1 */
 131:Src/stm32f1xx_hal_msp.c **** 
 132:Src/stm32f1xx_hal_msp.c ****   /* USER CODE END ADC1_MspInit 1 */
 133:Src/stm32f1xx_hal_msp.c ****   }
 134:Src/stm32f1xx_hal_msp.c **** 
 135:Src/stm32f1xx_hal_msp.c **** }
 147              		.loc 1 135 0
 148 004e 07B0     		add	sp, sp, #28
 149              	.LCFI4:
 150              		.cfi_def_cfa_offset 4
 151              		@ sp needed
 152 0050 5DF804FB 		ldr	pc, [sp], #4
 153              	.L9:
ARM GAS  /var/folders/bp/f56jfl7x4ql_2mb87dhbknk40000gn/T//cc0yAegR.s 			page 6


 154              		.align	2
 155              	.L8:
 156 0054 00240140 		.word	1073816576
 157 0058 000C0140 		.word	1073810432
 158              		.cfi_endproc
 159              	.LFE64:
 161              		.section	.text.HAL_ADC_MspDeInit,"ax",%progbits
 162              		.align	2
 163              		.global	HAL_ADC_MspDeInit
 164              		.thumb
 165              		.thumb_func
 167              	HAL_ADC_MspDeInit:
 168              	.LFB65:
 136:Src/stm32f1xx_hal_msp.c **** 
 137:Src/stm32f1xx_hal_msp.c **** /**
 138:Src/stm32f1xx_hal_msp.c **** * @brief ADC MSP De-Initialization
 139:Src/stm32f1xx_hal_msp.c **** * This function freeze the hardware resources used in this example
 140:Src/stm32f1xx_hal_msp.c **** * @param hadc: ADC handle pointer
 141:Src/stm32f1xx_hal_msp.c **** * @retval None
 142:Src/stm32f1xx_hal_msp.c **** */
 143:Src/stm32f1xx_hal_msp.c **** 
 144:Src/stm32f1xx_hal_msp.c **** void HAL_ADC_MspDeInit(ADC_HandleTypeDef* hadc)
 145:Src/stm32f1xx_hal_msp.c **** {
 169              		.loc 1 145 0
 170              		.cfi_startproc
 171              		@ args = 0, pretend = 0, frame = 0
 172              		@ frame_needed = 0, uses_anonymous_args = 0
 173              	.LVL6:
 174 0000 08B5     		push	{r3, lr}
 175              	.LCFI5:
 176              		.cfi_def_cfa_offset 8
 177              		.cfi_offset 3, -8
 178              		.cfi_offset 14, -4
 146:Src/stm32f1xx_hal_msp.c **** 
 147:Src/stm32f1xx_hal_msp.c ****   if(hadc->Instance==ADC1)
 179              		.loc 1 147 0
 180 0002 0268     		ldr	r2, [r0]
 181 0004 064B     		ldr	r3, .L13
 182 0006 9A42     		cmp	r2, r3
 183 0008 08D1     		bne	.L10
 148:Src/stm32f1xx_hal_msp.c ****   {
 149:Src/stm32f1xx_hal_msp.c ****   /* USER CODE BEGIN ADC1_MspDeInit 0 */
 150:Src/stm32f1xx_hal_msp.c **** 
 151:Src/stm32f1xx_hal_msp.c ****   /* USER CODE END ADC1_MspDeInit 0 */
 152:Src/stm32f1xx_hal_msp.c ****     /* Peripheral clock disable */
 153:Src/stm32f1xx_hal_msp.c ****     __HAL_RCC_ADC1_CLK_DISABLE();
 184              		.loc 1 153 0
 185 000a 064A     		ldr	r2, .L13+4
 186 000c 9369     		ldr	r3, [r2, #24]
 187 000e 23F40073 		bic	r3, r3, #512
 188 0012 9361     		str	r3, [r2, #24]
 154:Src/stm32f1xx_hal_msp.c ****   
 155:Src/stm32f1xx_hal_msp.c ****     /**ADC1 GPIO Configuration    
 156:Src/stm32f1xx_hal_msp.c ****     PB0     ------> ADC1_IN8 
 157:Src/stm32f1xx_hal_msp.c ****     */
 158:Src/stm32f1xx_hal_msp.c ****     HAL_GPIO_DeInit(GPIOB, GPIO_PIN_0);
 189              		.loc 1 158 0
ARM GAS  /var/folders/bp/f56jfl7x4ql_2mb87dhbknk40000gn/T//cc0yAegR.s 			page 7


 190 0014 0121     		movs	r1, #1
 191 0016 0448     		ldr	r0, .L13+8
 192              	.LVL7:
 193 0018 FFF7FEFF 		bl	HAL_GPIO_DeInit
 194              	.LVL8:
 195              	.L10:
 196 001c 08BD     		pop	{r3, pc}
 197              	.L14:
 198 001e 00BF     		.align	2
 199              	.L13:
 200 0020 00240140 		.word	1073816576
 201 0024 00100240 		.word	1073876992
 202 0028 000C0140 		.word	1073810432
 203              		.cfi_endproc
 204              	.LFE65:
 206              		.section	.text.HAL_I2C_MspInit,"ax",%progbits
 207              		.align	2
 208              		.global	HAL_I2C_MspInit
 209              		.thumb
 210              		.thumb_func
 212              	HAL_I2C_MspInit:
 213              	.LFB66:
 159:Src/stm32f1xx_hal_msp.c **** 
 160:Src/stm32f1xx_hal_msp.c ****   /* USER CODE BEGIN ADC1_MspDeInit 1 */
 161:Src/stm32f1xx_hal_msp.c **** 
 162:Src/stm32f1xx_hal_msp.c ****   /* USER CODE END ADC1_MspDeInit 1 */
 163:Src/stm32f1xx_hal_msp.c ****   }
 164:Src/stm32f1xx_hal_msp.c **** 
 165:Src/stm32f1xx_hal_msp.c **** }
 166:Src/stm32f1xx_hal_msp.c **** 
 167:Src/stm32f1xx_hal_msp.c **** /**
 168:Src/stm32f1xx_hal_msp.c **** * @brief I2C MSP Initialization
 169:Src/stm32f1xx_hal_msp.c **** * This function configures the hardware resources used in this example
 170:Src/stm32f1xx_hal_msp.c **** * @param hi2c: I2C handle pointer
 171:Src/stm32f1xx_hal_msp.c **** * @retval None
 172:Src/stm32f1xx_hal_msp.c **** */
 173:Src/stm32f1xx_hal_msp.c **** void HAL_I2C_MspInit(I2C_HandleTypeDef* hi2c)
 174:Src/stm32f1xx_hal_msp.c **** {
 214              		.loc 1 174 0
 215              		.cfi_startproc
 216              		@ args = 0, pretend = 0, frame = 24
 217              		@ frame_needed = 0, uses_anonymous_args = 0
 218              	.LVL9:
 219 0000 00B5     		push	{lr}
 220              	.LCFI6:
 221              		.cfi_def_cfa_offset 4
 222              		.cfi_offset 14, -4
 223 0002 87B0     		sub	sp, sp, #28
 224              	.LCFI7:
 225              		.cfi_def_cfa_offset 32
 175:Src/stm32f1xx_hal_msp.c **** 
 176:Src/stm32f1xx_hal_msp.c ****   GPIO_InitTypeDef GPIO_InitStruct = {0};
 226              		.loc 1 176 0
 227 0004 0023     		movs	r3, #0
 228 0006 0293     		str	r3, [sp, #8]
 229 0008 0393     		str	r3, [sp, #12]
 230 000a 0493     		str	r3, [sp, #16]
ARM GAS  /var/folders/bp/f56jfl7x4ql_2mb87dhbknk40000gn/T//cc0yAegR.s 			page 8


 231 000c 0593     		str	r3, [sp, #20]
 177:Src/stm32f1xx_hal_msp.c ****   if(hi2c->Instance==I2C1)
 232              		.loc 1 177 0
 233 000e 0268     		ldr	r2, [r0]
 234 0010 114B     		ldr	r3, .L18
 235 0012 9A42     		cmp	r2, r3
 236 0014 1DD1     		bne	.L15
 237              	.LBB7:
 178:Src/stm32f1xx_hal_msp.c ****   {
 179:Src/stm32f1xx_hal_msp.c ****   /* USER CODE BEGIN I2C1_MspInit 0 */
 180:Src/stm32f1xx_hal_msp.c **** 
 181:Src/stm32f1xx_hal_msp.c ****   /* USER CODE END I2C1_MspInit 0 */
 182:Src/stm32f1xx_hal_msp.c ****   
 183:Src/stm32f1xx_hal_msp.c ****     __HAL_RCC_GPIOB_CLK_ENABLE();
 238              		.loc 1 183 0
 239 0016 03F5DE33 		add	r3, r3, #113664
 240 001a 9A69     		ldr	r2, [r3, #24]
 241 001c 42F00802 		orr	r2, r2, #8
 242 0020 9A61     		str	r2, [r3, #24]
 243 0022 9A69     		ldr	r2, [r3, #24]
 244 0024 02F00802 		and	r2, r2, #8
 245 0028 0092     		str	r2, [sp]
 246 002a 009A     		ldr	r2, [sp]
 247              	.LBE7:
 184:Src/stm32f1xx_hal_msp.c ****     /**I2C1 GPIO Configuration    
 185:Src/stm32f1xx_hal_msp.c ****     PB6     ------> I2C1_SCL
 186:Src/stm32f1xx_hal_msp.c ****     PB7     ------> I2C1_SDA 
 187:Src/stm32f1xx_hal_msp.c ****     */
 188:Src/stm32f1xx_hal_msp.c ****     GPIO_InitStruct.Pin = GPIO_PIN_6|GPIO_PIN_7;
 248              		.loc 1 188 0
 249 002c C022     		movs	r2, #192
 250 002e 0292     		str	r2, [sp, #8]
 189:Src/stm32f1xx_hal_msp.c ****     GPIO_InitStruct.Mode = GPIO_MODE_AF_OD;
 251              		.loc 1 189 0
 252 0030 1222     		movs	r2, #18
 253 0032 0392     		str	r2, [sp, #12]
 190:Src/stm32f1xx_hal_msp.c ****     GPIO_InitStruct.Speed = GPIO_SPEED_FREQ_HIGH;
 254              		.loc 1 190 0
 255 0034 0322     		movs	r2, #3
 256 0036 0592     		str	r2, [sp, #20]
 257              	.LBB8:
 191:Src/stm32f1xx_hal_msp.c **** 	__HAL_RCC_I2C1_CLK_ENABLE(); // this needs to be before GPIO init or busy flag is set and I2C does
 258              		.loc 1 191 0
 259 0038 DA69     		ldr	r2, [r3, #28]
 260 003a 42F40012 		orr	r2, r2, #2097152
 261 003e DA61     		str	r2, [r3, #28]
 262 0040 DB69     		ldr	r3, [r3, #28]
 263 0042 03F40013 		and	r3, r3, #2097152
 264 0046 0193     		str	r3, [sp, #4]
 265 0048 019B     		ldr	r3, [sp, #4]
 266              	.LBE8:
 192:Src/stm32f1xx_hal_msp.c ****     HAL_GPIO_Init(GPIOB, &GPIO_InitStruct);
 267              		.loc 1 192 0
 268 004a 02A9     		add	r1, sp, #8
 269 004c 0348     		ldr	r0, .L18+4
 270              	.LVL10:
 271 004e FFF7FEFF 		bl	HAL_GPIO_Init
ARM GAS  /var/folders/bp/f56jfl7x4ql_2mb87dhbknk40000gn/T//cc0yAegR.s 			page 9


 272              	.LVL11:
 273              	.L15:
 193:Src/stm32f1xx_hal_msp.c **** 
 194:Src/stm32f1xx_hal_msp.c ****     /* Peripheral clock enable */
 195:Src/stm32f1xx_hal_msp.c ****     //__HAL_RCC_I2C1_CLK_ENABLE();
 196:Src/stm32f1xx_hal_msp.c ****   /* USER CODE BEGIN I2C1_MspInit 1 */
 197:Src/stm32f1xx_hal_msp.c **** 
 198:Src/stm32f1xx_hal_msp.c ****   /* USER CODE END I2C1_MspInit 1 */
 199:Src/stm32f1xx_hal_msp.c ****   }
 200:Src/stm32f1xx_hal_msp.c **** 
 201:Src/stm32f1xx_hal_msp.c **** }
 274              		.loc 1 201 0
 275 0052 07B0     		add	sp, sp, #28
 276              	.LCFI8:
 277              		.cfi_def_cfa_offset 4
 278              		@ sp needed
 279 0054 5DF804FB 		ldr	pc, [sp], #4
 280              	.L19:
 281              		.align	2
 282              	.L18:
 283 0058 00540040 		.word	1073763328
 284 005c 000C0140 		.word	1073810432
 285              		.cfi_endproc
 286              	.LFE66:
 288              		.section	.text.HAL_I2C_MspDeInit,"ax",%progbits
 289              		.align	2
 290              		.global	HAL_I2C_MspDeInit
 291              		.thumb
 292              		.thumb_func
 294              	HAL_I2C_MspDeInit:
 295              	.LFB67:
 202:Src/stm32f1xx_hal_msp.c **** 
 203:Src/stm32f1xx_hal_msp.c **** /**
 204:Src/stm32f1xx_hal_msp.c **** * @brief I2C MSP De-Initialization
 205:Src/stm32f1xx_hal_msp.c **** * This function freeze the hardware resources used in this example
 206:Src/stm32f1xx_hal_msp.c **** * @param hi2c: I2C handle pointer
 207:Src/stm32f1xx_hal_msp.c **** * @retval None
 208:Src/stm32f1xx_hal_msp.c **** */
 209:Src/stm32f1xx_hal_msp.c **** 
 210:Src/stm32f1xx_hal_msp.c **** void HAL_I2C_MspDeInit(I2C_HandleTypeDef* hi2c)
 211:Src/stm32f1xx_hal_msp.c **** {
 296              		.loc 1 211 0
 297              		.cfi_startproc
 298              		@ args = 0, pretend = 0, frame = 0
 299              		@ frame_needed = 0, uses_anonymous_args = 0
 300              	.LVL12:
 301 0000 08B5     		push	{r3, lr}
 302              	.LCFI9:
 303              		.cfi_def_cfa_offset 8
 304              		.cfi_offset 3, -8
 305              		.cfi_offset 14, -4
 212:Src/stm32f1xx_hal_msp.c **** 
 213:Src/stm32f1xx_hal_msp.c ****   if(hi2c->Instance==I2C1)
 306              		.loc 1 213 0
 307 0002 0268     		ldr	r2, [r0]
 308 0004 064B     		ldr	r3, .L23
 309 0006 9A42     		cmp	r2, r3
ARM GAS  /var/folders/bp/f56jfl7x4ql_2mb87dhbknk40000gn/T//cc0yAegR.s 			page 10


 310 0008 08D1     		bne	.L20
 214:Src/stm32f1xx_hal_msp.c ****   {
 215:Src/stm32f1xx_hal_msp.c ****   /* USER CODE BEGIN I2C1_MspDeInit 0 */
 216:Src/stm32f1xx_hal_msp.c **** 
 217:Src/stm32f1xx_hal_msp.c ****   /* USER CODE END I2C1_MspDeInit 0 */
 218:Src/stm32f1xx_hal_msp.c ****     /* Peripheral clock disable */
 219:Src/stm32f1xx_hal_msp.c ****     __HAL_RCC_I2C1_CLK_DISABLE();
 311              		.loc 1 219 0
 312 000a 064A     		ldr	r2, .L23+4
 313 000c D369     		ldr	r3, [r2, #28]
 314 000e 23F40013 		bic	r3, r3, #2097152
 315 0012 D361     		str	r3, [r2, #28]
 220:Src/stm32f1xx_hal_msp.c ****   
 221:Src/stm32f1xx_hal_msp.c ****     /**I2C1 GPIO Configuration    
 222:Src/stm32f1xx_hal_msp.c ****     PB6     ------> I2C1_SCL
 223:Src/stm32f1xx_hal_msp.c ****     PB7     ------> I2C1_SDA 
 224:Src/stm32f1xx_hal_msp.c ****     */
 225:Src/stm32f1xx_hal_msp.c ****     HAL_GPIO_DeInit(GPIOB, GPIO_PIN_6|GPIO_PIN_7);
 316              		.loc 1 225 0
 317 0014 C021     		movs	r1, #192
 318 0016 0448     		ldr	r0, .L23+8
 319              	.LVL13:
 320 0018 FFF7FEFF 		bl	HAL_GPIO_DeInit
 321              	.LVL14:
 322              	.L20:
 323 001c 08BD     		pop	{r3, pc}
 324              	.L24:
 325 001e 00BF     		.align	2
 326              	.L23:
 327 0020 00540040 		.word	1073763328
 328 0024 00100240 		.word	1073876992
 329 0028 000C0140 		.word	1073810432
 330              		.cfi_endproc
 331              	.LFE67:
 333              		.section	.text.HAL_SPI_MspInit,"ax",%progbits
 334              		.align	2
 335              		.global	HAL_SPI_MspInit
 336              		.thumb
 337              		.thumb_func
 339              	HAL_SPI_MspInit:
 340              	.LFB68:
 226:Src/stm32f1xx_hal_msp.c **** 
 227:Src/stm32f1xx_hal_msp.c ****   /* USER CODE BEGIN I2C1_MspDeInit 1 */
 228:Src/stm32f1xx_hal_msp.c **** 
 229:Src/stm32f1xx_hal_msp.c ****   /* USER CODE END I2C1_MspDeInit 1 */
 230:Src/stm32f1xx_hal_msp.c ****   }
 231:Src/stm32f1xx_hal_msp.c **** 
 232:Src/stm32f1xx_hal_msp.c **** }
 233:Src/stm32f1xx_hal_msp.c **** 
 234:Src/stm32f1xx_hal_msp.c **** /**
 235:Src/stm32f1xx_hal_msp.c **** * @brief SPI MSP Initialization
 236:Src/stm32f1xx_hal_msp.c **** * This function configures the hardware resources used in this example
 237:Src/stm32f1xx_hal_msp.c **** * @param hspi: SPI handle pointer
 238:Src/stm32f1xx_hal_msp.c **** * @retval None
 239:Src/stm32f1xx_hal_msp.c **** */
 240:Src/stm32f1xx_hal_msp.c **** void HAL_SPI_MspInit(SPI_HandleTypeDef* hspi)
 241:Src/stm32f1xx_hal_msp.c **** {
ARM GAS  /var/folders/bp/f56jfl7x4ql_2mb87dhbknk40000gn/T//cc0yAegR.s 			page 11


 341              		.loc 1 241 0
 342              		.cfi_startproc
 343              		@ args = 0, pretend = 0, frame = 24
 344              		@ frame_needed = 0, uses_anonymous_args = 0
 345              	.LVL15:
 346 0000 00B5     		push	{lr}
 347              	.LCFI10:
 348              		.cfi_def_cfa_offset 4
 349              		.cfi_offset 14, -4
 350 0002 87B0     		sub	sp, sp, #28
 351              	.LCFI11:
 352              		.cfi_def_cfa_offset 32
 242:Src/stm32f1xx_hal_msp.c **** 
 243:Src/stm32f1xx_hal_msp.c ****   GPIO_InitTypeDef GPIO_InitStruct = {0};
 353              		.loc 1 243 0
 354 0004 0023     		movs	r3, #0
 355 0006 0293     		str	r3, [sp, #8]
 356 0008 0393     		str	r3, [sp, #12]
 357 000a 0493     		str	r3, [sp, #16]
 358 000c 0593     		str	r3, [sp, #20]
 244:Src/stm32f1xx_hal_msp.c ****   if(hspi->Instance==SPI1)
 359              		.loc 1 244 0
 360 000e 0268     		ldr	r2, [r0]
 361 0010 114B     		ldr	r3, .L28
 362 0012 9A42     		cmp	r2, r3
 363 0014 1DD1     		bne	.L25
 364              	.LBB9:
 245:Src/stm32f1xx_hal_msp.c ****   {
 246:Src/stm32f1xx_hal_msp.c ****   /* USER CODE BEGIN SPI1_MspInit 0 */
 247:Src/stm32f1xx_hal_msp.c **** 
 248:Src/stm32f1xx_hal_msp.c ****   /* USER CODE END SPI1_MspInit 0 */
 249:Src/stm32f1xx_hal_msp.c ****     /* Peripheral clock enable */
 250:Src/stm32f1xx_hal_msp.c ****     __HAL_RCC_SPI1_CLK_ENABLE();
 365              		.loc 1 250 0
 366 0016 03F56043 		add	r3, r3, #57344
 367 001a 9A69     		ldr	r2, [r3, #24]
 368 001c 42F48052 		orr	r2, r2, #4096
 369 0020 9A61     		str	r2, [r3, #24]
 370 0022 9A69     		ldr	r2, [r3, #24]
 371 0024 02F48052 		and	r2, r2, #4096
 372 0028 0092     		str	r2, [sp]
 373 002a 009A     		ldr	r2, [sp]
 374              	.LBE9:
 375              	.LBB10:
 251:Src/stm32f1xx_hal_msp.c ****   
 252:Src/stm32f1xx_hal_msp.c ****     __HAL_RCC_GPIOA_CLK_ENABLE();
 376              		.loc 1 252 0
 377 002c 9A69     		ldr	r2, [r3, #24]
 378 002e 42F00402 		orr	r2, r2, #4
 379 0032 9A61     		str	r2, [r3, #24]
 380 0034 9B69     		ldr	r3, [r3, #24]
 381 0036 03F00403 		and	r3, r3, #4
 382 003a 0193     		str	r3, [sp, #4]
 383 003c 019B     		ldr	r3, [sp, #4]
 384              	.LBE10:
 253:Src/stm32f1xx_hal_msp.c ****     /**SPI1 GPIO Configuration    
 254:Src/stm32f1xx_hal_msp.c ****     PA4     ------> SPI1_NSS
ARM GAS  /var/folders/bp/f56jfl7x4ql_2mb87dhbknk40000gn/T//cc0yAegR.s 			page 12


 255:Src/stm32f1xx_hal_msp.c ****     PA5     ------> SPI1_SCK
 256:Src/stm32f1xx_hal_msp.c ****     PA6     ------> SPI1_MISO
 257:Src/stm32f1xx_hal_msp.c ****     PA7     ------> SPI1_MOSI 
 258:Src/stm32f1xx_hal_msp.c ****     */
 259:Src/stm32f1xx_hal_msp.c **** 	
 260:Src/stm32f1xx_hal_msp.c **** 	//uncomment this for SPI slave
 261:Src/stm32f1xx_hal_msp.c ****     /*GPIO_InitStruct.Pin = GPIO_PIN_4|GPIO_PIN_5|GPIO_PIN_7;
 262:Src/stm32f1xx_hal_msp.c ****     GPIO_InitStruct.Mode = GPIO_MODE_INPUT;
 263:Src/stm32f1xx_hal_msp.c ****     GPIO_InitStruct.Pull = GPIO_NOPULL;
 264:Src/stm32f1xx_hal_msp.c ****     HAL_GPIO_Init(GPIOA, &GPIO_InitStruct);
 265:Src/stm32f1xx_hal_msp.c **** 
 266:Src/stm32f1xx_hal_msp.c ****     GPIO_InitStruct.Pin = GPIO_PIN_6;
 267:Src/stm32f1xx_hal_msp.c ****     GPIO_InitStruct.Mode = GPIO_MODE_AF_PP;
 268:Src/stm32f1xx_hal_msp.c ****     GPIO_InitStruct.Speed = GPIO_SPEED_FREQ_HIGH;
 269:Src/stm32f1xx_hal_msp.c ****     HAL_GPIO_Init(GPIOA, &GPIO_InitStruct);*/
 270:Src/stm32f1xx_hal_msp.c **** 	
 271:Src/stm32f1xx_hal_msp.c **** 	GPIO_InitStruct.Pin = GPIO_PIN_4|GPIO_PIN_5|GPIO_PIN_7;
 385              		.loc 1 271 0
 386 003e B023     		movs	r3, #176
 387 0040 0293     		str	r3, [sp, #8]
 272:Src/stm32f1xx_hal_msp.c ****     GPIO_InitStruct.Mode = GPIO_MODE_AF_PP;
 388              		.loc 1 272 0
 389 0042 0223     		movs	r3, #2
 390 0044 0393     		str	r3, [sp, #12]
 273:Src/stm32f1xx_hal_msp.c ****     GPIO_InitStruct.Speed = GPIO_SPEED_FREQ_HIGH;
 391              		.loc 1 273 0
 392 0046 0323     		movs	r3, #3
 393 0048 0593     		str	r3, [sp, #20]
 274:Src/stm32f1xx_hal_msp.c ****     HAL_GPIO_Init(GPIOA, &GPIO_InitStruct);
 394              		.loc 1 274 0
 395 004a 02A9     		add	r1, sp, #8
 396 004c 0348     		ldr	r0, .L28+4
 397              	.LVL16:
 398 004e FFF7FEFF 		bl	HAL_GPIO_Init
 399              	.LVL17:
 400              	.L25:
 275:Src/stm32f1xx_hal_msp.c **** 
 276:Src/stm32f1xx_hal_msp.c ****     /* SPI1 interrupt Init */
 277:Src/stm32f1xx_hal_msp.c **** 	//uncomment this for SPI slave
 278:Src/stm32f1xx_hal_msp.c ****     //HAL_NVIC_SetPriority(SPI1_IRQn, 0, 0);
 279:Src/stm32f1xx_hal_msp.c ****     //HAL_NVIC_EnableIRQ(SPI1_IRQn);
 280:Src/stm32f1xx_hal_msp.c ****   /* USER CODE BEGIN SPI1_MspInit 1 */
 281:Src/stm32f1xx_hal_msp.c **** 
 282:Src/stm32f1xx_hal_msp.c ****   /* USER CODE END SPI1_MspInit 1 */
 283:Src/stm32f1xx_hal_msp.c ****   }
 284:Src/stm32f1xx_hal_msp.c **** 
 285:Src/stm32f1xx_hal_msp.c **** }
 401              		.loc 1 285 0
 402 0052 07B0     		add	sp, sp, #28
 403              	.LCFI12:
 404              		.cfi_def_cfa_offset 4
 405              		@ sp needed
 406 0054 5DF804FB 		ldr	pc, [sp], #4
 407              	.L29:
 408              		.align	2
 409              	.L28:
 410 0058 00300140 		.word	1073819648
ARM GAS  /var/folders/bp/f56jfl7x4ql_2mb87dhbknk40000gn/T//cc0yAegR.s 			page 13


 411 005c 00080140 		.word	1073809408
 412              		.cfi_endproc
 413              	.LFE68:
 415              		.section	.text.HAL_SPI_MspDeInit,"ax",%progbits
 416              		.align	2
 417              		.global	HAL_SPI_MspDeInit
 418              		.thumb
 419              		.thumb_func
 421              	HAL_SPI_MspDeInit:
 422              	.LFB69:
 286:Src/stm32f1xx_hal_msp.c **** 
 287:Src/stm32f1xx_hal_msp.c **** /**
 288:Src/stm32f1xx_hal_msp.c **** * @brief SPI MSP De-Initialization
 289:Src/stm32f1xx_hal_msp.c **** * This function freeze the hardware resources used in this example
 290:Src/stm32f1xx_hal_msp.c **** * @param hspi: SPI handle pointer
 291:Src/stm32f1xx_hal_msp.c **** * @retval None
 292:Src/stm32f1xx_hal_msp.c **** */
 293:Src/stm32f1xx_hal_msp.c **** 
 294:Src/stm32f1xx_hal_msp.c **** void HAL_SPI_MspDeInit(SPI_HandleTypeDef* hspi)
 295:Src/stm32f1xx_hal_msp.c **** {
 423              		.loc 1 295 0
 424              		.cfi_startproc
 425              		@ args = 0, pretend = 0, frame = 0
 426              		@ frame_needed = 0, uses_anonymous_args = 0
 427              	.LVL18:
 428 0000 08B5     		push	{r3, lr}
 429              	.LCFI13:
 430              		.cfi_def_cfa_offset 8
 431              		.cfi_offset 3, -8
 432              		.cfi_offset 14, -4
 296:Src/stm32f1xx_hal_msp.c **** 
 297:Src/stm32f1xx_hal_msp.c ****   if(hspi->Instance==SPI1)
 433              		.loc 1 297 0
 434 0002 0268     		ldr	r2, [r0]
 435 0004 074B     		ldr	r3, .L33
 436 0006 9A42     		cmp	r2, r3
 437 0008 0BD1     		bne	.L30
 298:Src/stm32f1xx_hal_msp.c ****   {
 299:Src/stm32f1xx_hal_msp.c ****   /* USER CODE BEGIN SPI1_MspDeInit 0 */
 300:Src/stm32f1xx_hal_msp.c **** 
 301:Src/stm32f1xx_hal_msp.c ****   /* USER CODE END SPI1_MspDeInit 0 */
 302:Src/stm32f1xx_hal_msp.c ****     /* Peripheral clock disable */
 303:Src/stm32f1xx_hal_msp.c ****     __HAL_RCC_SPI1_CLK_DISABLE();
 438              		.loc 1 303 0
 439 000a 074A     		ldr	r2, .L33+4
 440 000c 9369     		ldr	r3, [r2, #24]
 441 000e 23F48053 		bic	r3, r3, #4096
 442 0012 9361     		str	r3, [r2, #24]
 304:Src/stm32f1xx_hal_msp.c ****   
 305:Src/stm32f1xx_hal_msp.c ****     /**SPI1 GPIO Configuration    
 306:Src/stm32f1xx_hal_msp.c ****     PA4     ------> SPI1_NSS
 307:Src/stm32f1xx_hal_msp.c ****     PA5     ------> SPI1_SCK
 308:Src/stm32f1xx_hal_msp.c ****     PA6     ------> SPI1_MISO
 309:Src/stm32f1xx_hal_msp.c ****     PA7     ------> SPI1_MOSI 
 310:Src/stm32f1xx_hal_msp.c ****     */
 311:Src/stm32f1xx_hal_msp.c ****     HAL_GPIO_DeInit(GPIOA, GPIO_PIN_4|GPIO_PIN_5|GPIO_PIN_6|GPIO_PIN_7);
 443              		.loc 1 311 0
ARM GAS  /var/folders/bp/f56jfl7x4ql_2mb87dhbknk40000gn/T//cc0yAegR.s 			page 14


 444 0014 F021     		movs	r1, #240
 445 0016 0548     		ldr	r0, .L33+8
 446              	.LVL19:
 447 0018 FFF7FEFF 		bl	HAL_GPIO_DeInit
 448              	.LVL20:
 312:Src/stm32f1xx_hal_msp.c **** 
 313:Src/stm32f1xx_hal_msp.c ****     /* SPI1 interrupt DeInit */
 314:Src/stm32f1xx_hal_msp.c ****     HAL_NVIC_DisableIRQ(SPI1_IRQn);
 449              		.loc 1 314 0
 450 001c 2320     		movs	r0, #35
 451 001e FFF7FEFF 		bl	HAL_NVIC_DisableIRQ
 452              	.LVL21:
 453              	.L30:
 454 0022 08BD     		pop	{r3, pc}
 455              	.L34:
 456              		.align	2
 457              	.L33:
 458 0024 00300140 		.word	1073819648
 459 0028 00100240 		.word	1073876992
 460 002c 00080140 		.word	1073809408
 461              		.cfi_endproc
 462              	.LFE69:
 464              		.section	.text.HAL_TIM_Base_MspInit,"ax",%progbits
 465              		.align	2
 466              		.global	HAL_TIM_Base_MspInit
 467              		.thumb
 468              		.thumb_func
 470              	HAL_TIM_Base_MspInit:
 471              	.LFB70:
 315:Src/stm32f1xx_hal_msp.c ****   /* USER CODE BEGIN SPI1_MspDeInit 1 */
 316:Src/stm32f1xx_hal_msp.c **** 
 317:Src/stm32f1xx_hal_msp.c ****   /* USER CODE END SPI1_MspDeInit 1 */
 318:Src/stm32f1xx_hal_msp.c ****   }
 319:Src/stm32f1xx_hal_msp.c **** 
 320:Src/stm32f1xx_hal_msp.c **** }
 321:Src/stm32f1xx_hal_msp.c **** 
 322:Src/stm32f1xx_hal_msp.c **** /**
 323:Src/stm32f1xx_hal_msp.c **** * @brief TIM_Base MSP Initialization
 324:Src/stm32f1xx_hal_msp.c **** * This function configures the hardware resources used in this example
 325:Src/stm32f1xx_hal_msp.c **** * @param htim_base: TIM_Base handle pointer
 326:Src/stm32f1xx_hal_msp.c **** * @retval None
 327:Src/stm32f1xx_hal_msp.c **** */
 328:Src/stm32f1xx_hal_msp.c **** void HAL_TIM_Base_MspInit(TIM_HandleTypeDef* htim_base)
 329:Src/stm32f1xx_hal_msp.c **** {
 472              		.loc 1 329 0
 473              		.cfi_startproc
 474              		@ args = 0, pretend = 0, frame = 8
 475              		@ frame_needed = 0, uses_anonymous_args = 0
 476              	.LVL22:
 477 0000 00B5     		push	{lr}
 478              	.LCFI14:
 479              		.cfi_def_cfa_offset 4
 480              		.cfi_offset 14, -4
 481 0002 83B0     		sub	sp, sp, #12
 482              	.LCFI15:
 483              		.cfi_def_cfa_offset 16
 330:Src/stm32f1xx_hal_msp.c **** 
ARM GAS  /var/folders/bp/f56jfl7x4ql_2mb87dhbknk40000gn/T//cc0yAegR.s 			page 15


 331:Src/stm32f1xx_hal_msp.c ****   if(htim_base->Instance==TIM2)
 484              		.loc 1 331 0
 485 0004 0368     		ldr	r3, [r0]
 486 0006 B3F1804F 		cmp	r3, #1073741824
 487 000a 13D1     		bne	.L36
 488              	.LBB11:
 332:Src/stm32f1xx_hal_msp.c ****   {
 333:Src/stm32f1xx_hal_msp.c ****   /* USER CODE BEGIN TIM2_MspInit 0 */
 334:Src/stm32f1xx_hal_msp.c **** 
 335:Src/stm32f1xx_hal_msp.c ****   /* USER CODE END TIM2_MspInit 0 */
 336:Src/stm32f1xx_hal_msp.c ****     /* Peripheral clock enable */
 337:Src/stm32f1xx_hal_msp.c ****     __HAL_RCC_TIM2_CLK_ENABLE();
 489              		.loc 1 337 0
 490 000c 03F50433 		add	r3, r3, #135168
 491 0010 DA69     		ldr	r2, [r3, #28]
 492 0012 42F00102 		orr	r2, r2, #1
 493 0016 DA61     		str	r2, [r3, #28]
 494 0018 DB69     		ldr	r3, [r3, #28]
 495 001a 03F00103 		and	r3, r3, #1
 496 001e 0093     		str	r3, [sp]
 497 0020 009B     		ldr	r3, [sp]
 498              	.LBE11:
 338:Src/stm32f1xx_hal_msp.c ****     /* TIM2 interrupt Init */
 339:Src/stm32f1xx_hal_msp.c ****     HAL_NVIC_SetPriority(TIM2_IRQn, 0, 0);
 499              		.loc 1 339 0
 500 0022 0022     		movs	r2, #0
 501 0024 1146     		mov	r1, r2
 502 0026 1C20     		movs	r0, #28
 503              	.LVL23:
 504 0028 FFF7FEFF 		bl	HAL_NVIC_SetPriority
 505              	.LVL24:
 340:Src/stm32f1xx_hal_msp.c ****     HAL_NVIC_EnableIRQ(TIM2_IRQn);
 506              		.loc 1 340 0
 507 002c 1C20     		movs	r0, #28
 508 002e FFF7FEFF 		bl	HAL_NVIC_EnableIRQ
 509              	.LVL25:
 510 0032 14E0     		b	.L35
 511              	.LVL26:
 512              	.L36:
 341:Src/stm32f1xx_hal_msp.c ****   /* USER CODE BEGIN TIM2_MspInit 1 */
 342:Src/stm32f1xx_hal_msp.c **** 
 343:Src/stm32f1xx_hal_msp.c ****   /* USER CODE END TIM2_MspInit 1 */
 344:Src/stm32f1xx_hal_msp.c ****   }
 345:Src/stm32f1xx_hal_msp.c ****   else if(htim_base->Instance==TIM3)
 513              		.loc 1 345 0
 514 0034 0B4A     		ldr	r2, .L39
 515 0036 9342     		cmp	r3, r2
 516 0038 11D1     		bne	.L35
 517              	.LBB12:
 346:Src/stm32f1xx_hal_msp.c ****   {
 347:Src/stm32f1xx_hal_msp.c ****   /* USER CODE BEGIN TIM3_MspInit 0 */
 348:Src/stm32f1xx_hal_msp.c **** 
 349:Src/stm32f1xx_hal_msp.c ****   /* USER CODE END TIM3_MspInit 0 */
 350:Src/stm32f1xx_hal_msp.c ****     /* Peripheral clock enable */
 351:Src/stm32f1xx_hal_msp.c ****     __HAL_RCC_TIM3_CLK_ENABLE();
 518              		.loc 1 351 0
 519 003a 0B4B     		ldr	r3, .L39+4
ARM GAS  /var/folders/bp/f56jfl7x4ql_2mb87dhbknk40000gn/T//cc0yAegR.s 			page 16


 520 003c DA69     		ldr	r2, [r3, #28]
 521 003e 42F00202 		orr	r2, r2, #2
 522 0042 DA61     		str	r2, [r3, #28]
 523 0044 DB69     		ldr	r3, [r3, #28]
 524 0046 03F00203 		and	r3, r3, #2
 525 004a 0193     		str	r3, [sp, #4]
 526 004c 019B     		ldr	r3, [sp, #4]
 527              	.LBE12:
 352:Src/stm32f1xx_hal_msp.c ****     /* TIM3 interrupt Init */
 353:Src/stm32f1xx_hal_msp.c ****     HAL_NVIC_SetPriority(TIM3_IRQn, 0, 0);
 528              		.loc 1 353 0
 529 004e 0022     		movs	r2, #0
 530 0050 1146     		mov	r1, r2
 531 0052 1D20     		movs	r0, #29
 532              	.LVL27:
 533 0054 FFF7FEFF 		bl	HAL_NVIC_SetPriority
 534              	.LVL28:
 354:Src/stm32f1xx_hal_msp.c ****     HAL_NVIC_EnableIRQ(TIM3_IRQn);
 535              		.loc 1 354 0
 536 0058 1D20     		movs	r0, #29
 537 005a FFF7FEFF 		bl	HAL_NVIC_EnableIRQ
 538              	.LVL29:
 539              	.L35:
 355:Src/stm32f1xx_hal_msp.c ****   /* USER CODE BEGIN TIM3_MspInit 1 */
 356:Src/stm32f1xx_hal_msp.c **** 
 357:Src/stm32f1xx_hal_msp.c ****   /* USER CODE END TIM3_MspInit 1 */
 358:Src/stm32f1xx_hal_msp.c ****   }
 359:Src/stm32f1xx_hal_msp.c **** 
 360:Src/stm32f1xx_hal_msp.c **** }
 540              		.loc 1 360 0
 541 005e 03B0     		add	sp, sp, #12
 542              	.LCFI16:
 543              		.cfi_def_cfa_offset 4
 544              		@ sp needed
 545 0060 5DF804FB 		ldr	pc, [sp], #4
 546              	.L40:
 547              		.align	2
 548              	.L39:
 549 0064 00040040 		.word	1073742848
 550 0068 00100240 		.word	1073876992
 551              		.cfi_endproc
 552              	.LFE70:
 554              		.section	.text.HAL_TIM_Base_MspDeInit,"ax",%progbits
 555              		.align	2
 556              		.global	HAL_TIM_Base_MspDeInit
 557              		.thumb
 558              		.thumb_func
 560              	HAL_TIM_Base_MspDeInit:
 561              	.LFB71:
 361:Src/stm32f1xx_hal_msp.c **** 
 362:Src/stm32f1xx_hal_msp.c **** /**
 363:Src/stm32f1xx_hal_msp.c **** * @brief TIM_Base MSP De-Initialization
 364:Src/stm32f1xx_hal_msp.c **** * This function freeze the hardware resources used in this example
 365:Src/stm32f1xx_hal_msp.c **** * @param htim_base: TIM_Base handle pointer
 366:Src/stm32f1xx_hal_msp.c **** * @retval None
 367:Src/stm32f1xx_hal_msp.c **** */
 368:Src/stm32f1xx_hal_msp.c **** 
ARM GAS  /var/folders/bp/f56jfl7x4ql_2mb87dhbknk40000gn/T//cc0yAegR.s 			page 17


 369:Src/stm32f1xx_hal_msp.c **** void HAL_TIM_Base_MspDeInit(TIM_HandleTypeDef* htim_base)
 370:Src/stm32f1xx_hal_msp.c **** {
 562              		.loc 1 370 0
 563              		.cfi_startproc
 564              		@ args = 0, pretend = 0, frame = 0
 565              		@ frame_needed = 0, uses_anonymous_args = 0
 566              	.LVL30:
 567 0000 08B5     		push	{r3, lr}
 568              	.LCFI17:
 569              		.cfi_def_cfa_offset 8
 570              		.cfi_offset 3, -8
 571              		.cfi_offset 14, -4
 371:Src/stm32f1xx_hal_msp.c **** 
 372:Src/stm32f1xx_hal_msp.c ****   if(htim_base->Instance==TIM2)
 572              		.loc 1 372 0
 573 0002 0368     		ldr	r3, [r0]
 574 0004 B3F1804F 		cmp	r3, #1073741824
 575 0008 08D1     		bne	.L42
 373:Src/stm32f1xx_hal_msp.c ****   {
 374:Src/stm32f1xx_hal_msp.c ****   /* USER CODE BEGIN TIM2_MspDeInit 0 */
 375:Src/stm32f1xx_hal_msp.c **** 
 376:Src/stm32f1xx_hal_msp.c ****   /* USER CODE END TIM2_MspDeInit 0 */
 377:Src/stm32f1xx_hal_msp.c ****     /* Peripheral clock disable */
 378:Src/stm32f1xx_hal_msp.c ****     __HAL_RCC_TIM2_CLK_DISABLE();
 576              		.loc 1 378 0
 577 000a 0B4A     		ldr	r2, .L45
 578 000c D369     		ldr	r3, [r2, #28]
 579 000e 23F00103 		bic	r3, r3, #1
 580 0012 D361     		str	r3, [r2, #28]
 379:Src/stm32f1xx_hal_msp.c **** 
 380:Src/stm32f1xx_hal_msp.c ****     /* TIM2 interrupt DeInit */
 381:Src/stm32f1xx_hal_msp.c ****     HAL_NVIC_DisableIRQ(TIM2_IRQn);
 581              		.loc 1 381 0
 582 0014 1C20     		movs	r0, #28
 583              	.LVL31:
 584 0016 FFF7FEFF 		bl	HAL_NVIC_DisableIRQ
 585              	.LVL32:
 586 001a 08BD     		pop	{r3, pc}
 587              	.LVL33:
 588              	.L42:
 382:Src/stm32f1xx_hal_msp.c ****   /* USER CODE BEGIN TIM2_MspDeInit 1 */
 383:Src/stm32f1xx_hal_msp.c **** 
 384:Src/stm32f1xx_hal_msp.c ****   /* USER CODE END TIM2_MspDeInit 1 */
 385:Src/stm32f1xx_hal_msp.c ****   }
 386:Src/stm32f1xx_hal_msp.c ****   else if(htim_base->Instance==TIM3)
 589              		.loc 1 386 0
 590 001c 074A     		ldr	r2, .L45+4
 591 001e 9342     		cmp	r3, r2
 592 0020 08D1     		bne	.L41
 387:Src/stm32f1xx_hal_msp.c ****   {
 388:Src/stm32f1xx_hal_msp.c ****   /* USER CODE BEGIN TIM3_MspDeInit 0 */
 389:Src/stm32f1xx_hal_msp.c **** 
 390:Src/stm32f1xx_hal_msp.c ****   /* USER CODE END TIM3_MspDeInit 0 */
 391:Src/stm32f1xx_hal_msp.c ****     /* Peripheral clock disable */
 392:Src/stm32f1xx_hal_msp.c ****     __HAL_RCC_TIM3_CLK_DISABLE();
 593              		.loc 1 392 0
 594 0022 02F50332 		add	r2, r2, #134144
ARM GAS  /var/folders/bp/f56jfl7x4ql_2mb87dhbknk40000gn/T//cc0yAegR.s 			page 18


 595 0026 D369     		ldr	r3, [r2, #28]
 596 0028 23F00203 		bic	r3, r3, #2
 597 002c D361     		str	r3, [r2, #28]
 393:Src/stm32f1xx_hal_msp.c **** 
 394:Src/stm32f1xx_hal_msp.c ****     /* TIM3 interrupt DeInit */
 395:Src/stm32f1xx_hal_msp.c ****     HAL_NVIC_DisableIRQ(TIM3_IRQn);
 598              		.loc 1 395 0
 599 002e 1D20     		movs	r0, #29
 600              	.LVL34:
 601 0030 FFF7FEFF 		bl	HAL_NVIC_DisableIRQ
 602              	.LVL35:
 603              	.L41:
 604 0034 08BD     		pop	{r3, pc}
 605              	.L46:
 606 0036 00BF     		.align	2
 607              	.L45:
 608 0038 00100240 		.word	1073876992
 609 003c 00040040 		.word	1073742848
 610              		.cfi_endproc
 611              	.LFE71:
 613              		.section	.text.HAL_UART_MspInit,"ax",%progbits
 614              		.align	2
 615              		.global	HAL_UART_MspInit
 616              		.thumb
 617              		.thumb_func
 619              	HAL_UART_MspInit:
 620              	.LFB72:
 396:Src/stm32f1xx_hal_msp.c ****   /* USER CODE BEGIN TIM3_MspDeInit 1 */
 397:Src/stm32f1xx_hal_msp.c **** 
 398:Src/stm32f1xx_hal_msp.c ****   /* USER CODE END TIM3_MspDeInit 1 */
 399:Src/stm32f1xx_hal_msp.c ****   }
 400:Src/stm32f1xx_hal_msp.c **** 
 401:Src/stm32f1xx_hal_msp.c **** }
 402:Src/stm32f1xx_hal_msp.c **** 
 403:Src/stm32f1xx_hal_msp.c **** /**
 404:Src/stm32f1xx_hal_msp.c **** * @brief UART MSP Initialization
 405:Src/stm32f1xx_hal_msp.c **** * This function configures the hardware resources used in this example
 406:Src/stm32f1xx_hal_msp.c **** * @param huart: UART handle pointer
 407:Src/stm32f1xx_hal_msp.c **** * @retval None
 408:Src/stm32f1xx_hal_msp.c **** */
 409:Src/stm32f1xx_hal_msp.c **** void HAL_UART_MspInit(UART_HandleTypeDef* huart)
 410:Src/stm32f1xx_hal_msp.c **** {
 621              		.loc 1 410 0
 622              		.cfi_startproc
 623              		@ args = 0, pretend = 0, frame = 24
 624              		@ frame_needed = 0, uses_anonymous_args = 0
 625              	.LVL36:
 626 0000 10B5     		push	{r4, lr}
 627              	.LCFI18:
 628              		.cfi_def_cfa_offset 8
 629              		.cfi_offset 4, -8
 630              		.cfi_offset 14, -4
 631 0002 86B0     		sub	sp, sp, #24
 632              	.LCFI19:
 633              		.cfi_def_cfa_offset 32
 411:Src/stm32f1xx_hal_msp.c **** 
 412:Src/stm32f1xx_hal_msp.c ****   GPIO_InitTypeDef GPIO_InitStruct = {0};
ARM GAS  /var/folders/bp/f56jfl7x4ql_2mb87dhbknk40000gn/T//cc0yAegR.s 			page 19


 634              		.loc 1 412 0
 635 0004 0023     		movs	r3, #0
 636 0006 0293     		str	r3, [sp, #8]
 637 0008 0393     		str	r3, [sp, #12]
 638 000a 0493     		str	r3, [sp, #16]
 639 000c 0593     		str	r3, [sp, #20]
 413:Src/stm32f1xx_hal_msp.c ****   if(huart->Instance==USART1)
 640              		.loc 1 413 0
 641 000e 0268     		ldr	r2, [r0]
 642 0010 174B     		ldr	r3, .L50
 643 0012 9A42     		cmp	r2, r3
 644 0014 29D1     		bne	.L47
 645              	.LBB13:
 414:Src/stm32f1xx_hal_msp.c ****   {
 415:Src/stm32f1xx_hal_msp.c ****   /* USER CODE BEGIN USART1_MspInit 0 */
 416:Src/stm32f1xx_hal_msp.c **** 
 417:Src/stm32f1xx_hal_msp.c ****   /* USER CODE END USART1_MspInit 0 */
 418:Src/stm32f1xx_hal_msp.c ****     /* Peripheral clock enable */
 419:Src/stm32f1xx_hal_msp.c ****     __HAL_RCC_USART1_CLK_ENABLE();
 646              		.loc 1 419 0
 647 0016 03F55843 		add	r3, r3, #55296
 648 001a 9A69     		ldr	r2, [r3, #24]
 649 001c 42F48042 		orr	r2, r2, #16384
 650 0020 9A61     		str	r2, [r3, #24]
 651 0022 9A69     		ldr	r2, [r3, #24]
 652 0024 02F48042 		and	r2, r2, #16384
 653 0028 0092     		str	r2, [sp]
 654 002a 009A     		ldr	r2, [sp]
 655              	.LBE13:
 656              	.LBB14:
 420:Src/stm32f1xx_hal_msp.c ****   
 421:Src/stm32f1xx_hal_msp.c ****     __HAL_RCC_GPIOA_CLK_ENABLE();
 657              		.loc 1 421 0
 658 002c 9A69     		ldr	r2, [r3, #24]
 659 002e 42F00402 		orr	r2, r2, #4
 660 0032 9A61     		str	r2, [r3, #24]
 661 0034 9B69     		ldr	r3, [r3, #24]
 662 0036 03F00403 		and	r3, r3, #4
 663 003a 0193     		str	r3, [sp, #4]
 664 003c 019B     		ldr	r3, [sp, #4]
 665              	.LBE14:
 422:Src/stm32f1xx_hal_msp.c ****     /**USART1 GPIO Configuration    
 423:Src/stm32f1xx_hal_msp.c ****     PA9     ------> USART1_TX
 424:Src/stm32f1xx_hal_msp.c ****     PA10     ------> USART1_RX 
 425:Src/stm32f1xx_hal_msp.c ****     */
 426:Src/stm32f1xx_hal_msp.c ****     GPIO_InitStruct.Pin = GPIO_PIN_9;
 666              		.loc 1 426 0
 667 003e 4FF40073 		mov	r3, #512
 668 0042 0293     		str	r3, [sp, #8]
 427:Src/stm32f1xx_hal_msp.c ****     GPIO_InitStruct.Mode = GPIO_MODE_AF_PP;
 669              		.loc 1 427 0
 670 0044 0223     		movs	r3, #2
 671 0046 0393     		str	r3, [sp, #12]
 428:Src/stm32f1xx_hal_msp.c ****     GPIO_InitStruct.Speed = GPIO_SPEED_FREQ_HIGH;
 672              		.loc 1 428 0
 673 0048 0323     		movs	r3, #3
 674 004a 0593     		str	r3, [sp, #20]
ARM GAS  /var/folders/bp/f56jfl7x4ql_2mb87dhbknk40000gn/T//cc0yAegR.s 			page 20


 429:Src/stm32f1xx_hal_msp.c ****     HAL_GPIO_Init(GPIOA, &GPIO_InitStruct);
 675              		.loc 1 429 0
 676 004c 094C     		ldr	r4, .L50+4
 677 004e 02A9     		add	r1, sp, #8
 678 0050 2046     		mov	r0, r4
 679              	.LVL37:
 680 0052 FFF7FEFF 		bl	HAL_GPIO_Init
 681              	.LVL38:
 430:Src/stm32f1xx_hal_msp.c **** 
 431:Src/stm32f1xx_hal_msp.c ****     GPIO_InitStruct.Pin = GPIO_PIN_10;
 682              		.loc 1 431 0
 683 0056 4FF48063 		mov	r3, #1024
 684 005a 0293     		str	r3, [sp, #8]
 432:Src/stm32f1xx_hal_msp.c ****     GPIO_InitStruct.Mode = GPIO_MODE_INPUT;
 685              		.loc 1 432 0
 686 005c 0023     		movs	r3, #0
 687 005e 0393     		str	r3, [sp, #12]
 433:Src/stm32f1xx_hal_msp.c ****     GPIO_InitStruct.Pull = GPIO_NOPULL;
 688              		.loc 1 433 0
 689 0060 0493     		str	r3, [sp, #16]
 434:Src/stm32f1xx_hal_msp.c ****     HAL_GPIO_Init(GPIOA, &GPIO_InitStruct);
 690              		.loc 1 434 0
 691 0062 02A9     		add	r1, sp, #8
 692 0064 2046     		mov	r0, r4
 693 0066 FFF7FEFF 		bl	HAL_GPIO_Init
 694              	.LVL39:
 695              	.L47:
 435:Src/stm32f1xx_hal_msp.c **** 
 436:Src/stm32f1xx_hal_msp.c ****   /* USER CODE BEGIN USART1_MspInit 1 */
 437:Src/stm32f1xx_hal_msp.c **** 
 438:Src/stm32f1xx_hal_msp.c ****   /* USER CODE END USART1_MspInit 1 */
 439:Src/stm32f1xx_hal_msp.c ****   }
 440:Src/stm32f1xx_hal_msp.c **** 
 441:Src/stm32f1xx_hal_msp.c **** }
 696              		.loc 1 441 0
 697 006a 06B0     		add	sp, sp, #24
 698              	.LCFI20:
 699              		.cfi_def_cfa_offset 8
 700              		@ sp needed
 701 006c 10BD     		pop	{r4, pc}
 702              	.L51:
 703 006e 00BF     		.align	2
 704              	.L50:
 705 0070 00380140 		.word	1073821696
 706 0074 00080140 		.word	1073809408
 707              		.cfi_endproc
 708              	.LFE72:
 710              		.section	.text.HAL_UART_MspDeInit,"ax",%progbits
 711              		.align	2
 712              		.global	HAL_UART_MspDeInit
 713              		.thumb
 714              		.thumb_func
 716              	HAL_UART_MspDeInit:
 717              	.LFB73:
 442:Src/stm32f1xx_hal_msp.c **** 
 443:Src/stm32f1xx_hal_msp.c **** /**
 444:Src/stm32f1xx_hal_msp.c **** * @brief UART MSP De-Initialization
ARM GAS  /var/folders/bp/f56jfl7x4ql_2mb87dhbknk40000gn/T//cc0yAegR.s 			page 21


 445:Src/stm32f1xx_hal_msp.c **** * This function freeze the hardware resources used in this example
 446:Src/stm32f1xx_hal_msp.c **** * @param huart: UART handle pointer
 447:Src/stm32f1xx_hal_msp.c **** * @retval None
 448:Src/stm32f1xx_hal_msp.c **** */
 449:Src/stm32f1xx_hal_msp.c **** 
 450:Src/stm32f1xx_hal_msp.c **** void HAL_UART_MspDeInit(UART_HandleTypeDef* huart)
 451:Src/stm32f1xx_hal_msp.c **** {
 718              		.loc 1 451 0
 719              		.cfi_startproc
 720              		@ args = 0, pretend = 0, frame = 0
 721              		@ frame_needed = 0, uses_anonymous_args = 0
 722              	.LVL40:
 723 0000 08B5     		push	{r3, lr}
 724              	.LCFI21:
 725              		.cfi_def_cfa_offset 8
 726              		.cfi_offset 3, -8
 727              		.cfi_offset 14, -4
 452:Src/stm32f1xx_hal_msp.c **** 
 453:Src/stm32f1xx_hal_msp.c ****   if(huart->Instance==USART1)
 728              		.loc 1 453 0
 729 0002 0268     		ldr	r2, [r0]
 730 0004 064B     		ldr	r3, .L55
 731 0006 9A42     		cmp	r2, r3
 732 0008 09D1     		bne	.L52
 454:Src/stm32f1xx_hal_msp.c ****   {
 455:Src/stm32f1xx_hal_msp.c ****   /* USER CODE BEGIN USART1_MspDeInit 0 */
 456:Src/stm32f1xx_hal_msp.c **** 
 457:Src/stm32f1xx_hal_msp.c ****   /* USER CODE END USART1_MspDeInit 0 */
 458:Src/stm32f1xx_hal_msp.c ****     /* Peripheral clock disable */
 459:Src/stm32f1xx_hal_msp.c ****     __HAL_RCC_USART1_CLK_DISABLE();
 733              		.loc 1 459 0
 734 000a 064A     		ldr	r2, .L55+4
 735 000c 9369     		ldr	r3, [r2, #24]
 736 000e 23F48043 		bic	r3, r3, #16384
 737 0012 9361     		str	r3, [r2, #24]
 460:Src/stm32f1xx_hal_msp.c ****   
 461:Src/stm32f1xx_hal_msp.c ****     /**USART1 GPIO Configuration    
 462:Src/stm32f1xx_hal_msp.c ****     PA9     ------> USART1_TX
 463:Src/stm32f1xx_hal_msp.c ****     PA10     ------> USART1_RX 
 464:Src/stm32f1xx_hal_msp.c ****     */
 465:Src/stm32f1xx_hal_msp.c ****     HAL_GPIO_DeInit(GPIOA, GPIO_PIN_9|GPIO_PIN_10);
 738              		.loc 1 465 0
 739 0014 4FF4C061 		mov	r1, #1536
 740 0018 0348     		ldr	r0, .L55+8
 741              	.LVL41:
 742 001a FFF7FEFF 		bl	HAL_GPIO_DeInit
 743              	.LVL42:
 744              	.L52:
 745 001e 08BD     		pop	{r3, pc}
 746              	.L56:
 747              		.align	2
 748              	.L55:
 749 0020 00380140 		.word	1073821696
 750 0024 00100240 		.word	1073876992
 751 0028 00080140 		.word	1073809408
 752              		.cfi_endproc
 753              	.LFE73:
ARM GAS  /var/folders/bp/f56jfl7x4ql_2mb87dhbknk40000gn/T//cc0yAegR.s 			page 22


 755              		.text
 756              	.Letext0:
 757              		.file 2 "/Users/msd/Downloads/gcc-arm-none-eabi-5_2-2015q4/arm-none-eabi/include/machine/_default_
 758              		.file 3 "/Users/msd/Downloads/gcc-arm-none-eabi-5_2-2015q4/arm-none-eabi/include/sys/_stdint.h"
 759              		.file 4 "Drivers/CMSIS/Device/ST/STM32F1xx/Include/stm32f103xb.h"
 760              		.file 5 "Drivers/STM32F1xx_HAL_Driver/Inc/stm32f1xx_hal_def.h"
 761              		.file 6 "Drivers/STM32F1xx_HAL_Driver/Inc/stm32f1xx_hal_gpio.h"
 762              		.file 7 "Drivers/STM32F1xx_HAL_Driver/Inc/stm32f1xx_hal_dma.h"
 763              		.file 8 "Drivers/STM32F1xx_HAL_Driver/Inc/stm32f1xx_hal_adc.h"
 764              		.file 9 "Drivers/STM32F1xx_HAL_Driver/Inc/stm32f1xx_hal_i2c.h"
 765              		.file 10 "Drivers/STM32F1xx_HAL_Driver/Inc/stm32f1xx_hal_spi.h"
 766              		.file 11 "Drivers/STM32F1xx_HAL_Driver/Inc/stm32f1xx_hal_tim.h"
 767              		.file 12 "Drivers/STM32F1xx_HAL_Driver/Inc/stm32f1xx_hal_uart.h"
 768              		.file 13 "Drivers/STM32F1xx_HAL_Driver/Inc/stm32f1xx_hal_cortex.h"
 769              		.file 14 "Drivers/CMSIS/Include/core_cm3.h"
ARM GAS  /var/folders/bp/f56jfl7x4ql_2mb87dhbknk40000gn/T//cc0yAegR.s 			page 23

