ARM GAS  /tmp/ccjgeshp.s 			page 1


   1              		.cpu cortex-m4
   2              		.eabi_attribute 27, 1
   3              		.eabi_attribute 28, 1
   4              		.eabi_attribute 20, 1
   5              		.eabi_attribute 21, 1
   6              		.eabi_attribute 23, 3
   7              		.eabi_attribute 24, 1
   8              		.eabi_attribute 25, 1
   9              		.eabi_attribute 26, 1
  10              		.eabi_attribute 30, 1
  11              		.eabi_attribute 34, 1
  12              		.eabi_attribute 18, 4
  13              		.file	"SPI.c"
  14              		.text
  15              	.Ltext0:
  16              		.cfi_sections	.debug_frame
  17              		.section	.text.SPI_Init,"ax",%progbits
  18              		.align	1
  19              		.global	SPI_Init
  20              		.arch armv7e-m
  21              		.syntax unified
  22              		.thumb
  23              		.thumb_func
  24              		.fpu fpv4-sp-d16
  26              	SPI_Init:
  27              	.LFB130:
  28              		.file 1 "Src/SPI.c"
   1:Src/SPI.c     **** //uint8_t SPIWrite();
   2:Src/SPI.c     **** 
   3:Src/SPI.c     **** #include "SPI.h"
   4:Src/SPI.c     **** 
   5:Src/SPI.c     **** SPI_HandleTypeDef SPIHandle;
   6:Src/SPI.c     **** 
   7:Src/SPI.c     **** void SPI_Init(void)
   8:Src/SPI.c     **** {
  29              		.loc 1 8 1 view -0
  30              		.cfi_startproc
  31              		@ args = 0, pretend = 0, frame = 0
  32              		@ frame_needed = 0, uses_anonymous_args = 0
  33 0000 08B5     		push	{r3, lr}
  34              	.LCFI0:
  35              		.cfi_def_cfa_offset 8
  36              		.cfi_offset 3, -8
  37              		.cfi_offset 14, -4
   9:Src/SPI.c     **** 
  10:Src/SPI.c     ****   SPIHandle.Instance = SPI1;
  38              		.loc 1 10 3 view .LVU1
  39              		.loc 1 10 22 is_stmt 0 view .LVU2
  40 0002 0D48     		ldr	r0, .L3
  41 0004 0D4B     		ldr	r3, .L3+4
  42 0006 0360     		str	r3, [r0]
  11:Src/SPI.c     ****   SPIHandle.Init.Mode = SPI_MODE_MASTER;
  43              		.loc 1 11 3 is_stmt 1 view .LVU3
  44              		.loc 1 11 23 is_stmt 0 view .LVU4
  45 0008 4FF48273 		mov	r3, #260
  46 000c 4360     		str	r3, [r0, #4]
  12:Src/SPI.c     ****   SPIHandle.Init.Direction = SPI_DIRECTION_2LINES;
ARM GAS  /tmp/ccjgeshp.s 			page 2


  47              		.loc 1 12 3 is_stmt 1 view .LVU5
  48              		.loc 1 12 28 is_stmt 0 view .LVU6
  49 000e 0023     		movs	r3, #0
  50 0010 8360     		str	r3, [r0, #8]
  13:Src/SPI.c     ****   SPIHandle.Init.DataSize = SPI_DATASIZE_8BIT;
  51              		.loc 1 13 3 is_stmt 1 view .LVU7
  52              		.loc 1 13 27 is_stmt 0 view .LVU8
  53 0012 C360     		str	r3, [r0, #12]
  14:Src/SPI.c     ****   SPIHandle.Init.CLKPolarity = SPI_POLARITY_HIGH;
  54              		.loc 1 14 3 is_stmt 1 view .LVU9
  55              		.loc 1 14 30 is_stmt 0 view .LVU10
  56 0014 0222     		movs	r2, #2
  57 0016 0261     		str	r2, [r0, #16]
  15:Src/SPI.c     ****   SPIHandle.Init.CLKPhase = SPI_PHASE_2EDGE;
  58              		.loc 1 15 3 is_stmt 1 view .LVU11
  59              		.loc 1 15 27 is_stmt 0 view .LVU12
  60 0018 0122     		movs	r2, #1
  61 001a 4261     		str	r2, [r0, #20]
  16:Src/SPI.c     ****   SPIHandle.Init.NSS = SPI_NSS_HARD_OUTPUT;
  62              		.loc 1 16 3 is_stmt 1 view .LVU13
  63              		.loc 1 16 22 is_stmt 0 view .LVU14
  64 001c 4FF48022 		mov	r2, #262144
  65 0020 8261     		str	r2, [r0, #24]
  17:Src/SPI.c     ****   SPIHandle.Init.BaudRatePrescaler = SPI_BAUDRATEPRESCALER_16;
  66              		.loc 1 17 3 is_stmt 1 view .LVU15
  67              		.loc 1 17 36 is_stmt 0 view .LVU16
  68 0022 1822     		movs	r2, #24
  69 0024 C261     		str	r2, [r0, #28]
  18:Src/SPI.c     ****   SPIHandle.Init.FirstBit = SPI_FIRSTBIT_MSB;
  70              		.loc 1 18 3 is_stmt 1 view .LVU17
  71              		.loc 1 18 27 is_stmt 0 view .LVU18
  72 0026 0362     		str	r3, [r0, #32]
  19:Src/SPI.c     ****   SPIHandle.Init.TIMode = SPI_TIMODE_DISABLE;
  73              		.loc 1 19 3 is_stmt 1 view .LVU19
  74              		.loc 1 19 25 is_stmt 0 view .LVU20
  75 0028 4362     		str	r3, [r0, #36]
  20:Src/SPI.c     ****   SPIHandle.Init.CRCCalculation = SPI_CRCCALCULATION_DISABLE;
  76              		.loc 1 20 3 is_stmt 1 view .LVU21
  77              		.loc 1 20 33 is_stmt 0 view .LVU22
  78 002a 8362     		str	r3, [r0, #40]
  21:Src/SPI.c     ****   SPIHandle.Init.CRCPolynomial = 10;
  79              		.loc 1 21 3 is_stmt 1 view .LVU23
  80              		.loc 1 21 32 is_stmt 0 view .LVU24
  81 002c 0A23     		movs	r3, #10
  82 002e C362     		str	r3, [r0, #44]
  22:Src/SPI.c     **** 
  23:Src/SPI.c     ****   HAL_SPI_Init(&SPIHandle);
  83              		.loc 1 23 3 is_stmt 1 view .LVU25
  84 0030 FFF7FEFF 		bl	HAL_SPI_Init
  85              	.LVL0:
  24:Src/SPI.c     **** 
  25:Src/SPI.c     **** }
  86              		.loc 1 25 1 is_stmt 0 view .LVU26
  87 0034 08BD     		pop	{r3, pc}
  88              	.L4:
  89 0036 00BF     		.align	2
  90              	.L3:
ARM GAS  /tmp/ccjgeshp.s 			page 3


  91 0038 00000000 		.word	SPIHandle
  92 003c 00300140 		.word	1073819648
  93              		.cfi_endproc
  94              	.LFE130:
  96              		.section	.text.SPIWrite,"ax",%progbits
  97              		.align	1
  98              		.global	SPIWrite
  99              		.syntax unified
 100              		.thumb
 101              		.thumb_func
 102              		.fpu fpv4-sp-d16
 104              	SPIWrite:
 105              	.LVL1:
 106              	.LFB131:
  26:Src/SPI.c     **** 
  27:Src/SPI.c     **** bool SPIWrite(uint8_t *writeBuffer, uint8_t totalBytes) {
 107              		.loc 1 27 57 is_stmt 1 view -0
 108              		.cfi_startproc
 109              		@ args = 0, pretend = 0, frame = 0
 110              		@ frame_needed = 1, uses_anonymous_args = 0
 111              		.loc 1 27 57 is_stmt 0 view .LVU28
 112 0000 F0B5     		push	{r4, r5, r6, r7, lr}
 113              	.LCFI1:
 114              		.cfi_def_cfa_offset 20
 115              		.cfi_offset 4, -20
 116              		.cfi_offset 5, -16
 117              		.cfi_offset 6, -12
 118              		.cfi_offset 7, -8
 119              		.cfi_offset 14, -4
 120 0002 83B0     		sub	sp, sp, #12
 121              	.LCFI2:
 122              		.cfi_def_cfa_offset 32
 123 0004 02AF     		add	r7, sp, #8
 124              	.LCFI3:
 125              		.cfi_def_cfa 7, 24
 126 0006 0546     		mov	r5, r0
 127 0008 0C46     		mov	r4, r1
  28:Src/SPI.c     **** 	
  29:Src/SPI.c     **** 	HAL_StatusTypeDef halReturnStatus;
 128              		.loc 1 29 2 is_stmt 1 view .LVU29
  30:Src/SPI.c     **** 	uint8_t readBuffer[totalBytes];
 129              		.loc 1 30 2 view .LVU30
 130              	.LVL2:
 131              		.loc 1 30 10 is_stmt 0 view .LVU31
 132 000a CB1D     		adds	r3, r1, #7
 133 000c 03F4FC73 		and	r3, r3, #504
 134 0010 ADEB030D 		sub	sp, sp, r3
 135 0014 02AE     		add	r6, sp, #8
 136              	.LVL3:
  31:Src/SPI.c     **** 	
  32:Src/SPI.c     **** 	HAL_GPIO_WritePin(GPIOA, GPIO_PIN_4, GPIO_PIN_RESET);
 137              		.loc 1 32 2 is_stmt 1 view .LVU32
 138 0016 0022     		movs	r2, #0
 139 0018 1021     		movs	r1, #16
 140              	.LVL4:
 141              		.loc 1 32 2 is_stmt 0 view .LVU33
 142 001a 0F48     		ldr	r0, .L8
ARM GAS  /tmp/ccjgeshp.s 			page 4


 143              	.LVL5:
 144              		.loc 1 32 2 view .LVU34
 145 001c FFF7FEFF 		bl	HAL_GPIO_WritePin
 146              	.LVL6:
  33:Src/SPI.c     **** 	halReturnStatus = HAL_SPI_TransmitReceive(&SPIHandle, writeBuffer, readBuffer, totalBytes, 1000);
 147              		.loc 1 33 2 is_stmt 1 view .LVU35
 148              		.loc 1 33 20 is_stmt 0 view .LVU36
 149 0020 4FF47A73 		mov	r3, #1000
 150 0024 0093     		str	r3, [sp]
 151 0026 2346     		mov	r3, r4
 152 0028 3246     		mov	r2, r6
 153 002a 2946     		mov	r1, r5
 154 002c 0B48     		ldr	r0, .L8+4
 155 002e FFF7FEFF 		bl	HAL_SPI_TransmitReceive
 156              	.LVL7:
 157 0032 0446     		mov	r4, r0
 158              	.LVL8:
  34:Src/SPI.c     **** 	while( SPIHandle.State == HAL_SPI_STATE_BUSY );  // wait xmission complete
 159              		.loc 1 34 2 is_stmt 1 view .LVU37
 160              	.L6:
 161              		.loc 1 34 48 discriminator 1 view .LVU38
 162              		.loc 1 34 18 is_stmt 0 discriminator 1 view .LVU39
 163 0034 094B     		ldr	r3, .L8+4
 164 0036 93F85130 		ldrb	r3, [r3, #81]	@ zero_extendqisi2
 165 003a DBB2     		uxtb	r3, r3
 166              		.loc 1 34 7 discriminator 1 view .LVU40
 167 003c 022B     		cmp	r3, #2
 168 003e F9D0     		beq	.L6
  35:Src/SPI.c     **** 	HAL_GPIO_WritePin(GPIOA, GPIO_PIN_4, GPIO_PIN_SET);
 169              		.loc 1 35 2 is_stmt 1 view .LVU41
 170 0040 0122     		movs	r2, #1
 171 0042 1021     		movs	r1, #16
 172 0044 0448     		ldr	r0, .L8
 173 0046 FFF7FEFF 		bl	HAL_GPIO_WritePin
 174              	.LVL9:
  36:Src/SPI.c     **** 	
  37:Src/SPI.c     **** 	return(halReturnStatus == HAL_OK);
 175              		.loc 1 37 2 view .LVU42
  38:Src/SPI.c     **** };
 176              		.loc 1 38 1 is_stmt 0 view .LVU43
 177 004a B4FA84F0 		clz	r0, r4
 178 004e 4009     		lsrs	r0, r0, #5
 179 0050 0437     		adds	r7, r7, #4
 180              	.LCFI4:
 181              		.cfi_def_cfa_offset 20
 182 0052 BD46     		mov	sp, r7
 183              	.LCFI5:
 184              		.cfi_def_cfa_register 13
 185              		@ sp needed
 186 0054 F0BD     		pop	{r4, r5, r6, r7, pc}
 187              	.LVL10:
 188              	.L9:
 189              		.loc 1 38 1 view .LVU44
 190 0056 00BF     		.align	2
 191              	.L8:
 192 0058 00000240 		.word	1073872896
 193 005c 00000000 		.word	SPIHandle
ARM GAS  /tmp/ccjgeshp.s 			page 5


 194              		.cfi_endproc
 195              	.LFE131:
 197              		.section	.text.SPIWriteRead,"ax",%progbits
 198              		.align	1
 199              		.global	SPIWriteRead
 200              		.syntax unified
 201              		.thumb
 202              		.thumb_func
 203              		.fpu fpv4-sp-d16
 205              	SPIWriteRead:
 206              	.LVL11:
 207              	.LFB132:
  39:Src/SPI.c     **** 
  40:Src/SPI.c     **** bool SPIWriteRead(uint8_t *writeBuffer, uint8_t *readBuffer, uint8_t totalBytes) {
 208              		.loc 1 40 82 is_stmt 1 view -0
 209              		.cfi_startproc
 210              		@ args = 0, pretend = 0, frame = 0
 211              		@ frame_needed = 0, uses_anonymous_args = 0
 212              		.loc 1 40 82 is_stmt 0 view .LVU46
 213 0000 70B5     		push	{r4, r5, r6, lr}
 214              	.LCFI6:
 215              		.cfi_def_cfa_offset 16
 216              		.cfi_offset 4, -16
 217              		.cfi_offset 5, -12
 218              		.cfi_offset 6, -8
 219              		.cfi_offset 14, -4
 220 0002 82B0     		sub	sp, sp, #8
 221              	.LCFI7:
 222              		.cfi_def_cfa_offset 24
 223 0004 0446     		mov	r4, r0
 224 0006 0D46     		mov	r5, r1
 225 0008 1646     		mov	r6, r2
  41:Src/SPI.c     **** 	
  42:Src/SPI.c     **** 	HAL_StatusTypeDef halReturnStatus;
 226              		.loc 1 42 2 is_stmt 1 view .LVU47
  43:Src/SPI.c     **** 	
  44:Src/SPI.c     **** 	HAL_GPIO_WritePin(GPIOA, GPIO_PIN_4, GPIO_PIN_RESET);
 227              		.loc 1 44 2 view .LVU48
 228 000a 0022     		movs	r2, #0
 229              	.LVL12:
 230              		.loc 1 44 2 is_stmt 0 view .LVU49
 231 000c 1021     		movs	r1, #16
 232              	.LVL13:
 233              		.loc 1 44 2 view .LVU50
 234 000e 0E48     		ldr	r0, .L13
 235              	.LVL14:
 236              		.loc 1 44 2 view .LVU51
 237 0010 FFF7FEFF 		bl	HAL_GPIO_WritePin
 238              	.LVL15:
  45:Src/SPI.c     **** 	halReturnStatus = HAL_SPI_TransmitReceive(&SPIHandle, writeBuffer, readBuffer, totalBytes, 1000);
 239              		.loc 1 45 2 is_stmt 1 view .LVU52
 240              		.loc 1 45 20 is_stmt 0 view .LVU53
 241 0014 4FF47A73 		mov	r3, #1000
 242 0018 0093     		str	r3, [sp]
 243 001a 3346     		mov	r3, r6
 244 001c 2A46     		mov	r2, r5
 245 001e 2146     		mov	r1, r4
ARM GAS  /tmp/ccjgeshp.s 			page 6


 246 0020 0A48     		ldr	r0, .L13+4
 247 0022 FFF7FEFF 		bl	HAL_SPI_TransmitReceive
 248              	.LVL16:
 249 0026 0446     		mov	r4, r0
 250              	.LVL17:
  46:Src/SPI.c     **** 	while( SPIHandle.State == HAL_SPI_STATE_BUSY );  // wait xmission complete
 251              		.loc 1 46 2 is_stmt 1 view .LVU54
 252              	.L11:
 253              		.loc 1 46 48 discriminator 1 view .LVU55
 254              		.loc 1 46 18 is_stmt 0 discriminator 1 view .LVU56
 255 0028 084B     		ldr	r3, .L13+4
 256 002a 93F85130 		ldrb	r3, [r3, #81]	@ zero_extendqisi2
 257 002e DBB2     		uxtb	r3, r3
 258              		.loc 1 46 7 discriminator 1 view .LVU57
 259 0030 022B     		cmp	r3, #2
 260 0032 F9D0     		beq	.L11
  47:Src/SPI.c     **** 	HAL_GPIO_WritePin(GPIOA, GPIO_PIN_4, GPIO_PIN_SET);
 261              		.loc 1 47 2 is_stmt 1 view .LVU58
 262 0034 0122     		movs	r2, #1
 263 0036 1021     		movs	r1, #16
 264 0038 0348     		ldr	r0, .L13
 265 003a FFF7FEFF 		bl	HAL_GPIO_WritePin
 266              	.LVL18:
  48:Src/SPI.c     **** 	
  49:Src/SPI.c     **** 	return(halReturnStatus == HAL_OK);
 267              		.loc 1 49 2 view .LVU59
  50:Src/SPI.c     **** };...
 268              		.loc 1 50 1 is_stmt 0 view .LVU60
 269 003e B4FA84F0 		clz	r0, r4
 270 0042 4009     		lsrs	r0, r0, #5
 271 0044 02B0     		add	sp, sp, #8
 272              	.LCFI8:
 273              		.cfi_def_cfa_offset 16
 274              		@ sp needed
 275 0046 70BD     		pop	{r4, r5, r6, pc}
 276              	.LVL19:
 277              	.L14:
 278              		.loc 1 50 1 view .LVU61
 279              		.align	2
 280              	.L13:
 281 0048 00000240 		.word	1073872896
 282 004c 00000000 		.word	SPIHandle
 283              		.cfi_endproc
 284              	.LFE132:
 286              		.comm	SPIHandle,88,4
 287              		.text
 288              	.Letext0:
 289              		.file 2 "/mnt/c/Users/evanc/Documents/IFE/gcc-arm-none-eabi-8-2018-q4-major/arm-none-eabi/include/
 290              		.file 3 "/mnt/c/Users/evanc/Documents/IFE/gcc-arm-none-eabi-8-2018-q4-major/arm-none-eabi/include/
 291              		.file 4 "Drivers/CMSIS/Include/core_cm4.h"
 292              		.file 5 "Drivers/CMSIS/Device/ST/STM32F4xx/Include/system_stm32f4xx.h"
 293              		.file 6 "Drivers/CMSIS/Device/ST/STM32F4xx/Include/stm32f446xx.h"
 294              		.file 7 "Drivers/STM32F4xx_HAL_Driver/Inc/stm32f4xx_hal_def.h"
 295              		.file 8 "Drivers/STM32F4xx_HAL_Driver/Inc/stm32f4xx_hal_gpio.h"
 296              		.file 9 "Drivers/STM32F4xx_HAL_Driver/Inc/stm32f4xx_hal_dma.h"
 297              		.file 10 "Drivers/STM32F4xx_HAL_Driver/Inc/stm32f4xx_hal_spi.h"
 298              		.file 11 "/mnt/c/Users/evanc/Documents/IFE/gcc-arm-none-eabi-8-2018-q4-major/arm-none-eabi/include
ARM GAS  /tmp/ccjgeshp.s 			page 7


 299              		.file 12 "/mnt/c/Users/evanc/Documents/IFE/gcc-arm-none-eabi-8-2018-q4-major/arm-none-eabi/include
 300              		.file 13 "/mnt/c/Users/evanc/Documents/IFE/gcc-arm-none-eabi-8-2018-q4-major/lib/gcc/arm-none-eabi
 301              		.file 14 "/mnt/c/Users/evanc/Documents/IFE/gcc-arm-none-eabi-8-2018-q4-major/arm-none-eabi/include
 302              		.file 15 "/mnt/c/Users/evanc/Documents/IFE/gcc-arm-none-eabi-8-2018-q4-major/arm-none-eabi/include
ARM GAS  /tmp/ccjgeshp.s 			page 8

