ARM GAS  /tmp/ccMCacDa.s 			page 1


   1              		.cpu cortex-m3
   2              		.eabi_attribute 20, 1
   3              		.eabi_attribute 21, 1
   4              		.eabi_attribute 23, 3
   5              		.eabi_attribute 24, 1
   6              		.eabi_attribute 25, 1
   7              		.eabi_attribute 26, 1
   8              		.eabi_attribute 30, 1
   9              		.eabi_attribute 34, 1
  10              		.eabi_attribute 18, 4
  11              		.file	"LTC681x.c"
  12              		.text
  13              	.Ltext0:
  14              		.cfi_sections	.debug_frame
  15              		.section	.text.wakeup_idle,"ax",%progbits
  16              		.align	1
  17              		.global	wakeup_idle
  18              		.syntax unified
  19              		.thumb
  20              		.thumb_func
  21              		.fpu softvfp
  23              	wakeup_idle:
  24              	.LFB0:
  25              		.file 1 "Drivers/LTC681x/LTC681x.c"
   1:Drivers/LTC681x/LTC681x.c **** /***************************************************************************//**
   2:Drivers/LTC681x/LTC681x.c **** *   @file     LTC681x.cpp  
   3:Drivers/LTC681x/LTC681x.c **** *   @author BMS (bms.support@analog.com)
   4:Drivers/LTC681x/LTC681x.c **** 
   5:Drivers/LTC681x/LTC681x.c **** REVISION HISTORY
   6:Drivers/LTC681x/LTC681x.c **** $Revision: 1.0 $
   7:Drivers/LTC681x/LTC681x.c **** $Date: 2018-11 $
   8:Drivers/LTC681x/LTC681x.c **** ********************************************************************************
   9:Drivers/LTC681x/LTC681x.c **** * Copyright 2018(c) Analog Devices, Inc.
  10:Drivers/LTC681x/LTC681x.c **** *
  11:Drivers/LTC681x/LTC681x.c **** * All rights reserved.
  12:Drivers/LTC681x/LTC681x.c **** *
  13:Drivers/LTC681x/LTC681x.c **** * Redistribution and use in source and binary forms, with or without
  14:Drivers/LTC681x/LTC681x.c **** * modification, are permitted provided that the following conditions are met:
  15:Drivers/LTC681x/LTC681x.c **** *  - Redistributions of source code must retain the above copyright
  16:Drivers/LTC681x/LTC681x.c **** *    notice, this list of conditions and the following disclaimer.
  17:Drivers/LTC681x/LTC681x.c **** *  - Redistributions in binary form must reproduce the above copyright
  18:Drivers/LTC681x/LTC681x.c **** *    notice, this list of conditions and the following disclaimer in
  19:Drivers/LTC681x/LTC681x.c **** *    the documentation and/or other materials provided with the
  20:Drivers/LTC681x/LTC681x.c **** *    distribution.
  21:Drivers/LTC681x/LTC681x.c **** *  - Neither the name of Analog Devices, Inc. nor the names of its
  22:Drivers/LTC681x/LTC681x.c **** *    contributors may be used to endorse or promote products derived
  23:Drivers/LTC681x/LTC681x.c **** *    from this software without specific prior written permission.
  24:Drivers/LTC681x/LTC681x.c **** *  - The use of this software may or may not infringe the patent rights
  25:Drivers/LTC681x/LTC681x.c **** *    of one or more patent holders.  This license does not release you
  26:Drivers/LTC681x/LTC681x.c **** *    from the requirement that you obtain separate licenses from these
  27:Drivers/LTC681x/LTC681x.c **** *    patent holders to use this software.
  28:Drivers/LTC681x/LTC681x.c **** *  - Use of the software either in source or binary form, must be run
  29:Drivers/LTC681x/LTC681x.c **** *    on or directly connected to an Analog Devices Inc. component.
  30:Drivers/LTC681x/LTC681x.c **** *
  31:Drivers/LTC681x/LTC681x.c **** * THIS SOFTWARE IS PROVIDED BY ANALOG DEVICES "AS IS" AND ANY EXPRESS OR
  32:Drivers/LTC681x/LTC681x.c **** * IMPLIED WARRANTIES, INCLUDING, BUT NOT LIMITED TO, NON-INFRINGEMENT,
  33:Drivers/LTC681x/LTC681x.c **** * MERCHANTABILITY AND FITNESS FOR A PARTICULAR PURPOSE ARE DISCLAIMED.
ARM GAS  /tmp/ccMCacDa.s 			page 2


  34:Drivers/LTC681x/LTC681x.c **** * IN NO EVENT SHALL ANALOG DEVICES BE LIABLE FOR ANY DIRECT, INDIRECT,
  35:Drivers/LTC681x/LTC681x.c **** * INCIDENTAL, SPECIAL, EXEMPLARY, OR CONSEQUENTIAL DAMAGES (INCLUDING, BUT NOT
  36:Drivers/LTC681x/LTC681x.c **** * LIMITED TO, INTELLECTUAL PROPERTY RIGHTS, PROCUREMENT OF SUBSTITUTE GOODS OR
  37:Drivers/LTC681x/LTC681x.c **** * SERVICES; LOSS OF USE, DATA, OR PROFITS; OR BUSINESS INTERRUPTION) HOWEVER
  38:Drivers/LTC681x/LTC681x.c **** * CAUSED AND ON ANY THEORY OF LIABILITY, WHETHER IN CONTRACT, STRICT LIABILITY,
  39:Drivers/LTC681x/LTC681x.c **** * OR TORT (INCLUDING NEGLIGENCE OR OTHERWISE) ARISING IN ANY WAY OUT OF THE USE
  40:Drivers/LTC681x/LTC681x.c **** * OF THIS SOFTWARE, EVEN IF ADVISED OF THE POSSIBILITY OF SUCH DAMAGE.
  41:Drivers/LTC681x/LTC681x.c **** *******************************************************************************/
  42:Drivers/LTC681x/LTC681x.c **** 
  43:Drivers/LTC681x/LTC681x.c **** /*! @file
  44:Drivers/LTC681x/LTC681x.c ****     Library for LTC681x Multi-cell Battery Monitor
  45:Drivers/LTC681x/LTC681x.c **** */
  46:Drivers/LTC681x/LTC681x.c **** 
  47:Drivers/LTC681x/LTC681x.c **** #include <stdint.h>
  48:Drivers/LTC681x/LTC681x.c **** #include <stdbool.h>
  49:Drivers/LTC681x/LTC681x.c **** #include "LTC681x.h"
  50:Drivers/LTC681x/LTC681x.c **** #include "bms_hardware.h"
  51:Drivers/LTC681x/LTC681x.c **** 
  52:Drivers/LTC681x/LTC681x.c **** 
  53:Drivers/LTC681x/LTC681x.c **** #ifdef LINDUINO
  54:Drivers/LTC681x/LTC681x.c **** #include <Arduino.h>
  55:Drivers/LTC681x/LTC681x.c **** #endif
  56:Drivers/LTC681x/LTC681x.c **** 
  57:Drivers/LTC681x/LTC681x.c **** //Wake isoSPI up from idle state 
  58:Drivers/LTC681x/LTC681x.c **** void wakeup_idle(uint8_t total_ic)
  59:Drivers/LTC681x/LTC681x.c **** {
  26              		.loc 1 59 0
  27              		.cfi_startproc
  28              		@ args = 0, pretend = 0, frame = 0
  29              		@ frame_needed = 0, uses_anonymous_args = 0
  30              	.LVL0:
  31 0000 38B5     		push	{r3, r4, r5, lr}
  32              	.LCFI0:
  33              		.cfi_def_cfa_offset 16
  34              		.cfi_offset 3, -16
  35              		.cfi_offset 4, -12
  36              		.cfi_offset 5, -8
  37              		.cfi_offset 14, -4
  38 0002 0546     		mov	r5, r0
  39              	.LVL1:
  40              	.LBB2:
  60:Drivers/LTC681x/LTC681x.c ****   for (int i =0; i<total_ic; i++)
  41              		.loc 1 60 0
  42 0004 0024     		movs	r4, #0
  43 0006 09E0     		b	.L2
  44              	.LVL2:
  45              	.L3:
  61:Drivers/LTC681x/LTC681x.c ****   {
  62:Drivers/LTC681x/LTC681x.c ****     cs_low(CS_PIN);
  46              		.loc 1 62 0 discriminator 3
  47 0008 0A20     		movs	r0, #10
  48 000a FFF7FEFF 		bl	cs_low
  49              	.LVL3:
  63:Drivers/LTC681x/LTC681x.c ****     spi_read_byte(0xff);//Guarantees the isoSPI will be in ready mode
  50              		.loc 1 63 0 discriminator 3
  51 000e FF20     		movs	r0, #255
  52 0010 FFF7FEFF 		bl	spi_read_byte
ARM GAS  /tmp/ccMCacDa.s 			page 3


  53              	.LVL4:
  64:Drivers/LTC681x/LTC681x.c ****     cs_high(CS_PIN);
  54              		.loc 1 64 0 discriminator 3
  55 0014 0A20     		movs	r0, #10
  56 0016 FFF7FEFF 		bl	cs_high
  57              	.LVL5:
  60:Drivers/LTC681x/LTC681x.c ****   {
  58              		.loc 1 60 0 discriminator 3
  59 001a 0134     		adds	r4, r4, #1
  60              	.LVL6:
  61              	.L2:
  60:Drivers/LTC681x/LTC681x.c ****   {
  62              		.loc 1 60 0 is_stmt 0 discriminator 1
  63 001c A542     		cmp	r5, r4
  64 001e F3DC     		bgt	.L3
  65              	.LBE2:
  65:Drivers/LTC681x/LTC681x.c ****   }
  66:Drivers/LTC681x/LTC681x.c **** }
  66              		.loc 1 66 0 is_stmt 1
  67 0020 38BD     		pop	{r3, r4, r5, pc}
  68              		.cfi_endproc
  69              	.LFE0:
  71              		.section	.text.wakeup_sleep,"ax",%progbits
  72              		.align	1
  73              		.global	wakeup_sleep
  74              		.syntax unified
  75              		.thumb
  76              		.thumb_func
  77              		.fpu softvfp
  79              	wakeup_sleep:
  80              	.LFB1:
  67:Drivers/LTC681x/LTC681x.c **** 
  68:Drivers/LTC681x/LTC681x.c **** //Generic wakeup command to wake the LTC681x from sleep
  69:Drivers/LTC681x/LTC681x.c **** void wakeup_sleep(uint8_t total_ic)
  70:Drivers/LTC681x/LTC681x.c **** {
  81              		.loc 1 70 0
  82              		.cfi_startproc
  83              		@ args = 0, pretend = 0, frame = 0
  84              		@ frame_needed = 0, uses_anonymous_args = 0
  85              	.LVL7:
  86 0000 38B5     		push	{r3, r4, r5, lr}
  87              	.LCFI1:
  88              		.cfi_def_cfa_offset 16
  89              		.cfi_offset 3, -16
  90              		.cfi_offset 4, -12
  91              		.cfi_offset 5, -8
  92              		.cfi_offset 14, -4
  93 0002 0546     		mov	r5, r0
  94              	.LVL8:
  95              	.LBB3:
  71:Drivers/LTC681x/LTC681x.c ****   for (int i =0; i<total_ic; i++)
  96              		.loc 1 71 0
  97 0004 0024     		movs	r4, #0
  98 0006 0DE0     		b	.L6
  99              	.LVL9:
 100              	.L7:
  72:Drivers/LTC681x/LTC681x.c ****   {
ARM GAS  /tmp/ccMCacDa.s 			page 4


  73:Drivers/LTC681x/LTC681x.c **** 	cs_low(CS_PIN);
 101              		.loc 1 73 0 discriminator 3
 102 0008 0A20     		movs	r0, #10
 103 000a FFF7FEFF 		bl	cs_low
 104              	.LVL10:
  74:Drivers/LTC681x/LTC681x.c **** 	delay_u(300); // Guarantees the LTC681x will be in standby
 105              		.loc 1 74 0 discriminator 3
 106 000e 4FF49670 		mov	r0, #300
 107 0012 FFF7FEFF 		bl	delay_u
 108              	.LVL11:
  75:Drivers/LTC681x/LTC681x.c **** 	cs_high(CS_PIN);
 109              		.loc 1 75 0 discriminator 3
 110 0016 0A20     		movs	r0, #10
 111 0018 FFF7FEFF 		bl	cs_high
 112              	.LVL12:
  76:Drivers/LTC681x/LTC681x.c **** 	delay_u(10);
 113              		.loc 1 76 0 discriminator 3
 114 001c 0A20     		movs	r0, #10
 115 001e FFF7FEFF 		bl	delay_u
 116              	.LVL13:
  71:Drivers/LTC681x/LTC681x.c ****   {
 117              		.loc 1 71 0 discriminator 3
 118 0022 0134     		adds	r4, r4, #1
 119              	.LVL14:
 120              	.L6:
  71:Drivers/LTC681x/LTC681x.c ****   {
 121              		.loc 1 71 0 is_stmt 0 discriminator 1
 122 0024 A542     		cmp	r5, r4
 123 0026 EFDC     		bgt	.L7
 124              	.LBE3:
  77:Drivers/LTC681x/LTC681x.c ****   }
  78:Drivers/LTC681x/LTC681x.c **** }
 125              		.loc 1 78 0 is_stmt 1
 126 0028 38BD     		pop	{r3, r4, r5, pc}
 127              		.cfi_endproc
 128              	.LFE1:
 130              		.section	.text.pec15_calc,"ax",%progbits
 131              		.align	1
 132              		.global	pec15_calc
 133              		.syntax unified
 134              		.thumb
 135              		.thumb_func
 136              		.fpu softvfp
 138              	pec15_calc:
 139              	.LFB5:
  79:Drivers/LTC681x/LTC681x.c **** 
  80:Drivers/LTC681x/LTC681x.c **** //Generic function to write 68xx commands. Function calculated PEC for tx_cmd data
  81:Drivers/LTC681x/LTC681x.c **** void cmd_68(uint8_t tx_cmd[2])
  82:Drivers/LTC681x/LTC681x.c **** {
  83:Drivers/LTC681x/LTC681x.c **** 	uint8_t cmd[4];
  84:Drivers/LTC681x/LTC681x.c **** 	uint16_t cmd_pec;
  85:Drivers/LTC681x/LTC681x.c **** 	uint8_t md_bits;
  86:Drivers/LTC681x/LTC681x.c **** 	cmd[0] = tx_cmd[0];
  87:Drivers/LTC681x/LTC681x.c **** 	cmd[1] =  tx_cmd[1];
  88:Drivers/LTC681x/LTC681x.c **** 	cmd_pec = pec15_calc(2, cmd);
  89:Drivers/LTC681x/LTC681x.c **** 	cmd[2] = (uint8_t)(cmd_pec >> 8);
  90:Drivers/LTC681x/LTC681x.c **** 	cmd[3] = (uint8_t)(cmd_pec);
ARM GAS  /tmp/ccMCacDa.s 			page 5


  91:Drivers/LTC681x/LTC681x.c **** 	cs_low(CS_PIN);
  92:Drivers/LTC681x/LTC681x.c **** 	spi_write_array(4,cmd);
  93:Drivers/LTC681x/LTC681x.c **** 	cs_high(CS_PIN);
  94:Drivers/LTC681x/LTC681x.c **** }
  95:Drivers/LTC681x/LTC681x.c **** 
  96:Drivers/LTC681x/LTC681x.c **** //Generic function to write 68xx commands and write payload data. Function calculated PEC for tx_cm
  97:Drivers/LTC681x/LTC681x.c **** void write_68(uint8_t total_ic, 
  98:Drivers/LTC681x/LTC681x.c **** 			  uint8_t tx_cmd[2], 
  99:Drivers/LTC681x/LTC681x.c **** 			  uint8_t data[])
 100:Drivers/LTC681x/LTC681x.c **** {
 101:Drivers/LTC681x/LTC681x.c **** 	const uint8_t BYTES_IN_REG = 6;
 102:Drivers/LTC681x/LTC681x.c **** 	const uint8_t CMD_LEN = 4+(8*total_ic);
 103:Drivers/LTC681x/LTC681x.c **** 	uint8_t *cmd;
 104:Drivers/LTC681x/LTC681x.c **** 	uint16_t data_pec;
 105:Drivers/LTC681x/LTC681x.c **** 	uint16_t cmd_pec;
 106:Drivers/LTC681x/LTC681x.c **** 	uint8_t cmd_index;
 107:Drivers/LTC681x/LTC681x.c **** 	cmd = (uint8_t *)malloc(CMD_LEN*sizeof(uint8_t));
 108:Drivers/LTC681x/LTC681x.c **** 	cmd[0] = tx_cmd[0];
 109:Drivers/LTC681x/LTC681x.c **** 	cmd[1] = tx_cmd[1];
 110:Drivers/LTC681x/LTC681x.c **** 	cmd_pec = pec15_calc(2, cmd);
 111:Drivers/LTC681x/LTC681x.c **** 	cmd[2] = (uint8_t)(cmd_pec >> 8);
 112:Drivers/LTC681x/LTC681x.c **** 	cmd[3] = (uint8_t)(cmd_pec);
 113:Drivers/LTC681x/LTC681x.c **** 	cmd_index = 4;
 114:Drivers/LTC681x/LTC681x.c **** 	for (uint8_t current_ic = total_ic; current_ic > 0; current_ic--)       // executes for each LTC68
 115:Drivers/LTC681x/LTC681x.c ****     {	                                                                   //The first configuration 
 116:Drivers/LTC681x/LTC681x.c **** 
 117:Drivers/LTC681x/LTC681x.c **** 		for (uint8_t current_byte = 0; current_byte < BYTES_IN_REG; current_byte++)
 118:Drivers/LTC681x/LTC681x.c **** 		{
 119:Drivers/LTC681x/LTC681x.c **** 			cmd[cmd_index] = data[((current_ic-1)*6)+current_byte];
 120:Drivers/LTC681x/LTC681x.c **** 			cmd_index = cmd_index + 1;
 121:Drivers/LTC681x/LTC681x.c **** 		}
 122:Drivers/LTC681x/LTC681x.c **** 		data_pec = (uint16_t)pec15_calc(BYTES_IN_REG, &data[(current_ic-1)*6]);    // calculating the PEC
 123:Drivers/LTC681x/LTC681x.c **** 		cmd[cmd_index] = (uint8_t)(data_pec >> 8);
 124:Drivers/LTC681x/LTC681x.c **** 		cmd[cmd_index + 1] = (uint8_t)data_pec;
 125:Drivers/LTC681x/LTC681x.c **** 		cmd_index = cmd_index + 2;
 126:Drivers/LTC681x/LTC681x.c **** 	}
 127:Drivers/LTC681x/LTC681x.c **** 	cs_low(CS_PIN);
 128:Drivers/LTC681x/LTC681x.c **** 	spi_write_array(CMD_LEN, cmd);
 129:Drivers/LTC681x/LTC681x.c **** 	cs_high(CS_PIN);
 130:Drivers/LTC681x/LTC681x.c **** 	free(cmd);
 131:Drivers/LTC681x/LTC681x.c **** }
 132:Drivers/LTC681x/LTC681x.c **** 
 133:Drivers/LTC681x/LTC681x.c **** //Generic function to write 68xx commands and read data. Function calculated PEC for tx_cmd data
 134:Drivers/LTC681x/LTC681x.c **** int8_t read_68( uint8_t total_ic, 
 135:Drivers/LTC681x/LTC681x.c **** 				uint8_t tx_cmd[2], 
 136:Drivers/LTC681x/LTC681x.c **** 				uint8_t *rx_data)
 137:Drivers/LTC681x/LTC681x.c **** {
 138:Drivers/LTC681x/LTC681x.c **** 	const uint8_t BYTES_IN_REG = 8;
 139:Drivers/LTC681x/LTC681x.c **** 	uint8_t cmd[4];
 140:Drivers/LTC681x/LTC681x.c **** 	uint8_t data[256];
 141:Drivers/LTC681x/LTC681x.c **** 	int8_t pec_error = 0;
 142:Drivers/LTC681x/LTC681x.c **** 	uint16_t cmd_pec;
 143:Drivers/LTC681x/LTC681x.c **** 	uint16_t data_pec;
 144:Drivers/LTC681x/LTC681x.c **** 	uint16_t received_pec;
 145:Drivers/LTC681x/LTC681x.c **** 	cmd[0] = tx_cmd[0];
 146:Drivers/LTC681x/LTC681x.c **** 	cmd[1] = tx_cmd[1];
 147:Drivers/LTC681x/LTC681x.c **** 	cmd_pec = pec15_calc(2, cmd);
ARM GAS  /tmp/ccMCacDa.s 			page 6


 148:Drivers/LTC681x/LTC681x.c **** 	cmd[2] = (uint8_t)(cmd_pec >> 8);
 149:Drivers/LTC681x/LTC681x.c **** 	cmd[3] = (uint8_t)(cmd_pec);
 150:Drivers/LTC681x/LTC681x.c **** 	cs_low(CS_PIN);
 151:Drivers/LTC681x/LTC681x.c **** 	spi_write_read(cmd, 4, data, (BYTES_IN_REG*total_ic));         //Read the configuration data of al
 152:Drivers/LTC681x/LTC681x.c **** 	cs_high(CS_PIN);                                         
 153:Drivers/LTC681x/LTC681x.c **** 
 154:Drivers/LTC681x/LTC681x.c **** 	for (uint8_t current_ic = 0; current_ic < total_ic; current_ic++) //executes for each LTC681x in t
 155:Drivers/LTC681x/LTC681x.c **** 	{																//into the r_comm array as well as check the received data for any bit errors
 156:Drivers/LTC681x/LTC681x.c **** 		for (uint8_t current_byte = 0; current_byte < BYTES_IN_REG; current_byte++)
 157:Drivers/LTC681x/LTC681x.c **** 		{
 158:Drivers/LTC681x/LTC681x.c **** 			rx_data[(current_ic*8)+current_byte] = data[current_byte + (current_ic*BYTES_IN_REG)];
 159:Drivers/LTC681x/LTC681x.c **** 		}
 160:Drivers/LTC681x/LTC681x.c **** 		received_pec = (rx_data[(current_ic*8)+6]<<8) + rx_data[(current_ic*8)+7];
 161:Drivers/LTC681x/LTC681x.c **** 		data_pec = pec15_calc(6, &rx_data[current_ic*8]);
 162:Drivers/LTC681x/LTC681x.c **** 		if (received_pec != data_pec)
 163:Drivers/LTC681x/LTC681x.c **** 		{
 164:Drivers/LTC681x/LTC681x.c **** 		  pec_error = -1;
 165:Drivers/LTC681x/LTC681x.c **** 		}
 166:Drivers/LTC681x/LTC681x.c **** 	}
 167:Drivers/LTC681x/LTC681x.c **** 	return(pec_error);
 168:Drivers/LTC681x/LTC681x.c **** }
 169:Drivers/LTC681x/LTC681x.c **** 
 170:Drivers/LTC681x/LTC681x.c **** //Calculates  and returns the CRC15 
 171:Drivers/LTC681x/LTC681x.c **** uint16_t pec15_calc(uint8_t len, //Number of bytes that will be used to calculate a PEC
 172:Drivers/LTC681x/LTC681x.c ****                     uint8_t *data //Array of data that will be used to calculate  a PEC
 173:Drivers/LTC681x/LTC681x.c ****                    )
 174:Drivers/LTC681x/LTC681x.c **** {
 140              		.loc 1 174 0
 141              		.cfi_startproc
 142              		@ args = 0, pretend = 0, frame = 0
 143              		@ frame_needed = 0, uses_anonymous_args = 0
 144              	.LVL15:
 145 0000 F8B5     		push	{r3, r4, r5, r6, r7, lr}
 146              	.LCFI2:
 147              		.cfi_def_cfa_offset 24
 148              		.cfi_offset 3, -24
 149              		.cfi_offset 4, -20
 150              		.cfi_offset 5, -16
 151              		.cfi_offset 6, -12
 152              		.cfi_offset 7, -8
 153              		.cfi_offset 14, -4
 154 0002 0646     		mov	r6, r0
 155 0004 0F46     		mov	r7, r1
 156              	.LVL16:
 157              	.LBB4:
 175:Drivers/LTC681x/LTC681x.c **** 	uint16_t remainder,addr;
 176:Drivers/LTC681x/LTC681x.c **** 	remainder = 16;//initialize the PEC
 177:Drivers/LTC681x/LTC681x.c **** 	for (uint8_t i = 0; i<len; i++) // loops for each byte in data array
 158              		.loc 1 177 0
 159 0006 0025     		movs	r5, #0
 160              	.LBE4:
 176:Drivers/LTC681x/LTC681x.c **** 	for (uint8_t i = 0; i<len; i++) // loops for each byte in data array
 161              		.loc 1 176 0
 162 0008 1023     		movs	r3, #16
 163              	.LBB6:
 164              		.loc 1 177 0
 165 000a 0EE0     		b	.L10
ARM GAS  /tmp/ccMCacDa.s 			page 7


 166              	.LVL17:
 167              	.L11:
 168              	.LBB5:
 178:Drivers/LTC681x/LTC681x.c **** 	{
 179:Drivers/LTC681x/LTC681x.c **** 	addr = ((remainder>>7)^data[i])&0xff;//calculate PEC table address
 169              		.loc 1 179 0 discriminator 3
 170 000c 7A5D     		ldrb	r2, [r7, r5]	@ zero_extendqisi2
 171 000e 82EAD312 		eor	r2, r2, r3, lsr #7
 172 0012 D2B2     		uxtb	r2, r2
 173              	.LVL18:
 180:Drivers/LTC681x/LTC681x.c **** 	#ifdef MBED
 181:Drivers/LTC681x/LTC681x.c **** 		remainder = (remainder<<8)^crc15Table[addr];
 182:Drivers/LTC681x/LTC681x.c **** 	#else
 183:Drivers/LTC681x/LTC681x.c **** 		remainder = (remainder<<8)^pgm_read_word_near(crc15Table+addr);
 174              		.loc 1 183 0 discriminator 3
 175 0014 1C02     		lsls	r4, r3, #8
 176 0016 0748     		ldr	r0, .L13
 177 0018 00EB4200 		add	r0, r0, r2, lsl #1
 178 001c FFF7FEFF 		bl	pgm_read_word_near
 179              	.LVL19:
 180 0020 84EA0003 		eor	r3, r4, r0
 181 0024 9BB2     		uxth	r3, r3
 182              	.LVL20:
 183              	.LBE5:
 177:Drivers/LTC681x/LTC681x.c **** 	{
 184              		.loc 1 177 0 discriminator 3
 185 0026 0135     		adds	r5, r5, #1
 186              	.LVL21:
 187 0028 EDB2     		uxtb	r5, r5
 188              	.LVL22:
 189              	.L10:
 177:Drivers/LTC681x/LTC681x.c **** 	{
 190              		.loc 1 177 0 is_stmt 0 discriminator 1
 191 002a B542     		cmp	r5, r6
 192 002c EED3     		bcc	.L11
 193              	.LBE6:
 184:Drivers/LTC681x/LTC681x.c **** 	#endif
 185:Drivers/LTC681x/LTC681x.c **** 	}
 186:Drivers/LTC681x/LTC681x.c **** 	return(remainder*2);//The CRC15 has a 0 in the LSB so the remainder must be multiplied by 2
 194              		.loc 1 186 0 is_stmt 1
 195 002e 5800     		lsls	r0, r3, #1
 196 0030 80B2     		uxth	r0, r0
 187:Drivers/LTC681x/LTC681x.c **** }
 197              		.loc 1 187 0
 198 0032 F8BD     		pop	{r3, r4, r5, r6, r7, pc}
 199              	.LVL23:
 200              	.L14:
 201              		.align	2
 202              	.L13:
 203 0034 00000000 		.word	.LANCHOR0
 204              		.cfi_endproc
 205              	.LFE5:
 207              		.section	.text.cmd_68,"ax",%progbits
 208              		.align	1
 209              		.global	cmd_68
 210              		.syntax unified
 211              		.thumb
ARM GAS  /tmp/ccMCacDa.s 			page 8


 212              		.thumb_func
 213              		.fpu softvfp
 215              	cmd_68:
 216              	.LFB2:
  82:Drivers/LTC681x/LTC681x.c **** 	uint8_t cmd[4];
 217              		.loc 1 82 0
 218              		.cfi_startproc
 219              		@ args = 0, pretend = 0, frame = 8
 220              		@ frame_needed = 0, uses_anonymous_args = 0
 221              	.LVL24:
 222 0000 00B5     		push	{lr}
 223              	.LCFI3:
 224              		.cfi_def_cfa_offset 4
 225              		.cfi_offset 14, -4
 226 0002 83B0     		sub	sp, sp, #12
 227              	.LCFI4:
 228              		.cfi_def_cfa_offset 16
  86:Drivers/LTC681x/LTC681x.c **** 	cmd[1] =  tx_cmd[1];
 229              		.loc 1 86 0
 230 0004 0378     		ldrb	r3, [r0]	@ zero_extendqisi2
 231 0006 8DF80430 		strb	r3, [sp, #4]
  87:Drivers/LTC681x/LTC681x.c **** 	cmd_pec = pec15_calc(2, cmd);
 232              		.loc 1 87 0
 233 000a 4378     		ldrb	r3, [r0, #1]	@ zero_extendqisi2
 234 000c 8DF80530 		strb	r3, [sp, #5]
  88:Drivers/LTC681x/LTC681x.c **** 	cmd[2] = (uint8_t)(cmd_pec >> 8);
 235              		.loc 1 88 0
 236 0010 01A9     		add	r1, sp, #4
 237 0012 0220     		movs	r0, #2
 238              	.LVL25:
 239 0014 FFF7FEFF 		bl	pec15_calc
 240              	.LVL26:
  89:Drivers/LTC681x/LTC681x.c **** 	cmd[3] = (uint8_t)(cmd_pec);
 241              		.loc 1 89 0
 242 0018 C0F30723 		ubfx	r3, r0, #8, #8
 243 001c 8DF80630 		strb	r3, [sp, #6]
  90:Drivers/LTC681x/LTC681x.c **** 	cs_low(CS_PIN);
 244              		.loc 1 90 0
 245 0020 8DF80700 		strb	r0, [sp, #7]
  91:Drivers/LTC681x/LTC681x.c **** 	spi_write_array(4,cmd);
 246              		.loc 1 91 0
 247 0024 0A20     		movs	r0, #10
 248              	.LVL27:
 249 0026 FFF7FEFF 		bl	cs_low
 250              	.LVL28:
  92:Drivers/LTC681x/LTC681x.c **** 	cs_high(CS_PIN);
 251              		.loc 1 92 0
 252 002a 01A9     		add	r1, sp, #4
 253 002c 0420     		movs	r0, #4
 254 002e FFF7FEFF 		bl	spi_write_array
 255              	.LVL29:
  93:Drivers/LTC681x/LTC681x.c **** }
 256              		.loc 1 93 0
 257 0032 0A20     		movs	r0, #10
 258 0034 FFF7FEFF 		bl	cs_high
 259              	.LVL30:
  94:Drivers/LTC681x/LTC681x.c **** 
ARM GAS  /tmp/ccMCacDa.s 			page 9


 260              		.loc 1 94 0
 261 0038 03B0     		add	sp, sp, #12
 262              	.LCFI5:
 263              		.cfi_def_cfa_offset 4
 264              		@ sp needed
 265 003a 5DF804FB 		ldr	pc, [sp], #4
 266              		.cfi_endproc
 267              	.LFE2:
 269              		.section	.text.write_68,"ax",%progbits
 270              		.align	1
 271              		.global	write_68
 272              		.syntax unified
 273              		.thumb
 274              		.thumb_func
 275              		.fpu softvfp
 277              	write_68:
 278              	.LFB3:
 100:Drivers/LTC681x/LTC681x.c **** 	const uint8_t BYTES_IN_REG = 6;
 279              		.loc 1 100 0
 280              		.cfi_startproc
 281              		@ args = 0, pretend = 0, frame = 0
 282              		@ frame_needed = 0, uses_anonymous_args = 0
 283              	.LVL31:
 284 0000 2DE9F041 		push	{r4, r5, r6, r7, r8, lr}
 285              	.LCFI6:
 286              		.cfi_def_cfa_offset 24
 287              		.cfi_offset 4, -24
 288              		.cfi_offset 5, -20
 289              		.cfi_offset 6, -16
 290              		.cfi_offset 7, -12
 291              		.cfi_offset 8, -8
 292              		.cfi_offset 14, -4
 293 0004 0546     		mov	r5, r0
 294 0006 0C46     		mov	r4, r1
 295 0008 1746     		mov	r7, r2
 296              	.LVL32:
 102:Drivers/LTC681x/LTC681x.c **** 	uint8_t *cmd;
 297              		.loc 1 102 0
 298 000a 4FEAC008 		lsl	r8, r0, #3
 299 000e 5FFA88F8 		uxtb	r8, r8
 300 0012 08F10408 		add	r8, r8, #4
 301 0016 5FFA88F8 		uxtb	r8, r8
 302              	.LVL33:
 107:Drivers/LTC681x/LTC681x.c **** 	cmd[0] = tx_cmd[0];
 303              		.loc 1 107 0
 304 001a 4046     		mov	r0, r8
 305              	.LVL34:
 306 001c FFF7FEFF 		bl	malloc
 307              	.LVL35:
 308 0020 0646     		mov	r6, r0
 309              	.LVL36:
 108:Drivers/LTC681x/LTC681x.c **** 	cmd[1] = tx_cmd[1];
 310              		.loc 1 108 0
 311 0022 2378     		ldrb	r3, [r4]	@ zero_extendqisi2
 312 0024 0370     		strb	r3, [r0]
 109:Drivers/LTC681x/LTC681x.c **** 	cmd_pec = pec15_calc(2, cmd);
 313              		.loc 1 109 0
ARM GAS  /tmp/ccMCacDa.s 			page 10


 314 0026 6378     		ldrb	r3, [r4, #1]	@ zero_extendqisi2
 315 0028 4370     		strb	r3, [r0, #1]
 110:Drivers/LTC681x/LTC681x.c **** 	cmd[2] = (uint8_t)(cmd_pec >> 8);
 316              		.loc 1 110 0
 317 002a 0146     		mov	r1, r0
 318 002c 0220     		movs	r0, #2
 319              	.LVL37:
 320 002e FFF7FEFF 		bl	pec15_calc
 321              	.LVL38:
 111:Drivers/LTC681x/LTC681x.c **** 	cmd[3] = (uint8_t)(cmd_pec);
 322              		.loc 1 111 0
 323 0032 C0F30723 		ubfx	r3, r0, #8, #8
 324 0036 B370     		strb	r3, [r6, #2]
 112:Drivers/LTC681x/LTC681x.c **** 	cmd_index = 4;
 325              		.loc 1 112 0
 326 0038 F070     		strb	r0, [r6, #3]
 327              	.LVL39:
 113:Drivers/LTC681x/LTC681x.c **** 	for (uint8_t current_ic = total_ic; current_ic > 0; current_ic--)       // executes for each LTC68
 328              		.loc 1 113 0
 329 003a 0424     		movs	r4, #4
 330              	.LVL40:
 331              	.LBB7:
 114:Drivers/LTC681x/LTC681x.c ****     {	                                                                   //The first configuration 
 332              		.loc 1 114 0
 333 003c 1CE0     		b	.L18
 334              	.LVL41:
 335              	.L19:
 336              	.LBB8:
 119:Drivers/LTC681x/LTC681x.c **** 			cmd_index = cmd_index + 1;
 337              		.loc 1 119 0 discriminator 3
 338 003e 6A1E     		subs	r2, r5, #1
 339 0040 02EB4202 		add	r2, r2, r2, lsl #1
 340 0044 5100     		lsls	r1, r2, #1
 341 0046 1944     		add	r1, r1, r3
 342 0048 7A5C     		ldrb	r2, [r7, r1]	@ zero_extendqisi2
 343 004a 3255     		strb	r2, [r6, r4]
 120:Drivers/LTC681x/LTC681x.c **** 		}
 344              		.loc 1 120 0 discriminator 3
 345 004c 0134     		adds	r4, r4, #1
 346              	.LVL42:
 347 004e E4B2     		uxtb	r4, r4
 348              	.LVL43:
 117:Drivers/LTC681x/LTC681x.c **** 		{
 349              		.loc 1 117 0 discriminator 3
 350 0050 0133     		adds	r3, r3, #1
 351              	.LVL44:
 352 0052 DBB2     		uxtb	r3, r3
 353              	.LVL45:
 354              	.L20:
 117:Drivers/LTC681x/LTC681x.c **** 		{
 355              		.loc 1 117 0 is_stmt 0 discriminator 1
 356 0054 052B     		cmp	r3, #5
 357 0056 F2D9     		bls	.L19
 358              	.LBE8:
 122:Drivers/LTC681x/LTC681x.c **** 		cmd[cmd_index] = (uint8_t)(data_pec >> 8);
 359              		.loc 1 122 0 is_stmt 1 discriminator 2
 360 0058 013D     		subs	r5, r5, #1
ARM GAS  /tmp/ccMCacDa.s 			page 11


 361              	.LVL46:
 362 005a 05EB4503 		add	r3, r5, r5, lsl #1
 363              	.LVL47:
 364 005e 5900     		lsls	r1, r3, #1
 365 0060 3944     		add	r1, r1, r7
 366 0062 0620     		movs	r0, #6
 367 0064 FFF7FEFF 		bl	pec15_calc
 368              	.LVL48:
 123:Drivers/LTC681x/LTC681x.c **** 		cmd[cmd_index + 1] = (uint8_t)data_pec;
 369              		.loc 1 123 0 discriminator 2
 370 0068 C0F30723 		ubfx	r3, r0, #8, #8
 371 006c 3355     		strb	r3, [r6, r4]
 124:Drivers/LTC681x/LTC681x.c **** 		cmd_index = cmd_index + 2;
 372              		.loc 1 124 0 discriminator 2
 373 006e 631C     		adds	r3, r4, #1
 374 0070 F054     		strb	r0, [r6, r3]
 125:Drivers/LTC681x/LTC681x.c **** 	}
 375              		.loc 1 125 0 discriminator 2
 376 0072 0234     		adds	r4, r4, #2
 377              	.LVL49:
 378 0074 E4B2     		uxtb	r4, r4
 379              	.LVL50:
 114:Drivers/LTC681x/LTC681x.c ****     {	                                                                   //The first configuration 
 380              		.loc 1 114 0 discriminator 2
 381 0076 EDB2     		uxtb	r5, r5
 382              	.LVL51:
 383              	.L18:
 114:Drivers/LTC681x/LTC681x.c ****     {	                                                                   //The first configuration 
 384              		.loc 1 114 0 is_stmt 0 discriminator 1
 385 0078 0DB1     		cbz	r5, .L23
 386              	.LBB9:
 117:Drivers/LTC681x/LTC681x.c **** 		{
 387              		.loc 1 117 0 is_stmt 1
 388 007a 0023     		movs	r3, #0
 389 007c EAE7     		b	.L20
 390              	.L23:
 391              	.LBE9:
 392              	.LBE7:
 127:Drivers/LTC681x/LTC681x.c **** 	spi_write_array(CMD_LEN, cmd);
 393              		.loc 1 127 0
 394 007e 0A20     		movs	r0, #10
 395 0080 FFF7FEFF 		bl	cs_low
 396              	.LVL52:
 128:Drivers/LTC681x/LTC681x.c **** 	cs_high(CS_PIN);
 397              		.loc 1 128 0
 398 0084 3146     		mov	r1, r6
 399 0086 4046     		mov	r0, r8
 400 0088 FFF7FEFF 		bl	spi_write_array
 401              	.LVL53:
 129:Drivers/LTC681x/LTC681x.c **** 	free(cmd);
 402              		.loc 1 129 0
 403 008c 0A20     		movs	r0, #10
 404 008e FFF7FEFF 		bl	cs_high
 405              	.LVL54:
 130:Drivers/LTC681x/LTC681x.c **** }
 406              		.loc 1 130 0
 407 0092 3046     		mov	r0, r6
ARM GAS  /tmp/ccMCacDa.s 			page 12


 408 0094 FFF7FEFF 		bl	free
 409              	.LVL55:
 131:Drivers/LTC681x/LTC681x.c **** 
 410              		.loc 1 131 0
 411 0098 BDE8F081 		pop	{r4, r5, r6, r7, r8, pc}
 412              		.cfi_endproc
 413              	.LFE3:
 415              		.section	.text.read_68,"ax",%progbits
 416              		.align	1
 417              		.global	read_68
 418              		.syntax unified
 419              		.thumb
 420              		.thumb_func
 421              		.fpu softvfp
 423              	read_68:
 424              	.LFB4:
 137:Drivers/LTC681x/LTC681x.c **** 	const uint8_t BYTES_IN_REG = 8;
 425              		.loc 1 137 0
 426              		.cfi_startproc
 427              		@ args = 0, pretend = 0, frame = 264
 428              		@ frame_needed = 0, uses_anonymous_args = 0
 429              	.LVL56:
 430 0000 2DE9F041 		push	{r4, r5, r6, r7, r8, lr}
 431              	.LCFI7:
 432              		.cfi_def_cfa_offset 24
 433              		.cfi_offset 4, -24
 434              		.cfi_offset 5, -20
 435              		.cfi_offset 6, -16
 436              		.cfi_offset 7, -12
 437              		.cfi_offset 8, -8
 438              		.cfi_offset 14, -4
 439 0004 C2B0     		sub	sp, sp, #264
 440              	.LCFI8:
 441              		.cfi_def_cfa_offset 288
 442 0006 0646     		mov	r6, r0
 443 0008 1546     		mov	r5, r2
 444              	.LVL57:
 145:Drivers/LTC681x/LTC681x.c **** 	cmd[1] = tx_cmd[1];
 445              		.loc 1 145 0
 446 000a 0B78     		ldrb	r3, [r1]	@ zero_extendqisi2
 447 000c 8DF80431 		strb	r3, [sp, #260]
 146:Drivers/LTC681x/LTC681x.c **** 	cmd_pec = pec15_calc(2, cmd);
 448              		.loc 1 146 0
 449 0010 4B78     		ldrb	r3, [r1, #1]	@ zero_extendqisi2
 450 0012 8DF80531 		strb	r3, [sp, #261]
 147:Drivers/LTC681x/LTC681x.c **** 	cmd[2] = (uint8_t)(cmd_pec >> 8);
 451              		.loc 1 147 0
 452 0016 41A9     		add	r1, sp, #260
 453              	.LVL58:
 454 0018 0220     		movs	r0, #2
 455              	.LVL59:
 456 001a FFF7FEFF 		bl	pec15_calc
 457              	.LVL60:
 148:Drivers/LTC681x/LTC681x.c **** 	cmd[3] = (uint8_t)(cmd_pec);
 458              		.loc 1 148 0
 459 001e C0F30723 		ubfx	r3, r0, #8, #8
 460 0022 8DF80631 		strb	r3, [sp, #262]
ARM GAS  /tmp/ccMCacDa.s 			page 13


 149:Drivers/LTC681x/LTC681x.c **** 	cs_low(CS_PIN);
 461              		.loc 1 149 0
 462 0026 8DF80701 		strb	r0, [sp, #263]
 150:Drivers/LTC681x/LTC681x.c **** 	spi_write_read(cmd, 4, data, (BYTES_IN_REG*total_ic));         //Read the configuration data of al
 463              		.loc 1 150 0
 464 002a 0A20     		movs	r0, #10
 465              	.LVL61:
 466 002c FFF7FEFF 		bl	cs_low
 467              	.LVL62:
 151:Drivers/LTC681x/LTC681x.c **** 	cs_high(CS_PIN);                                         
 468              		.loc 1 151 0
 469 0030 F300     		lsls	r3, r6, #3
 470 0032 03F0F803 		and	r3, r3, #248
 471 0036 01AA     		add	r2, sp, #4
 472 0038 0421     		movs	r1, #4
 473 003a 41A8     		add	r0, sp, #260
 474 003c FFF7FEFF 		bl	spi_write_read
 475              	.LVL63:
 152:Drivers/LTC681x/LTC681x.c **** 
 476              		.loc 1 152 0
 477 0040 0A20     		movs	r0, #10
 478 0042 FFF7FEFF 		bl	cs_high
 479              	.LVL64:
 480              	.LBB10:
 154:Drivers/LTC681x/LTC681x.c **** 	{																//into the r_comm array as well as check the received data for any bit errors
 481              		.loc 1 154 0
 482 0046 0024     		movs	r4, #0
 483              	.LBE10:
 141:Drivers/LTC681x/LTC681x.c **** 	uint16_t cmd_pec;
 484              		.loc 1 141 0
 485 0048 2746     		mov	r7, r4
 486              	.LBB13:
 154:Drivers/LTC681x/LTC681x.c **** 	{																//into the r_comm array as well as check the received data for any bit errors
 487              		.loc 1 154 0
 488 004a 1AE0     		b	.L25
 489              	.LVL65:
 490              	.L26:
 491              	.LBB11:
 158:Drivers/LTC681x/LTC681x.c **** 		}
 492              		.loc 1 158 0 discriminator 3
 493 004c 03EBC402 		add	r2, r3, r4, lsl #3
 494 0050 01A9     		add	r1, sp, #4
 495 0052 895C     		ldrb	r1, [r1, r2]	@ zero_extendqisi2
 496 0054 A954     		strb	r1, [r5, r2]
 156:Drivers/LTC681x/LTC681x.c **** 		{
 497              		.loc 1 156 0 discriminator 3
 498 0056 0133     		adds	r3, r3, #1
 499              	.LVL66:
 500 0058 DBB2     		uxtb	r3, r3
 501              	.LVL67:
 502              	.L28:
 156:Drivers/LTC681x/LTC681x.c **** 		{
 503              		.loc 1 156 0 is_stmt 0 discriminator 1
 504 005a 072B     		cmp	r3, #7
 505 005c F6D9     		bls	.L26
 506              	.LBE11:
 160:Drivers/LTC681x/LTC681x.c **** 		data_pec = pec15_calc(6, &rx_data[current_ic*8]);
ARM GAS  /tmp/ccMCacDa.s 			page 14


 507              		.loc 1 160 0 is_stmt 1
 508 005e 05EBC401 		add	r1, r5, r4, lsl #3
 509 0062 8B79     		ldrb	r3, [r1, #6]	@ zero_extendqisi2
 510              	.LVL68:
 511 0064 91F80780 		ldrb	r8, [r1, #7]	@ zero_extendqisi2
 512 0068 08EB0328 		add	r8, r8, r3, lsl #8
 513 006c 1FFA88F8 		uxth	r8, r8
 514              	.LVL69:
 161:Drivers/LTC681x/LTC681x.c **** 		if (received_pec != data_pec)
 515              		.loc 1 161 0
 516 0070 0620     		movs	r0, #6
 517 0072 FFF7FEFF 		bl	pec15_calc
 518              	.LVL70:
 162:Drivers/LTC681x/LTC681x.c **** 		{
 519              		.loc 1 162 0
 520 0076 8045     		cmp	r8, r0
 521 0078 01D0     		beq	.L27
 164:Drivers/LTC681x/LTC681x.c **** 		}
 522              		.loc 1 164 0
 523 007a 4FF0FF37 		mov	r7, #-1
 524              	.LVL71:
 525              	.L27:
 154:Drivers/LTC681x/LTC681x.c **** 	{																//into the r_comm array as well as check the received data for any bit errors
 526              		.loc 1 154 0 discriminator 2
 527 007e 0134     		adds	r4, r4, #1
 528              	.LVL72:
 529 0080 E4B2     		uxtb	r4, r4
 530              	.LVL73:
 531              	.L25:
 154:Drivers/LTC681x/LTC681x.c **** 	{																//into the r_comm array as well as check the received data for any bit errors
 532              		.loc 1 154 0 is_stmt 0 discriminator 1
 533 0082 B442     		cmp	r4, r6
 534 0084 01D2     		bcs	.L32
 535              	.LBB12:
 156:Drivers/LTC681x/LTC681x.c **** 		{
 536              		.loc 1 156 0 is_stmt 1
 537 0086 0023     		movs	r3, #0
 538 0088 E7E7     		b	.L28
 539              	.L32:
 540              	.LBE12:
 541              	.LBE13:
 168:Drivers/LTC681x/LTC681x.c **** 
 542              		.loc 1 168 0
 543 008a 3846     		mov	r0, r7
 544 008c 42B0     		add	sp, sp, #264
 545              	.LCFI9:
 546              		.cfi_def_cfa_offset 24
 547              		@ sp needed
 548 008e BDE8F081 		pop	{r4, r5, r6, r7, r8, pc}
 549              		.cfi_endproc
 550              	.LFE4:
 552              		.section	.text.LTC681x_init_cfg,"ax",%progbits
 553              		.align	1
 554              		.global	LTC681x_init_cfg
 555              		.syntax unified
 556              		.thumb
 557              		.thumb_func
ARM GAS  /tmp/ccMCacDa.s 			page 15


 558              		.fpu softvfp
 560              	LTC681x_init_cfg:
 561              	.LFB6:
 188:Drivers/LTC681x/LTC681x.c **** 
 189:Drivers/LTC681x/LTC681x.c **** //Helper function to initialize CFG variables.
 190:Drivers/LTC681x/LTC681x.c **** void LTC681x_init_cfg(uint8_t total_ic, 
 191:Drivers/LTC681x/LTC681x.c **** 					  cell_asic *ic
 192:Drivers/LTC681x/LTC681x.c **** 					  )
 193:Drivers/LTC681x/LTC681x.c **** {
 562              		.loc 1 193 0
 563              		.cfi_startproc
 564              		@ args = 0, pretend = 0, frame = 0
 565              		@ frame_needed = 0, uses_anonymous_args = 0
 566              		@ link register save eliminated.
 567              	.LVL74:
 568 0000 30B4     		push	{r4, r5}
 569              	.LCFI10:
 570              		.cfi_def_cfa_offset 8
 571              		.cfi_offset 4, -8
 572              		.cfi_offset 5, -4
 573              	.LVL75:
 574              	.LBB14:
 194:Drivers/LTC681x/LTC681x.c ****    for (uint8_t current_ic = 0; current_ic<total_ic;current_ic++)  
 575              		.loc 1 194 0
 576 0002 0025     		movs	r5, #0
 577 0004 0AE0     		b	.L34
 578              	.LVL76:
 579              	.L35:
 580              	.LBB15:
 195:Drivers/LTC681x/LTC681x.c ****    {
 196:Drivers/LTC681x/LTC681x.c **** 		for (int j =0; j<6; j++)
 197:Drivers/LTC681x/LTC681x.c **** 		{
 198:Drivers/LTC681x/LTC681x.c **** 		  ic[current_ic].config.tx_data[j] = 0;
 581              		.loc 1 198 0 discriminator 3
 582 0006 C5EBC504 		rsb	r4, r5, r5, lsl #3
 583 000a 6301     		lsls	r3, r4, #5
 584 000c 0B44     		add	r3, r3, r1
 585 000e 0024     		movs	r4, #0
 586 0010 9C54     		strb	r4, [r3, r2]
 196:Drivers/LTC681x/LTC681x.c **** 		{
 587              		.loc 1 196 0 discriminator 3
 588 0012 0132     		adds	r2, r2, #1
 589              	.LVL77:
 590              	.L36:
 196:Drivers/LTC681x/LTC681x.c **** 		{
 591              		.loc 1 196 0 is_stmt 0 discriminator 1
 592 0014 052A     		cmp	r2, #5
 593 0016 F6DD     		ble	.L35
 594              	.LBE15:
 194:Drivers/LTC681x/LTC681x.c ****    for (uint8_t current_ic = 0; current_ic<total_ic;current_ic++)  
 595              		.loc 1 194 0 is_stmt 1 discriminator 2
 596 0018 0135     		adds	r5, r5, #1
 597              	.LVL78:
 598 001a EDB2     		uxtb	r5, r5
 599              	.LVL79:
 600              	.L34:
 194:Drivers/LTC681x/LTC681x.c ****    for (uint8_t current_ic = 0; current_ic<total_ic;current_ic++)  
ARM GAS  /tmp/ccMCacDa.s 			page 16


 601              		.loc 1 194 0 is_stmt 0 discriminator 1
 602 001c 8542     		cmp	r5, r0
 603 001e 01D2     		bcs	.L39
 604              	.LBB16:
 196:Drivers/LTC681x/LTC681x.c **** 		{
 605              		.loc 1 196 0 is_stmt 1
 606 0020 0022     		movs	r2, #0
 607 0022 F7E7     		b	.L36
 608              	.L39:
 609              	.LBE16:
 610              	.LBE14:
 199:Drivers/LTC681x/LTC681x.c **** 		}
 200:Drivers/LTC681x/LTC681x.c ****    }
 201:Drivers/LTC681x/LTC681x.c **** }
 611              		.loc 1 201 0
 612 0024 30BC     		pop	{r4, r5}
 613              	.LCFI11:
 614              		.cfi_restore 5
 615              		.cfi_restore 4
 616              		.cfi_def_cfa_offset 0
 617              	.LVL80:
 618 0026 7047     		bx	lr
 619              		.cfi_endproc
 620              	.LFE6:
 622              		.section	.text.LTC681x_set_cfgr_refon,"ax",%progbits
 623              		.align	1
 624              		.global	LTC681x_set_cfgr_refon
 625              		.syntax unified
 626              		.thumb
 627              		.thumb_func
 628              		.fpu softvfp
 630              	LTC681x_set_cfgr_refon:
 631              	.LFB8:
 202:Drivers/LTC681x/LTC681x.c **** 
 203:Drivers/LTC681x/LTC681x.c **** //Helper function to set CFGR variable
 204:Drivers/LTC681x/LTC681x.c **** void LTC681x_set_cfgr(uint8_t nIC, 
 205:Drivers/LTC681x/LTC681x.c **** 					 cell_asic *ic, 
 206:Drivers/LTC681x/LTC681x.c **** 					 bool refon, 
 207:Drivers/LTC681x/LTC681x.c **** 					 bool adcopt, 
 208:Drivers/LTC681x/LTC681x.c **** 					 bool gpio[5],
 209:Drivers/LTC681x/LTC681x.c **** 					 bool dcc[12], 
 210:Drivers/LTC681x/LTC681x.c **** 					 bool dcto[4], 
 211:Drivers/LTC681x/LTC681x.c **** 					 uint16_t uv, 
 212:Drivers/LTC681x/LTC681x.c **** 					 uint16_t  ov
 213:Drivers/LTC681x/LTC681x.c **** 					 )
 214:Drivers/LTC681x/LTC681x.c **** {
 215:Drivers/LTC681x/LTC681x.c ****   LTC681x_set_cfgr_refon(nIC,ic,refon);
 216:Drivers/LTC681x/LTC681x.c ****   LTC681x_set_cfgr_adcopt(nIC,ic,adcopt);
 217:Drivers/LTC681x/LTC681x.c ****   LTC681x_set_cfgr_gpio(nIC,ic,gpio);
 218:Drivers/LTC681x/LTC681x.c ****   LTC681x_set_cfgr_dis(nIC,ic,dcc);
 219:Drivers/LTC681x/LTC681x.c ****   LTC681x_set_cfgr_dcto(nIC,ic,dcto);
 220:Drivers/LTC681x/LTC681x.c ****   LTC681x_set_cfgr_uv(nIC, ic, uv);
 221:Drivers/LTC681x/LTC681x.c ****   LTC681x_set_cfgr_ov(nIC, ic, ov);
 222:Drivers/LTC681x/LTC681x.c **** }
 223:Drivers/LTC681x/LTC681x.c **** 
 224:Drivers/LTC681x/LTC681x.c **** 
 225:Drivers/LTC681x/LTC681x.c **** //Helper function to set the REFON bit
ARM GAS  /tmp/ccMCacDa.s 			page 17


 226:Drivers/LTC681x/LTC681x.c **** void LTC681x_set_cfgr_refon(uint8_t nIC, cell_asic *ic, bool refon)
 227:Drivers/LTC681x/LTC681x.c **** {
 632              		.loc 1 227 0
 633              		.cfi_startproc
 634              		@ args = 0, pretend = 0, frame = 0
 635              		@ frame_needed = 0, uses_anonymous_args = 0
 636              		@ link register save eliminated.
 637              	.LVL81:
 228:Drivers/LTC681x/LTC681x.c ****   if (refon) ic[nIC].config.tx_data[0] = ic[nIC].config.tx_data[0]|0x04;
 638              		.loc 1 228 0
 639 0000 3AB9     		cbnz	r2, .L43
 229:Drivers/LTC681x/LTC681x.c ****   else ic[nIC].config.tx_data[0] = ic[nIC].config.tx_data[0]&0xFB;
 640              		.loc 1 229 0
 641 0002 C0EBC000 		rsb	r0, r0, r0, lsl #3
 642              	.LVL82:
 643 0006 4301     		lsls	r3, r0, #5
 644 0008 CA5C     		ldrb	r2, [r1, r3]	@ zero_extendqisi2
 645              	.LVL83:
 646 000a 02F0FB02 		and	r2, r2, #251
 647 000e CA54     		strb	r2, [r1, r3]
 230:Drivers/LTC681x/LTC681x.c **** }
 648              		.loc 1 230 0
 649 0010 7047     		bx	lr
 650              	.LVL84:
 651              	.L43:
 228:Drivers/LTC681x/LTC681x.c ****   if (refon) ic[nIC].config.tx_data[0] = ic[nIC].config.tx_data[0]|0x04;
 652              		.loc 1 228 0 discriminator 1
 653 0012 C0EBC000 		rsb	r0, r0, r0, lsl #3
 654              	.LVL85:
 655 0016 4301     		lsls	r3, r0, #5
 656 0018 CA5C     		ldrb	r2, [r1, r3]	@ zero_extendqisi2
 657              	.LVL86:
 658 001a 42F00402 		orr	r2, r2, #4
 659 001e CA54     		strb	r2, [r1, r3]
 660 0020 7047     		bx	lr
 661              		.cfi_endproc
 662              	.LFE8:
 664              		.section	.text.LTC681x_set_cfgr_adcopt,"ax",%progbits
 665              		.align	1
 666              		.global	LTC681x_set_cfgr_adcopt
 667              		.syntax unified
 668              		.thumb
 669              		.thumb_func
 670              		.fpu softvfp
 672              	LTC681x_set_cfgr_adcopt:
 673              	.LFB9:
 231:Drivers/LTC681x/LTC681x.c **** 
 232:Drivers/LTC681x/LTC681x.c **** //Helper function to set the adcopt bit
 233:Drivers/LTC681x/LTC681x.c **** void LTC681x_set_cfgr_adcopt(uint8_t nIC, cell_asic *ic, bool adcopt)
 234:Drivers/LTC681x/LTC681x.c **** {
 674              		.loc 1 234 0
 675              		.cfi_startproc
 676              		@ args = 0, pretend = 0, frame = 0
 677              		@ frame_needed = 0, uses_anonymous_args = 0
 678              		@ link register save eliminated.
 679              	.LVL87:
 235:Drivers/LTC681x/LTC681x.c ****   if (adcopt) ic[nIC].config.tx_data[0] = ic[nIC].config.tx_data[0]|0x01;
ARM GAS  /tmp/ccMCacDa.s 			page 18


 680              		.loc 1 235 0
 681 0000 3AB9     		cbnz	r2, .L47
 236:Drivers/LTC681x/LTC681x.c ****   else ic[nIC].config.tx_data[0] = ic[nIC].config.tx_data[0]&0xFE;
 682              		.loc 1 236 0
 683 0002 C0EBC000 		rsb	r0, r0, r0, lsl #3
 684              	.LVL88:
 685 0006 4301     		lsls	r3, r0, #5
 686 0008 CA5C     		ldrb	r2, [r1, r3]	@ zero_extendqisi2
 687              	.LVL89:
 688 000a 02F0FE02 		and	r2, r2, #254
 689 000e CA54     		strb	r2, [r1, r3]
 237:Drivers/LTC681x/LTC681x.c **** }
 690              		.loc 1 237 0
 691 0010 7047     		bx	lr
 692              	.LVL90:
 693              	.L47:
 235:Drivers/LTC681x/LTC681x.c ****   if (adcopt) ic[nIC].config.tx_data[0] = ic[nIC].config.tx_data[0]|0x01;
 694              		.loc 1 235 0 discriminator 1
 695 0012 C0EBC000 		rsb	r0, r0, r0, lsl #3
 696              	.LVL91:
 697 0016 4301     		lsls	r3, r0, #5
 698 0018 CA5C     		ldrb	r2, [r1, r3]	@ zero_extendqisi2
 699              	.LVL92:
 700 001a 42F00102 		orr	r2, r2, #1
 701 001e CA54     		strb	r2, [r1, r3]
 702 0020 7047     		bx	lr
 703              		.cfi_endproc
 704              	.LFE9:
 706              		.section	.text.LTC681x_set_cfgr_gpio,"ax",%progbits
 707              		.align	1
 708              		.global	LTC681x_set_cfgr_gpio
 709              		.syntax unified
 710              		.thumb
 711              		.thumb_func
 712              		.fpu softvfp
 714              	LTC681x_set_cfgr_gpio:
 715              	.LFB10:
 238:Drivers/LTC681x/LTC681x.c **** 
 239:Drivers/LTC681x/LTC681x.c **** //Helper function to set GPIO bits
 240:Drivers/LTC681x/LTC681x.c **** void LTC681x_set_cfgr_gpio(uint8_t nIC, cell_asic *ic,bool gpio[5])
 241:Drivers/LTC681x/LTC681x.c **** {
 716              		.loc 1 241 0
 717              		.cfi_startproc
 718              		@ args = 0, pretend = 0, frame = 0
 719              		@ frame_needed = 0, uses_anonymous_args = 0
 720              		@ link register save eliminated.
 721              	.LVL93:
 722              	.LBB17:
 242:Drivers/LTC681x/LTC681x.c ****   for (int i =0; i<5; i++)
 723              		.loc 1 242 0
 724 0000 0023     		movs	r3, #0
 725              	.LVL94:
 726 0002 042B     		cmp	r3, #4
 727 0004 1DDC     		bgt	.L56
 728              	.LBE17:
 241:Drivers/LTC681x/LTC681x.c ****   for (int i =0; i<5; i++)
 729              		.loc 1 241 0
ARM GAS  /tmp/ccMCacDa.s 			page 19


 730 0006 F0B4     		push	{r4, r5, r6, r7}
 731              	.LCFI12:
 732              		.cfi_def_cfa_offset 16
 733              		.cfi_offset 4, -16
 734              		.cfi_offset 5, -12
 735              		.cfi_offset 6, -8
 736              		.cfi_offset 7, -4
 737 0008 0CE0     		b	.L52
 738              	.L50:
 739              	.LBB18:
 243:Drivers/LTC681x/LTC681x.c ****   {
 244:Drivers/LTC681x/LTC681x.c ****     if (gpio[i])ic[nIC].config.tx_data[0] = ic[nIC].config.tx_data[0]|(0x01<<(i+3));
 245:Drivers/LTC681x/LTC681x.c ****     else ic[nIC].config.tx_data[0] = ic[nIC].config.tx_data[0]&(~(0x01<<(i+3)));
 740              		.loc 1 245 0
 741 000a C0EBC005 		rsb	r5, r0, r0, lsl #3
 742 000e 6C01     		lsls	r4, r5, #5
 743 0010 0D57     		ldrsb	r5, [r1, r4]
 744 0012 DF1C     		adds	r7, r3, #3
 745 0014 0126     		movs	r6, #1
 746 0016 BE40     		lsls	r6, r6, r7
 747 0018 25EA0605 		bic	r5, r5, r6
 748 001c 0D55     		strb	r5, [r1, r4]
 749              	.L51:
 242:Drivers/LTC681x/LTC681x.c ****   {
 750              		.loc 1 242 0 discriminator 2
 751 001e 0133     		adds	r3, r3, #1
 752              	.LVL95:
 753 0020 042B     		cmp	r3, #4
 754 0022 0CDC     		bgt	.L57
 755              	.L52:
 244:Drivers/LTC681x/LTC681x.c ****     else ic[nIC].config.tx_data[0] = ic[nIC].config.tx_data[0]&(~(0x01<<(i+3)));
 756              		.loc 1 244 0
 757 0024 D45C     		ldrb	r4, [r2, r3]	@ zero_extendqisi2
 758 0026 002C     		cmp	r4, #0
 759 0028 EFD0     		beq	.L50
 244:Drivers/LTC681x/LTC681x.c ****     else ic[nIC].config.tx_data[0] = ic[nIC].config.tx_data[0]&(~(0x01<<(i+3)));
 760              		.loc 1 244 0 is_stmt 0 discriminator 1
 761 002a C0EBC005 		rsb	r5, r0, r0, lsl #3
 762 002e 6C01     		lsls	r4, r5, #5
 763 0030 0D57     		ldrsb	r5, [r1, r4]
 764 0032 DF1C     		adds	r7, r3, #3
 765 0034 0126     		movs	r6, #1
 766 0036 BE40     		lsls	r6, r6, r7
 767 0038 3543     		orrs	r5, r5, r6
 768 003a 0D55     		strb	r5, [r1, r4]
 769 003c EFE7     		b	.L51
 770              	.L57:
 771              	.LBE18:
 246:Drivers/LTC681x/LTC681x.c ****   }
 247:Drivers/LTC681x/LTC681x.c **** }
 772              		.loc 1 247 0 is_stmt 1
 773 003e F0BC     		pop	{r4, r5, r6, r7}
 774              	.LCFI13:
 775              		.cfi_restore 7
 776              		.cfi_restore 6
 777              		.cfi_restore 5
 778              		.cfi_restore 4
ARM GAS  /tmp/ccMCacDa.s 			page 20


 779              		.cfi_def_cfa_offset 0
 780 0040 7047     		bx	lr
 781              	.L56:
 782 0042 7047     		bx	lr
 783              		.cfi_endproc
 784              	.LFE10:
 786              		.section	.text.LTC681x_set_cfgr_dis,"ax",%progbits
 787              		.align	1
 788              		.global	LTC681x_set_cfgr_dis
 789              		.syntax unified
 790              		.thumb
 791              		.thumb_func
 792              		.fpu softvfp
 794              	LTC681x_set_cfgr_dis:
 795              	.LFB11:
 248:Drivers/LTC681x/LTC681x.c **** 
 249:Drivers/LTC681x/LTC681x.c **** //Helper function to control discharge
 250:Drivers/LTC681x/LTC681x.c **** void LTC681x_set_cfgr_dis(uint8_t nIC, cell_asic *ic,bool dcc[12])
 251:Drivers/LTC681x/LTC681x.c **** {
 796              		.loc 1 251 0
 797              		.cfi_startproc
 798              		@ args = 0, pretend = 0, frame = 0
 799              		@ frame_needed = 0, uses_anonymous_args = 0
 800              		@ link register save eliminated.
 801              	.LVL96:
 802 0000 70B4     		push	{r4, r5, r6}
 803              	.LCFI14:
 804              		.cfi_def_cfa_offset 12
 805              		.cfi_offset 4, -12
 806              		.cfi_offset 5, -8
 807              		.cfi_offset 6, -4
 808              	.LVL97:
 809              	.LBB19:
 252:Drivers/LTC681x/LTC681x.c ****   for (int i =0; i<8; i++)
 810              		.loc 1 252 0
 811 0002 0023     		movs	r3, #0
 812 0004 0BE0     		b	.L59
 813              	.LVL98:
 814              	.L60:
 253:Drivers/LTC681x/LTC681x.c ****   {
 254:Drivers/LTC681x/LTC681x.c ****     if (dcc[i])ic[nIC].config.tx_data[4] = ic[nIC].config.tx_data[4]|(0x01<<i);
 255:Drivers/LTC681x/LTC681x.c ****     else ic[nIC].config.tx_data[4] = ic[nIC].config.tx_data[4]& (~(0x01<<i));
 815              		.loc 1 255 0
 816 0006 C0EBC005 		rsb	r5, r0, r0, lsl #3
 817 000a 6C01     		lsls	r4, r5, #5
 818 000c 0C44     		add	r4, r4, r1
 819 000e 94F90450 		ldrsb	r5, [r4, #4]
 820 0012 0126     		movs	r6, #1
 821 0014 9E40     		lsls	r6, r6, r3
 822 0016 25EA0605 		bic	r5, r5, r6
 823 001a 2571     		strb	r5, [r4, #4]
 824              	.L61:
 252:Drivers/LTC681x/LTC681x.c ****   for (int i =0; i<8; i++)
 825              		.loc 1 252 0 discriminator 2
 826 001c 0133     		adds	r3, r3, #1
 827              	.LVL99:
 828              	.L59:
ARM GAS  /tmp/ccMCacDa.s 			page 21


 252:Drivers/LTC681x/LTC681x.c ****   for (int i =0; i<8; i++)
 829              		.loc 1 252 0 is_stmt 0 discriminator 1
 830 001e 072B     		cmp	r3, #7
 831 0020 0DDC     		bgt	.L68
 254:Drivers/LTC681x/LTC681x.c ****     else ic[nIC].config.tx_data[4] = ic[nIC].config.tx_data[4]& (~(0x01<<i));
 832              		.loc 1 254 0 is_stmt 1
 833 0022 D45C     		ldrb	r4, [r2, r3]	@ zero_extendqisi2
 834 0024 002C     		cmp	r4, #0
 835 0026 EED0     		beq	.L60
 254:Drivers/LTC681x/LTC681x.c ****     else ic[nIC].config.tx_data[4] = ic[nIC].config.tx_data[4]& (~(0x01<<i));
 836              		.loc 1 254 0 is_stmt 0 discriminator 1
 837 0028 C0EBC005 		rsb	r5, r0, r0, lsl #3
 838 002c 6C01     		lsls	r4, r5, #5
 839 002e 0C44     		add	r4, r4, r1
 840 0030 94F90450 		ldrsb	r5, [r4, #4]
 841 0034 0126     		movs	r6, #1
 842 0036 9E40     		lsls	r6, r6, r3
 843 0038 3543     		orrs	r5, r5, r6
 844 003a 2571     		strb	r5, [r4, #4]
 845 003c EEE7     		b	.L61
 846              	.L68:
 847              	.LBE19:
 848              	.LBB20:
 256:Drivers/LTC681x/LTC681x.c ****   }
 257:Drivers/LTC681x/LTC681x.c ****   for (int i =0; i<4; i++)
 849              		.loc 1 257 0 is_stmt 1
 850 003e 0023     		movs	r3, #0
 851              	.LVL100:
 852 0040 0BE0     		b	.L63
 853              	.LVL101:
 854              	.L64:
 258:Drivers/LTC681x/LTC681x.c ****   {
 259:Drivers/LTC681x/LTC681x.c ****     if (dcc[i+8])ic[nIC].config.tx_data[5] = ic[nIC].config.tx_data[5]|(0x01<<i);
 260:Drivers/LTC681x/LTC681x.c ****     else ic[nIC].config.tx_data[5] = ic[nIC].config.tx_data[5]&(~(0x01<<i));
 855              		.loc 1 260 0
 856 0042 C0EBC005 		rsb	r5, r0, r0, lsl #3
 857 0046 6C01     		lsls	r4, r5, #5
 858 0048 0C44     		add	r4, r4, r1
 859 004a 94F90550 		ldrsb	r5, [r4, #5]
 860 004e 0126     		movs	r6, #1
 861 0050 9E40     		lsls	r6, r6, r3
 862 0052 25EA0605 		bic	r5, r5, r6
 863 0056 6571     		strb	r5, [r4, #5]
 864              	.L65:
 257:Drivers/LTC681x/LTC681x.c ****   {
 865              		.loc 1 257 0 discriminator 2
 866 0058 0133     		adds	r3, r3, #1
 867              	.LVL102:
 868              	.L63:
 257:Drivers/LTC681x/LTC681x.c ****   {
 869              		.loc 1 257 0 is_stmt 0 discriminator 1
 870 005a 032B     		cmp	r3, #3
 871 005c 0EDC     		bgt	.L69
 259:Drivers/LTC681x/LTC681x.c ****     else ic[nIC].config.tx_data[5] = ic[nIC].config.tx_data[5]&(~(0x01<<i));
 872              		.loc 1 259 0 is_stmt 1
 873 005e D418     		adds	r4, r2, r3
 874 0060 247A     		ldrb	r4, [r4, #8]	@ zero_extendqisi2
ARM GAS  /tmp/ccMCacDa.s 			page 22


 875 0062 002C     		cmp	r4, #0
 876 0064 EDD0     		beq	.L64
 259:Drivers/LTC681x/LTC681x.c ****     else ic[nIC].config.tx_data[5] = ic[nIC].config.tx_data[5]&(~(0x01<<i));
 877              		.loc 1 259 0 is_stmt 0 discriminator 1
 878 0066 C0EBC005 		rsb	r5, r0, r0, lsl #3
 879 006a 6C01     		lsls	r4, r5, #5
 880 006c 0C44     		add	r4, r4, r1
 881 006e 94F90550 		ldrsb	r5, [r4, #5]
 882 0072 0126     		movs	r6, #1
 883 0074 9E40     		lsls	r6, r6, r3
 884 0076 3543     		orrs	r5, r5, r6
 885 0078 6571     		strb	r5, [r4, #5]
 886 007a EDE7     		b	.L65
 887              	.L69:
 888              	.LBE20:
 261:Drivers/LTC681x/LTC681x.c ****   }
 262:Drivers/LTC681x/LTC681x.c **** }
 889              		.loc 1 262 0 is_stmt 1
 890 007c 70BC     		pop	{r4, r5, r6}
 891              	.LCFI15:
 892              		.cfi_restore 6
 893              		.cfi_restore 5
 894              		.cfi_restore 4
 895              		.cfi_def_cfa_offset 0
 896 007e 7047     		bx	lr
 897              		.cfi_endproc
 898              	.LFE11:
 900              		.section	.text.LTC681x_set_cfgr_dcto,"ax",%progbits
 901              		.align	1
 902              		.global	LTC681x_set_cfgr_dcto
 903              		.syntax unified
 904              		.thumb
 905              		.thumb_func
 906              		.fpu softvfp
 908              	LTC681x_set_cfgr_dcto:
 909              	.LFB12:
 263:Drivers/LTC681x/LTC681x.c **** 
 264:Drivers/LTC681x/LTC681x.c **** //Helper function to control discharge time value
 265:Drivers/LTC681x/LTC681x.c **** void LTC681x_set_cfgr_dcto(uint8_t nIC, cell_asic *ic,bool dcto[4])
 266:Drivers/LTC681x/LTC681x.c **** {  
 910              		.loc 1 266 0
 911              		.cfi_startproc
 912              		@ args = 0, pretend = 0, frame = 0
 913              		@ frame_needed = 0, uses_anonymous_args = 0
 914              		@ link register save eliminated.
 915              	.LVL103:
 916              	.LBB21:
 267:Drivers/LTC681x/LTC681x.c ****   for(int i =0;i<4;i++)
 917              		.loc 1 267 0
 918 0000 0023     		movs	r3, #0
 919              	.LVL104:
 920 0002 032B     		cmp	r3, #3
 921 0004 21DC     		bgt	.L78
 922              	.LBE21:
 266:Drivers/LTC681x/LTC681x.c ****   for(int i =0;i<4;i++)
 923              		.loc 1 266 0
 924 0006 F0B4     		push	{r4, r5, r6, r7}
ARM GAS  /tmp/ccMCacDa.s 			page 23


 925              	.LCFI16:
 926              		.cfi_def_cfa_offset 16
 927              		.cfi_offset 4, -16
 928              		.cfi_offset 5, -12
 929              		.cfi_offset 6, -8
 930              		.cfi_offset 7, -4
 931 0008 0EE0     		b	.L74
 932              	.L72:
 933              	.LBB22:
 268:Drivers/LTC681x/LTC681x.c ****   {
 269:Drivers/LTC681x/LTC681x.c ****       if(dcto[i])ic[nIC].config.tx_data[5] = ic[nIC].config.tx_data[5]|(0x01<<(i+4));
 270:Drivers/LTC681x/LTC681x.c ****       else ic[nIC].config.tx_data[5] = ic[nIC].config.tx_data[5]&(~(0x01<<(i+4)));
 934              		.loc 1 270 0
 935 000a C0EBC005 		rsb	r5, r0, r0, lsl #3
 936 000e 6C01     		lsls	r4, r5, #5
 937 0010 0C44     		add	r4, r4, r1
 938 0012 94F90550 		ldrsb	r5, [r4, #5]
 939 0016 1F1D     		adds	r7, r3, #4
 940 0018 0126     		movs	r6, #1
 941 001a BE40     		lsls	r6, r6, r7
 942 001c 25EA0605 		bic	r5, r5, r6
 943 0020 6571     		strb	r5, [r4, #5]
 944              	.L73:
 267:Drivers/LTC681x/LTC681x.c ****   {
 945              		.loc 1 267 0 discriminator 2
 946 0022 0133     		adds	r3, r3, #1
 947              	.LVL105:
 948 0024 032B     		cmp	r3, #3
 949 0026 0EDC     		bgt	.L79
 950              	.L74:
 269:Drivers/LTC681x/LTC681x.c ****       else ic[nIC].config.tx_data[5] = ic[nIC].config.tx_data[5]&(~(0x01<<(i+4)));
 951              		.loc 1 269 0
 952 0028 D45C     		ldrb	r4, [r2, r3]	@ zero_extendqisi2
 953 002a 002C     		cmp	r4, #0
 954 002c EDD0     		beq	.L72
 269:Drivers/LTC681x/LTC681x.c ****       else ic[nIC].config.tx_data[5] = ic[nIC].config.tx_data[5]&(~(0x01<<(i+4)));
 955              		.loc 1 269 0 is_stmt 0 discriminator 1
 956 002e C0EBC005 		rsb	r5, r0, r0, lsl #3
 957 0032 6C01     		lsls	r4, r5, #5
 958 0034 0C44     		add	r4, r4, r1
 959 0036 94F90550 		ldrsb	r5, [r4, #5]
 960 003a 1F1D     		adds	r7, r3, #4
 961 003c 0126     		movs	r6, #1
 962 003e BE40     		lsls	r6, r6, r7
 963 0040 3543     		orrs	r5, r5, r6
 964 0042 6571     		strb	r5, [r4, #5]
 965 0044 EDE7     		b	.L73
 966              	.L79:
 967              	.LBE22:
 271:Drivers/LTC681x/LTC681x.c ****   } 
 272:Drivers/LTC681x/LTC681x.c **** }
 968              		.loc 1 272 0 is_stmt 1
 969 0046 F0BC     		pop	{r4, r5, r6, r7}
 970              	.LCFI17:
 971              		.cfi_restore 7
 972              		.cfi_restore 6
 973              		.cfi_restore 5
ARM GAS  /tmp/ccMCacDa.s 			page 24


 974              		.cfi_restore 4
 975              		.cfi_def_cfa_offset 0
 976 0048 7047     		bx	lr
 977              	.L78:
 978 004a 7047     		bx	lr
 979              		.cfi_endproc
 980              	.LFE12:
 982              		.section	.text.LTC681x_set_cfgr_uv,"ax",%progbits
 983              		.align	1
 984              		.global	LTC681x_set_cfgr_uv
 985              		.syntax unified
 986              		.thumb
 987              		.thumb_func
 988              		.fpu softvfp
 990              	LTC681x_set_cfgr_uv:
 991              	.LFB13:
 273:Drivers/LTC681x/LTC681x.c **** //Helper Function to set uv value in CFG register
 274:Drivers/LTC681x/LTC681x.c **** void LTC681x_set_cfgr_uv(uint8_t nIC, cell_asic *ic,uint16_t uv)
 275:Drivers/LTC681x/LTC681x.c **** {
 992              		.loc 1 275 0
 993              		.cfi_startproc
 994              		@ args = 0, pretend = 0, frame = 0
 995              		@ frame_needed = 0, uses_anonymous_args = 0
 996              		@ link register save eliminated.
 997              	.LVL106:
 276:Drivers/LTC681x/LTC681x.c ****   uint16_t tmp = (uv/16)-1;
 998              		.loc 1 276 0
 999 0000 1209     		lsrs	r2, r2, #4
 1000              	.LVL107:
 1001 0002 013A     		subs	r2, r2, #1
 1002 0004 92B2     		uxth	r2, r2
 1003              	.LVL108:
 277:Drivers/LTC681x/LTC681x.c ****   ic[nIC].config.tx_data[1] = 0x00FF & tmp;
 1004              		.loc 1 277 0
 1005 0006 C0EBC000 		rsb	r0, r0, r0, lsl #3
 1006              	.LVL109:
 1007 000a 4301     		lsls	r3, r0, #5
 1008 000c 1944     		add	r1, r1, r3
 1009              	.LVL110:
 1010 000e 4A70     		strb	r2, [r1, #1]
 278:Drivers/LTC681x/LTC681x.c ****   ic[nIC].config.tx_data[2] = ic[nIC].config.tx_data[2]&0xF0;
 1011              		.loc 1 278 0
 1012 0010 8B78     		ldrb	r3, [r1, #2]	@ zero_extendqisi2
 1013 0012 03F0F003 		and	r3, r3, #240
 279:Drivers/LTC681x/LTC681x.c ****   ic[nIC].config.tx_data[2] = ic[nIC].config.tx_data[2]|((0x0F00 & tmp)>>8);
 1014              		.loc 1 279 0
 1015 0016 5BB2     		sxtb	r3, r3
 1016 0018 C2F30322 		ubfx	r2, r2, #8, #4
 1017              	.LVL111:
 1018 001c 1A43     		orrs	r2, r2, r3
 1019 001e 8A70     		strb	r2, [r1, #2]
 280:Drivers/LTC681x/LTC681x.c **** }
 1020              		.loc 1 280 0
 1021 0020 7047     		bx	lr
 1022              		.cfi_endproc
 1023              	.LFE13:
 1025              		.section	.text.LTC681x_set_cfgr_ov,"ax",%progbits
ARM GAS  /tmp/ccMCacDa.s 			page 25


 1026              		.align	1
 1027              		.global	LTC681x_set_cfgr_ov
 1028              		.syntax unified
 1029              		.thumb
 1030              		.thumb_func
 1031              		.fpu softvfp
 1033              	LTC681x_set_cfgr_ov:
 1034              	.LFB14:
 281:Drivers/LTC681x/LTC681x.c **** 
 282:Drivers/LTC681x/LTC681x.c **** //helper function to set OV value in CFG register
 283:Drivers/LTC681x/LTC681x.c **** void LTC681x_set_cfgr_ov(uint8_t nIC, cell_asic *ic,uint16_t ov)
 284:Drivers/LTC681x/LTC681x.c **** {
 1035              		.loc 1 284 0
 1036              		.cfi_startproc
 1037              		@ args = 0, pretend = 0, frame = 0
 1038              		@ frame_needed = 0, uses_anonymous_args = 0
 1039              		@ link register save eliminated.
 1040              	.LVL112:
 1041 0000 10B4     		push	{r4}
 1042              	.LCFI18:
 1043              		.cfi_def_cfa_offset 4
 1044              		.cfi_offset 4, -4
 285:Drivers/LTC681x/LTC681x.c ****   uint16_t tmp = (ov/16);
 1045              		.loc 1 285 0
 1046 0002 1409     		lsrs	r4, r2, #4
 1047              	.LVL113:
 286:Drivers/LTC681x/LTC681x.c ****   ic[nIC].config.tx_data[3] = 0x00FF & (tmp>>4);
 1048              		.loc 1 286 0
 1049 0004 C0EBC000 		rsb	r0, r0, r0, lsl #3
 1050              	.LVL114:
 1051 0008 4301     		lsls	r3, r0, #5
 1052 000a 1944     		add	r1, r1, r3
 1053              	.LVL115:
 1054 000c 2309     		lsrs	r3, r4, #4
 1055 000e CB70     		strb	r3, [r1, #3]
 287:Drivers/LTC681x/LTC681x.c ****   ic[nIC].config.tx_data[2] = ic[nIC].config.tx_data[2]&0x0F;
 1056              		.loc 1 287 0
 1057 0010 8A78     		ldrb	r2, [r1, #2]	@ zero_extendqisi2
 1058              	.LVL116:
 288:Drivers/LTC681x/LTC681x.c ****   ic[nIC].config.tx_data[2] = ic[nIC].config.tx_data[2]|((0x000F & tmp)<<4);
 1059              		.loc 1 288 0
 1060 0012 02F00F02 		and	r2, r2, #15
 1061 0016 42EA0412 		orr	r2, r2, r4, lsl #4
 1062 001a 8A70     		strb	r2, [r1, #2]
 289:Drivers/LTC681x/LTC681x.c **** }
 1063              		.loc 1 289 0
 1064 001c 10BC     		pop	{r4}
 1065              	.LCFI19:
 1066              		.cfi_restore 4
 1067              		.cfi_def_cfa_offset 0
 1068              	.LVL117:
 1069 001e 7047     		bx	lr
 1070              		.cfi_endproc
 1071              	.LFE14:
 1073              		.section	.text.LTC681x_set_cfgr,"ax",%progbits
 1074              		.align	1
 1075              		.global	LTC681x_set_cfgr
ARM GAS  /tmp/ccMCacDa.s 			page 26


 1076              		.syntax unified
 1077              		.thumb
 1078              		.thumb_func
 1079              		.fpu softvfp
 1081              	LTC681x_set_cfgr:
 1082              	.LFB7:
 214:Drivers/LTC681x/LTC681x.c ****   LTC681x_set_cfgr_refon(nIC,ic,refon);
 1083              		.loc 1 214 0
 1084              		.cfi_startproc
 1085              		@ args = 20, pretend = 0, frame = 0
 1086              		@ frame_needed = 0, uses_anonymous_args = 0
 1087              	.LVL118:
 1088 0000 70B5     		push	{r4, r5, r6, lr}
 1089              	.LCFI20:
 1090              		.cfi_def_cfa_offset 16
 1091              		.cfi_offset 4, -16
 1092              		.cfi_offset 5, -12
 1093              		.cfi_offset 6, -8
 1094              		.cfi_offset 14, -4
 1095 0002 0446     		mov	r4, r0
 1096 0004 0D46     		mov	r5, r1
 1097 0006 1E46     		mov	r6, r3
 215:Drivers/LTC681x/LTC681x.c ****   LTC681x_set_cfgr_adcopt(nIC,ic,adcopt);
 1098              		.loc 1 215 0
 1099 0008 FFF7FEFF 		bl	LTC681x_set_cfgr_refon
 1100              	.LVL119:
 216:Drivers/LTC681x/LTC681x.c ****   LTC681x_set_cfgr_gpio(nIC,ic,gpio);
 1101              		.loc 1 216 0
 1102 000c 3246     		mov	r2, r6
 1103 000e 2946     		mov	r1, r5
 1104 0010 2046     		mov	r0, r4
 1105 0012 FFF7FEFF 		bl	LTC681x_set_cfgr_adcopt
 1106              	.LVL120:
 217:Drivers/LTC681x/LTC681x.c ****   LTC681x_set_cfgr_dis(nIC,ic,dcc);
 1107              		.loc 1 217 0
 1108 0016 049A     		ldr	r2, [sp, #16]
 1109 0018 2946     		mov	r1, r5
 1110 001a 2046     		mov	r0, r4
 1111 001c FFF7FEFF 		bl	LTC681x_set_cfgr_gpio
 1112              	.LVL121:
 218:Drivers/LTC681x/LTC681x.c ****   LTC681x_set_cfgr_dcto(nIC,ic,dcto);
 1113              		.loc 1 218 0
 1114 0020 059A     		ldr	r2, [sp, #20]
 1115 0022 2946     		mov	r1, r5
 1116 0024 2046     		mov	r0, r4
 1117 0026 FFF7FEFF 		bl	LTC681x_set_cfgr_dis
 1118              	.LVL122:
 219:Drivers/LTC681x/LTC681x.c ****   LTC681x_set_cfgr_uv(nIC, ic, uv);
 1119              		.loc 1 219 0
 1120 002a 069A     		ldr	r2, [sp, #24]
 1121 002c 2946     		mov	r1, r5
 1122 002e 2046     		mov	r0, r4
 1123 0030 FFF7FEFF 		bl	LTC681x_set_cfgr_dcto
 1124              	.LVL123:
 220:Drivers/LTC681x/LTC681x.c ****   LTC681x_set_cfgr_ov(nIC, ic, ov);
 1125              		.loc 1 220 0
 1126 0034 BDF81C20 		ldrh	r2, [sp, #28]
ARM GAS  /tmp/ccMCacDa.s 			page 27


 1127 0038 2946     		mov	r1, r5
 1128 003a 2046     		mov	r0, r4
 1129 003c FFF7FEFF 		bl	LTC681x_set_cfgr_uv
 1130              	.LVL124:
 221:Drivers/LTC681x/LTC681x.c **** }
 1131              		.loc 1 221 0
 1132 0040 BDF82020 		ldrh	r2, [sp, #32]
 1133 0044 2946     		mov	r1, r5
 1134 0046 2046     		mov	r0, r4
 1135 0048 FFF7FEFF 		bl	LTC681x_set_cfgr_ov
 1136              	.LVL125:
 222:Drivers/LTC681x/LTC681x.c **** 
 1137              		.loc 1 222 0
 1138 004c 70BD     		pop	{r4, r5, r6, pc}
 1139              		.cfi_endproc
 1140              	.LFE7:
 1142              		.section	.text.LTC681x_adcv,"ax",%progbits
 1143              		.align	1
 1144              		.global	LTC681x_adcv
 1145              		.syntax unified
 1146              		.thumb
 1147              		.thumb_func
 1148              		.fpu softvfp
 1150              	LTC681x_adcv:
 1151              	.LFB15:
 290:Drivers/LTC681x/LTC681x.c **** 
 291:Drivers/LTC681x/LTC681x.c **** //Starts cell voltage conversion
 292:Drivers/LTC681x/LTC681x.c **** void LTC681x_adcv( uint8_t MD, //ADC Mode
 293:Drivers/LTC681x/LTC681x.c **** 				   uint8_t DCP, //Discharge Permit
 294:Drivers/LTC681x/LTC681x.c **** 				   uint8_t CH //Cell Channels to be measured
 295:Drivers/LTC681x/LTC681x.c ****                  )
 296:Drivers/LTC681x/LTC681x.c **** {
 1152              		.loc 1 296 0
 1153              		.cfi_startproc
 1154              		@ args = 0, pretend = 0, frame = 8
 1155              		@ frame_needed = 0, uses_anonymous_args = 0
 1156              	.LVL126:
 1157 0000 00B5     		push	{lr}
 1158              	.LCFI21:
 1159              		.cfi_def_cfa_offset 4
 1160              		.cfi_offset 14, -4
 1161 0002 83B0     		sub	sp, sp, #12
 1162              	.LCFI22:
 1163              		.cfi_def_cfa_offset 16
 297:Drivers/LTC681x/LTC681x.c **** 	uint8_t cmd[2];
 298:Drivers/LTC681x/LTC681x.c **** 	uint8_t md_bits;
 299:Drivers/LTC681x/LTC681x.c **** 	md_bits = (MD & 0x02) >> 1;
 1164              		.loc 1 299 0
 1165 0004 C0F34003 		ubfx	r3, r0, #1, #1
 1166              	.LVL127:
 300:Drivers/LTC681x/LTC681x.c **** 	cmd[0] = md_bits + 0x02;
 1167              		.loc 1 300 0
 1168 0008 0233     		adds	r3, r3, #2
 1169              	.LVL128:
 1170 000a 8DF80430 		strb	r3, [sp, #4]
 301:Drivers/LTC681x/LTC681x.c **** 	md_bits = (MD & 0x01) << 7;
 1171              		.loc 1 301 0
ARM GAS  /tmp/ccMCacDa.s 			page 28


 1172 000e C001     		lsls	r0, r0, #7
 1173              	.LVL129:
 1174 0010 C0B2     		uxtb	r0, r0
 1175              	.LVL130:
 302:Drivers/LTC681x/LTC681x.c **** 	cmd[1] =  md_bits + 0x60 + (DCP<<4) + CH;
 1176              		.loc 1 302 0
 1177 0012 0901     		lsls	r1, r1, #4
 1178              	.LVL131:
 1179 0014 C9B2     		uxtb	r1, r1
 1180 0016 0144     		add	r1, r1, r0
 1181 0018 C9B2     		uxtb	r1, r1
 1182 001a 0A44     		add	r2, r2, r1
 1183              	.LVL132:
 1184 001c 6032     		adds	r2, r2, #96
 1185 001e 8DF80520 		strb	r2, [sp, #5]
 303:Drivers/LTC681x/LTC681x.c **** 	cmd_68(cmd);
 1186              		.loc 1 303 0
 1187 0022 01A8     		add	r0, sp, #4
 1188              	.LVL133:
 1189 0024 FFF7FEFF 		bl	cmd_68
 1190              	.LVL134:
 304:Drivers/LTC681x/LTC681x.c **** }
 1191              		.loc 1 304 0
 1192 0028 03B0     		add	sp, sp, #12
 1193              	.LCFI23:
 1194              		.cfi_def_cfa_offset 4
 1195              		@ sp needed
 1196 002a 5DF804FB 		ldr	pc, [sp], #4
 1197              		.cfi_endproc
 1198              	.LFE15:
 1200              		.section	.text.LTC681x_adax,"ax",%progbits
 1201              		.align	1
 1202              		.global	LTC681x_adax
 1203              		.syntax unified
 1204              		.thumb
 1205              		.thumb_func
 1206              		.fpu softvfp
 1208              	LTC681x_adax:
 1209              	.LFB16:
 305:Drivers/LTC681x/LTC681x.c **** 
 306:Drivers/LTC681x/LTC681x.c **** //Start a GPIO and Vref2 Conversion
 307:Drivers/LTC681x/LTC681x.c **** void LTC681x_adax(uint8_t MD, //ADC Mode
 308:Drivers/LTC681x/LTC681x.c **** 				  uint8_t CHG //GPIO Channels to be measured)
 309:Drivers/LTC681x/LTC681x.c **** 				  )
 310:Drivers/LTC681x/LTC681x.c **** {
 1210              		.loc 1 310 0
 1211              		.cfi_startproc
 1212              		@ args = 0, pretend = 0, frame = 8
 1213              		@ frame_needed = 0, uses_anonymous_args = 0
 1214              	.LVL135:
 1215 0000 00B5     		push	{lr}
 1216              	.LCFI24:
 1217              		.cfi_def_cfa_offset 4
 1218              		.cfi_offset 14, -4
 1219 0002 83B0     		sub	sp, sp, #12
 1220              	.LCFI25:
 1221              		.cfi_def_cfa_offset 16
ARM GAS  /tmp/ccMCacDa.s 			page 29


 311:Drivers/LTC681x/LTC681x.c ****   uint8_t cmd[4];
 312:Drivers/LTC681x/LTC681x.c ****   uint8_t md_bits;
 313:Drivers/LTC681x/LTC681x.c **** 
 314:Drivers/LTC681x/LTC681x.c ****   md_bits = (MD & 0x02) >> 1;
 1222              		.loc 1 314 0
 1223 0004 C0F34003 		ubfx	r3, r0, #1, #1
 1224              	.LVL136:
 315:Drivers/LTC681x/LTC681x.c ****   cmd[0] = md_bits + 0x04;
 1225              		.loc 1 315 0
 1226 0008 0433     		adds	r3, r3, #4
 1227              	.LVL137:
 1228 000a 8DF80430 		strb	r3, [sp, #4]
 316:Drivers/LTC681x/LTC681x.c ****   md_bits = (MD & 0x01) << 7;
 1229              		.loc 1 316 0
 1230 000e C001     		lsls	r0, r0, #7
 1231              	.LVL138:
 1232 0010 C0B2     		uxtb	r0, r0
 1233              	.LVL139:
 317:Drivers/LTC681x/LTC681x.c ****   cmd[1] = md_bits + 0x60 + CHG ;
 1234              		.loc 1 317 0
 1235 0012 0844     		add	r0, r0, r1
 1236              	.LVL140:
 1237 0014 6030     		adds	r0, r0, #96
 1238 0016 8DF80500 		strb	r0, [sp, #5]
 318:Drivers/LTC681x/LTC681x.c ****   cmd_68(cmd);
 1239              		.loc 1 318 0
 1240 001a 01A8     		add	r0, sp, #4
 1241 001c FFF7FEFF 		bl	cmd_68
 1242              	.LVL141:
 319:Drivers/LTC681x/LTC681x.c **** 
 320:Drivers/LTC681x/LTC681x.c **** }
 1243              		.loc 1 320 0
 1244 0020 03B0     		add	sp, sp, #12
 1245              	.LCFI26:
 1246              		.cfi_def_cfa_offset 4
 1247              		@ sp needed
 1248 0022 5DF804FB 		ldr	pc, [sp], #4
 1249              		.cfi_endproc
 1250              	.LFE16:
 1252              		.section	.text.LTC681x_adaxd,"ax",%progbits
 1253              		.align	1
 1254              		.global	LTC681x_adaxd
 1255              		.syntax unified
 1256              		.thumb
 1257              		.thumb_func
 1258              		.fpu softvfp
 1260              	LTC681x_adaxd:
 1261              	.LFB17:
 321:Drivers/LTC681x/LTC681x.c **** 
 322:Drivers/LTC681x/LTC681x.c **** //Start an GPIO Redundancy test
 323:Drivers/LTC681x/LTC681x.c **** void LTC681x_adaxd(uint8_t MD, //ADC Mode
 324:Drivers/LTC681x/LTC681x.c **** 				   uint8_t CHG //GPIO Channels to be measured)
 325:Drivers/LTC681x/LTC681x.c **** 				   )
 326:Drivers/LTC681x/LTC681x.c **** {
 1262              		.loc 1 326 0
 1263              		.cfi_startproc
 1264              		@ args = 0, pretend = 0, frame = 8
ARM GAS  /tmp/ccMCacDa.s 			page 30


 1265              		@ frame_needed = 0, uses_anonymous_args = 0
 1266              	.LVL142:
 1267 0000 00B5     		push	{lr}
 1268              	.LCFI27:
 1269              		.cfi_def_cfa_offset 4
 1270              		.cfi_offset 14, -4
 1271 0002 83B0     		sub	sp, sp, #12
 1272              	.LCFI28:
 1273              		.cfi_def_cfa_offset 16
 327:Drivers/LTC681x/LTC681x.c ****   uint8_t cmd[4];
 328:Drivers/LTC681x/LTC681x.c ****   uint8_t md_bits;
 329:Drivers/LTC681x/LTC681x.c **** 
 330:Drivers/LTC681x/LTC681x.c ****   md_bits = (MD & 0x02) >> 1;
 1274              		.loc 1 330 0
 1275 0004 C0F34003 		ubfx	r3, r0, #1, #1
 1276              	.LVL143:
 331:Drivers/LTC681x/LTC681x.c ****   cmd[0] = md_bits + 0x04;
 1277              		.loc 1 331 0
 1278 0008 0433     		adds	r3, r3, #4
 1279              	.LVL144:
 1280 000a 8DF80430 		strb	r3, [sp, #4]
 332:Drivers/LTC681x/LTC681x.c ****   md_bits = (MD & 0x01) << 7;
 1281              		.loc 1 332 0
 1282 000e C001     		lsls	r0, r0, #7
 1283              	.LVL145:
 1284 0010 C0B2     		uxtb	r0, r0
 1285              	.LVL146:
 333:Drivers/LTC681x/LTC681x.c ****   cmd[1] = md_bits + CHG ;
 1286              		.loc 1 333 0
 1287 0012 0844     		add	r0, r0, r1
 1288              	.LVL147:
 1289 0014 8DF80500 		strb	r0, [sp, #5]
 334:Drivers/LTC681x/LTC681x.c ****   cmd_68(cmd);
 1290              		.loc 1 334 0
 1291 0018 01A8     		add	r0, sp, #4
 1292 001a FFF7FEFF 		bl	cmd_68
 1293              	.LVL148:
 335:Drivers/LTC681x/LTC681x.c **** }
 1294              		.loc 1 335 0
 1295 001e 03B0     		add	sp, sp, #12
 1296              	.LCFI29:
 1297              		.cfi_def_cfa_offset 4
 1298              		@ sp needed
 1299 0020 5DF804FB 		ldr	pc, [sp], #4
 1300              		.cfi_endproc
 1301              	.LFE17:
 1303              		.section	.text.LTC681x_adstat,"ax",%progbits
 1304              		.align	1
 1305              		.global	LTC681x_adstat
 1306              		.syntax unified
 1307              		.thumb
 1308              		.thumb_func
 1309              		.fpu softvfp
 1311              	LTC681x_adstat:
 1312              	.LFB18:
 336:Drivers/LTC681x/LTC681x.c **** 
 337:Drivers/LTC681x/LTC681x.c **** //Start a Status ADC Conversion
ARM GAS  /tmp/ccMCacDa.s 			page 31


 338:Drivers/LTC681x/LTC681x.c **** void LTC681x_adstat(uint8_t MD, //ADC Mode
 339:Drivers/LTC681x/LTC681x.c **** 				    uint8_t CHST //GPIO Channels to be measured
 340:Drivers/LTC681x/LTC681x.c **** 				    )
 341:Drivers/LTC681x/LTC681x.c **** {
 1313              		.loc 1 341 0
 1314              		.cfi_startproc
 1315              		@ args = 0, pretend = 0, frame = 8
 1316              		@ frame_needed = 0, uses_anonymous_args = 0
 1317              	.LVL149:
 1318 0000 00B5     		push	{lr}
 1319              	.LCFI30:
 1320              		.cfi_def_cfa_offset 4
 1321              		.cfi_offset 14, -4
 1322 0002 83B0     		sub	sp, sp, #12
 1323              	.LCFI31:
 1324              		.cfi_def_cfa_offset 16
 342:Drivers/LTC681x/LTC681x.c ****   uint8_t cmd[4];
 343:Drivers/LTC681x/LTC681x.c ****   uint8_t md_bits;
 344:Drivers/LTC681x/LTC681x.c **** 
 345:Drivers/LTC681x/LTC681x.c ****   md_bits = (MD & 0x02) >> 1;
 1325              		.loc 1 345 0
 1326 0004 C0F34003 		ubfx	r3, r0, #1, #1
 1327              	.LVL150:
 346:Drivers/LTC681x/LTC681x.c ****   cmd[0] = md_bits + 0x04;
 1328              		.loc 1 346 0
 1329 0008 0433     		adds	r3, r3, #4
 1330              	.LVL151:
 1331 000a 8DF80430 		strb	r3, [sp, #4]
 347:Drivers/LTC681x/LTC681x.c ****   md_bits = (MD & 0x01) << 7;
 1332              		.loc 1 347 0
 1333 000e C001     		lsls	r0, r0, #7
 1334              	.LVL152:
 1335 0010 C0B2     		uxtb	r0, r0
 1336              	.LVL153:
 348:Drivers/LTC681x/LTC681x.c ****   cmd[1] = md_bits + 0x68 + CHST ;
 1337              		.loc 1 348 0
 1338 0012 0844     		add	r0, r0, r1
 1339              	.LVL154:
 1340 0014 6830     		adds	r0, r0, #104
 1341 0016 8DF80500 		strb	r0, [sp, #5]
 349:Drivers/LTC681x/LTC681x.c ****   cmd_68(cmd);
 1342              		.loc 1 349 0
 1343 001a 01A8     		add	r0, sp, #4
 1344 001c FFF7FEFF 		bl	cmd_68
 1345              	.LVL155:
 350:Drivers/LTC681x/LTC681x.c **** }
 1346              		.loc 1 350 0
 1347 0020 03B0     		add	sp, sp, #12
 1348              	.LCFI32:
 1349              		.cfi_def_cfa_offset 4
 1350              		@ sp needed
 1351 0022 5DF804FB 		ldr	pc, [sp], #4
 1352              		.cfi_endproc
 1353              	.LFE18:
 1355              		.section	.text.LTC681x_adstatd,"ax",%progbits
 1356              		.align	1
 1357              		.global	LTC681x_adstatd
ARM GAS  /tmp/ccMCacDa.s 			page 32


 1358              		.syntax unified
 1359              		.thumb
 1360              		.thumb_func
 1361              		.fpu softvfp
 1363              	LTC681x_adstatd:
 1364              	.LFB19:
 351:Drivers/LTC681x/LTC681x.c **** 
 352:Drivers/LTC681x/LTC681x.c **** // Start a Status register redundancy test Conversion
 353:Drivers/LTC681x/LTC681x.c **** void LTC681x_adstatd(uint8_t MD, //ADC Mode
 354:Drivers/LTC681x/LTC681x.c **** 					 uint8_t CHST //GPIO Channels to be measured
 355:Drivers/LTC681x/LTC681x.c **** 					 )
 356:Drivers/LTC681x/LTC681x.c **** {
 1365              		.loc 1 356 0
 1366              		.cfi_startproc
 1367              		@ args = 0, pretend = 0, frame = 8
 1368              		@ frame_needed = 0, uses_anonymous_args = 0
 1369              	.LVL156:
 1370 0000 00B5     		push	{lr}
 1371              	.LCFI33:
 1372              		.cfi_def_cfa_offset 4
 1373              		.cfi_offset 14, -4
 1374 0002 83B0     		sub	sp, sp, #12
 1375              	.LCFI34:
 1376              		.cfi_def_cfa_offset 16
 357:Drivers/LTC681x/LTC681x.c ****   uint8_t cmd[2];
 358:Drivers/LTC681x/LTC681x.c ****   uint8_t md_bits;
 359:Drivers/LTC681x/LTC681x.c **** 
 360:Drivers/LTC681x/LTC681x.c ****   md_bits = (MD & 0x02) >> 1;
 1377              		.loc 1 360 0
 1378 0004 C0F34003 		ubfx	r3, r0, #1, #1
 1379              	.LVL157:
 361:Drivers/LTC681x/LTC681x.c ****   cmd[0] = md_bits + 0x04;
 1380              		.loc 1 361 0
 1381 0008 0433     		adds	r3, r3, #4
 1382              	.LVL158:
 1383 000a 8DF80430 		strb	r3, [sp, #4]
 362:Drivers/LTC681x/LTC681x.c ****   md_bits = (MD & 0x01) << 7;
 1384              		.loc 1 362 0
 1385 000e C001     		lsls	r0, r0, #7
 1386              	.LVL159:
 1387 0010 C0B2     		uxtb	r0, r0
 1388              	.LVL160:
 363:Drivers/LTC681x/LTC681x.c ****   cmd[1] = md_bits + 0x08 + CHST ;
 1389              		.loc 1 363 0
 1390 0012 0844     		add	r0, r0, r1
 1391              	.LVL161:
 1392 0014 0830     		adds	r0, r0, #8
 1393 0016 8DF80500 		strb	r0, [sp, #5]
 364:Drivers/LTC681x/LTC681x.c ****   cmd_68(cmd);
 1394              		.loc 1 364 0
 1395 001a 01A8     		add	r0, sp, #4
 1396 001c FFF7FEFF 		bl	cmd_68
 1397              	.LVL162:
 365:Drivers/LTC681x/LTC681x.c **** 
 366:Drivers/LTC681x/LTC681x.c **** }
 1398              		.loc 1 366 0
 1399 0020 03B0     		add	sp, sp, #12
ARM GAS  /tmp/ccMCacDa.s 			page 33


 1400              	.LCFI35:
 1401              		.cfi_def_cfa_offset 4
 1402              		@ sp needed
 1403 0022 5DF804FB 		ldr	pc, [sp], #4
 1404              		.cfi_endproc
 1405              	.LFE19:
 1407              		.section	.text.LTC681x_adow,"ax",%progbits
 1408              		.align	1
 1409              		.global	LTC681x_adow
 1410              		.syntax unified
 1411              		.thumb
 1412              		.thumb_func
 1413              		.fpu softvfp
 1415              	LTC681x_adow:
 1416              	.LFB20:
 367:Drivers/LTC681x/LTC681x.c **** 
 368:Drivers/LTC681x/LTC681x.c **** // Start an open wire Conversion
 369:Drivers/LTC681x/LTC681x.c **** void LTC681x_adow(uint8_t MD, //ADC Mode
 370:Drivers/LTC681x/LTC681x.c **** 				  uint8_t PUP,//PULL UP OR DOWN current
 371:Drivers/LTC681x/LTC681x.c **** 				  uint8_t CH, //Channels
 372:Drivers/LTC681x/LTC681x.c **** 				  uint8_t DCP//Discharge Permit
 373:Drivers/LTC681x/LTC681x.c **** 				 )
 374:Drivers/LTC681x/LTC681x.c **** {
 1417              		.loc 1 374 0
 1418              		.cfi_startproc
 1419              		@ args = 0, pretend = 0, frame = 8
 1420              		@ frame_needed = 0, uses_anonymous_args = 0
 1421              	.LVL163:
 1422 0000 10B5     		push	{r4, lr}
 1423              	.LCFI36:
 1424              		.cfi_def_cfa_offset 8
 1425              		.cfi_offset 4, -8
 1426              		.cfi_offset 14, -4
 1427 0002 82B0     		sub	sp, sp, #8
 1428              	.LCFI37:
 1429              		.cfi_def_cfa_offset 16
 375:Drivers/LTC681x/LTC681x.c ****   uint8_t cmd[2];
 376:Drivers/LTC681x/LTC681x.c ****   uint8_t md_bits;
 377:Drivers/LTC681x/LTC681x.c ****   md_bits = (MD & 0x02) >> 1;
 1430              		.loc 1 377 0
 1431 0004 C0F34004 		ubfx	r4, r0, #1, #1
 1432              	.LVL164:
 378:Drivers/LTC681x/LTC681x.c ****   cmd[0] = md_bits + 0x02;
 1433              		.loc 1 378 0
 1434 0008 0234     		adds	r4, r4, #2
 1435              	.LVL165:
 1436 000a 8DF80440 		strb	r4, [sp, #4]
 379:Drivers/LTC681x/LTC681x.c ****   md_bits = (MD & 0x01) << 7;
 1437              		.loc 1 379 0
 1438 000e C001     		lsls	r0, r0, #7
 1439              	.LVL166:
 1440 0010 C0B2     		uxtb	r0, r0
 1441              	.LVL167:
 380:Drivers/LTC681x/LTC681x.c ****   cmd[1] =  md_bits + 0x28 + (PUP<<6) + CH+(DCP<<4);
 1442              		.loc 1 380 0
 1443 0012 8901     		lsls	r1, r1, #6
 1444              	.LVL168:
ARM GAS  /tmp/ccMCacDa.s 			page 34


 1445 0014 C9B2     		uxtb	r1, r1
 1446 0016 0144     		add	r1, r1, r0
 1447 0018 C9B2     		uxtb	r1, r1
 1448 001a 0A44     		add	r2, r2, r1
 1449              	.LVL169:
 1450 001c D2B2     		uxtb	r2, r2
 1451 001e 1B01     		lsls	r3, r3, #4
 1452              	.LVL170:
 1453 0020 DBB2     		uxtb	r3, r3
 1454 0022 1A44     		add	r2, r2, r3
 1455 0024 2832     		adds	r2, r2, #40
 1456 0026 8DF80520 		strb	r2, [sp, #5]
 381:Drivers/LTC681x/LTC681x.c ****   cmd_68(cmd);
 1457              		.loc 1 381 0
 1458 002a 01A8     		add	r0, sp, #4
 1459              	.LVL171:
 1460 002c FFF7FEFF 		bl	cmd_68
 1461              	.LVL172:
 382:Drivers/LTC681x/LTC681x.c **** }
 1462              		.loc 1 382 0
 1463 0030 02B0     		add	sp, sp, #8
 1464              	.LCFI38:
 1465              		.cfi_def_cfa_offset 8
 1466              		@ sp needed
 1467 0032 10BD     		pop	{r4, pc}
 1468              		.cfi_endproc
 1469              	.LFE20:
 1471              		.section	.text.LTC681x_adcvsc,"ax",%progbits
 1472              		.align	1
 1473              		.global	LTC681x_adcvsc
 1474              		.syntax unified
 1475              		.thumb
 1476              		.thumb_func
 1477              		.fpu softvfp
 1479              	LTC681x_adcvsc:
 1480              	.LFB21:
 383:Drivers/LTC681x/LTC681x.c **** 
 384:Drivers/LTC681x/LTC681x.c **** //Starts cell voltage and SOC conversion
 385:Drivers/LTC681x/LTC681x.c **** void LTC681x_adcvsc(uint8_t MD, //ADC Mode
 386:Drivers/LTC681x/LTC681x.c **** 					uint8_t DCP //Discharge Permit
 387:Drivers/LTC681x/LTC681x.c **** 					)
 388:Drivers/LTC681x/LTC681x.c **** {
 1481              		.loc 1 388 0
 1482              		.cfi_startproc
 1483              		@ args = 0, pretend = 0, frame = 8
 1484              		@ frame_needed = 0, uses_anonymous_args = 0
 1485              	.LVL173:
 1486 0000 00B5     		push	{lr}
 1487              	.LCFI39:
 1488              		.cfi_def_cfa_offset 4
 1489              		.cfi_offset 14, -4
 1490 0002 83B0     		sub	sp, sp, #12
 1491              	.LCFI40:
 1492              		.cfi_def_cfa_offset 16
 389:Drivers/LTC681x/LTC681x.c **** 	uint8_t cmd[2];
 390:Drivers/LTC681x/LTC681x.c **** 	uint8_t md_bits;
 391:Drivers/LTC681x/LTC681x.c **** 	md_bits = (MD & 0x02) >> 1;
ARM GAS  /tmp/ccMCacDa.s 			page 35


 1493              		.loc 1 391 0
 1494 0004 C0F34003 		ubfx	r3, r0, #1, #1
 1495              	.LVL174:
 392:Drivers/LTC681x/LTC681x.c **** 	cmd[0] = md_bits | 0x04;
 1496              		.loc 1 392 0
 1497 0008 43F00403 		orr	r3, r3, #4
 1498              	.LVL175:
 1499 000c 8DF80430 		strb	r3, [sp, #4]
 393:Drivers/LTC681x/LTC681x.c **** 	md_bits = (MD & 0x01) << 7;
 1500              		.loc 1 393 0
 1501 0010 C001     		lsls	r0, r0, #7
 1502              	.LVL176:
 1503 0012 C0B2     		uxtb	r0, r0
 1504              	.LVL177:
 394:Drivers/LTC681x/LTC681x.c **** 	cmd[1] =  md_bits | 0x60 | (DCP<<4) | 0x07;
 1505              		.loc 1 394 0
 1506 0014 40EA0110 		orr	r0, r0, r1, lsl #4
 1507              	.LVL178:
 1508 0018 C0B2     		uxtb	r0, r0
 1509 001a 40F06700 		orr	r0, r0, #103
 1510 001e 8DF80500 		strb	r0, [sp, #5]
 395:Drivers/LTC681x/LTC681x.c **** 	cmd_68(cmd);
 1511              		.loc 1 395 0
 1512 0022 01A8     		add	r0, sp, #4
 1513 0024 FFF7FEFF 		bl	cmd_68
 1514              	.LVL179:
 396:Drivers/LTC681x/LTC681x.c **** 
 397:Drivers/LTC681x/LTC681x.c **** }
 1515              		.loc 1 397 0
 1516 0028 03B0     		add	sp, sp, #12
 1517              	.LCFI41:
 1518              		.cfi_def_cfa_offset 4
 1519              		@ sp needed
 1520 002a 5DF804FB 		ldr	pc, [sp], #4
 1521              		.cfi_endproc
 1522              	.LFE21:
 1524              		.section	.text.LTC681x_adcvax,"ax",%progbits
 1525              		.align	1
 1526              		.global	LTC681x_adcvax
 1527              		.syntax unified
 1528              		.thumb
 1529              		.thumb_func
 1530              		.fpu softvfp
 1532              	LTC681x_adcvax:
 1533              	.LFB22:
 398:Drivers/LTC681x/LTC681x.c **** 
 399:Drivers/LTC681x/LTC681x.c **** // Starts cell voltage  and GPIO 1&2 conversion
 400:Drivers/LTC681x/LTC681x.c **** void LTC681x_adcvax(uint8_t MD, //ADC Mode
 401:Drivers/LTC681x/LTC681x.c **** 					uint8_t DCP //Discharge Permit
 402:Drivers/LTC681x/LTC681x.c **** 				   )
 403:Drivers/LTC681x/LTC681x.c **** {
 1534              		.loc 1 403 0
 1535              		.cfi_startproc
 1536              		@ args = 0, pretend = 0, frame = 8
 1537              		@ frame_needed = 0, uses_anonymous_args = 0
 1538              	.LVL180:
 1539 0000 00B5     		push	{lr}
ARM GAS  /tmp/ccMCacDa.s 			page 36


 1540              	.LCFI42:
 1541              		.cfi_def_cfa_offset 4
 1542              		.cfi_offset 14, -4
 1543 0002 83B0     		sub	sp, sp, #12
 1544              	.LCFI43:
 1545              		.cfi_def_cfa_offset 16
 404:Drivers/LTC681x/LTC681x.c **** 	uint8_t cmd[2];
 405:Drivers/LTC681x/LTC681x.c **** 	uint8_t md_bits;
 406:Drivers/LTC681x/LTC681x.c **** 	md_bits = (MD & 0x02) >> 1;
 1546              		.loc 1 406 0
 1547 0004 C0F34003 		ubfx	r3, r0, #1, #1
 1548              	.LVL181:
 407:Drivers/LTC681x/LTC681x.c **** 	cmd[0] = md_bits | 0x04;
 1549              		.loc 1 407 0
 1550 0008 43F00403 		orr	r3, r3, #4
 1551              	.LVL182:
 1552 000c 8DF80430 		strb	r3, [sp, #4]
 1553              	.LVL183:
 408:Drivers/LTC681x/LTC681x.c **** 	md_bits = (MD & 0x01) << 7;
 409:Drivers/LTC681x/LTC681x.c **** 	cmd[1] =  md_bits | ((DCP&0x01)<<4) + 0x6F;
 1554              		.loc 1 409 0
 1555 0010 0901     		lsls	r1, r1, #4
 1556              	.LVL184:
 1557 0012 01F01001 		and	r1, r1, #16
 1558 0016 6F31     		adds	r1, r1, #111
 1559 0018 49B2     		sxtb	r1, r1
 1560 001a 41EAC010 		orr	r0, r1, r0, lsl #7
 1561              	.LVL185:
 1562 001e 8DF80500 		strb	r0, [sp, #5]
 410:Drivers/LTC681x/LTC681x.c **** 	cmd_68(cmd);
 1563              		.loc 1 410 0
 1564 0022 01A8     		add	r0, sp, #4
 1565 0024 FFF7FEFF 		bl	cmd_68
 1566              	.LVL186:
 411:Drivers/LTC681x/LTC681x.c **** }
 1567              		.loc 1 411 0
 1568 0028 03B0     		add	sp, sp, #12
 1569              	.LCFI44:
 1570              		.cfi_def_cfa_offset 4
 1571              		@ sp needed
 1572 002a 5DF804FB 		ldr	pc, [sp], #4
 1573              		.cfi_endproc
 1574              	.LFE22:
 1576              		.section	.text.LTC681x_adol,"ax",%progbits
 1577              		.align	1
 1578              		.global	LTC681x_adol
 1579              		.syntax unified
 1580              		.thumb
 1581              		.thumb_func
 1582              		.fpu softvfp
 1584              	LTC681x_adol:
 1585              	.LFB23:
 412:Drivers/LTC681x/LTC681x.c **** 
 413:Drivers/LTC681x/LTC681x.c **** //Starts cell voltage overlap conversion
 414:Drivers/LTC681x/LTC681x.c **** void LTC681x_adol(uint8_t MD, //ADC Mode
 415:Drivers/LTC681x/LTC681x.c ****                   uint8_t DCP //Discharge Permit
 416:Drivers/LTC681x/LTC681x.c **** 				 )
ARM GAS  /tmp/ccMCacDa.s 			page 37


 417:Drivers/LTC681x/LTC681x.c **** {
 1586              		.loc 1 417 0
 1587              		.cfi_startproc
 1588              		@ args = 0, pretend = 0, frame = 8
 1589              		@ frame_needed = 0, uses_anonymous_args = 0
 1590              	.LVL187:
 1591 0000 00B5     		push	{lr}
 1592              	.LCFI45:
 1593              		.cfi_def_cfa_offset 4
 1594              		.cfi_offset 14, -4
 1595 0002 83B0     		sub	sp, sp, #12
 1596              	.LCFI46:
 1597              		.cfi_def_cfa_offset 16
 418:Drivers/LTC681x/LTC681x.c **** 	uint8_t cmd[2];
 419:Drivers/LTC681x/LTC681x.c **** 	uint8_t md_bits;
 420:Drivers/LTC681x/LTC681x.c **** 	md_bits = (MD & 0x02) >> 1;
 1598              		.loc 1 420 0
 1599 0004 C0F34003 		ubfx	r3, r0, #1, #1
 1600              	.LVL188:
 421:Drivers/LTC681x/LTC681x.c **** 	cmd[0] = md_bits + 0x02;
 1601              		.loc 1 421 0
 1602 0008 0233     		adds	r3, r3, #2
 1603              	.LVL189:
 1604 000a 8DF80430 		strb	r3, [sp, #4]
 422:Drivers/LTC681x/LTC681x.c **** 	md_bits = (MD & 0x01) << 7;
 1605              		.loc 1 422 0
 1606 000e C001     		lsls	r0, r0, #7
 1607              	.LVL190:
 1608 0010 C0B2     		uxtb	r0, r0
 1609              	.LVL191:
 423:Drivers/LTC681x/LTC681x.c **** 	cmd[1] =  md_bits + (DCP<<4) +0x01;
 1610              		.loc 1 423 0
 1611 0012 0B01     		lsls	r3, r1, #4
 1612 0014 DBB2     		uxtb	r3, r3
 1613 0016 0344     		add	r3, r3, r0
 1614 0018 DBB2     		uxtb	r3, r3
 1615 001a 0133     		adds	r3, r3, #1
 1616 001c 8DF80530 		strb	r3, [sp, #5]
 424:Drivers/LTC681x/LTC681x.c **** 	cmd_68(cmd);
 1617              		.loc 1 424 0
 1618 0020 01A8     		add	r0, sp, #4
 1619              	.LVL192:
 1620 0022 FFF7FEFF 		bl	cmd_68
 1621              	.LVL193:
 425:Drivers/LTC681x/LTC681x.c **** }
 1622              		.loc 1 425 0
 1623 0026 03B0     		add	sp, sp, #12
 1624              	.LCFI47:
 1625              		.cfi_def_cfa_offset 4
 1626              		@ sp needed
 1627 0028 5DF804FB 		ldr	pc, [sp], #4
 1628              		.cfi_endproc
 1629              	.LFE23:
 1631              		.section	.text.LTC681x_cvst,"ax",%progbits
 1632              		.align	1
 1633              		.global	LTC681x_cvst
 1634              		.syntax unified
ARM GAS  /tmp/ccMCacDa.s 			page 38


 1635              		.thumb
 1636              		.thumb_func
 1637              		.fpu softvfp
 1639              	LTC681x_cvst:
 1640              	.LFB24:
 426:Drivers/LTC681x/LTC681x.c **** 
 427:Drivers/LTC681x/LTC681x.c **** //Starts cell voltage self test conversion
 428:Drivers/LTC681x/LTC681x.c **** void LTC681x_cvst(uint8_t MD, //ADC Mode
 429:Drivers/LTC681x/LTC681x.c **** 				  uint8_t ST //Self Test
 430:Drivers/LTC681x/LTC681x.c ****                  )
 431:Drivers/LTC681x/LTC681x.c **** {
 1641              		.loc 1 431 0
 1642              		.cfi_startproc
 1643              		@ args = 0, pretend = 0, frame = 8
 1644              		@ frame_needed = 0, uses_anonymous_args = 0
 1645              	.LVL194:
 1646 0000 00B5     		push	{lr}
 1647              	.LCFI48:
 1648              		.cfi_def_cfa_offset 4
 1649              		.cfi_offset 14, -4
 1650 0002 83B0     		sub	sp, sp, #12
 1651              	.LCFI49:
 1652              		.cfi_def_cfa_offset 16
 432:Drivers/LTC681x/LTC681x.c **** 	uint8_t cmd[2];
 433:Drivers/LTC681x/LTC681x.c **** 	uint8_t md_bits;
 434:Drivers/LTC681x/LTC681x.c **** 	md_bits = (MD & 0x02) >> 1;
 1653              		.loc 1 434 0
 1654 0004 C0F34003 		ubfx	r3, r0, #1, #1
 1655              	.LVL195:
 435:Drivers/LTC681x/LTC681x.c **** 	cmd[0] = md_bits + 0x02;
 1656              		.loc 1 435 0
 1657 0008 0233     		adds	r3, r3, #2
 1658              	.LVL196:
 1659 000a 8DF80430 		strb	r3, [sp, #4]
 436:Drivers/LTC681x/LTC681x.c **** 	md_bits = (MD & 0x01) << 7;
 1660              		.loc 1 436 0
 1661 000e C001     		lsls	r0, r0, #7
 1662              	.LVL197:
 1663 0010 C0B2     		uxtb	r0, r0
 1664              	.LVL198:
 437:Drivers/LTC681x/LTC681x.c **** 	cmd[1] =  md_bits + ((ST)<<5) +0x07;
 1665              		.loc 1 437 0
 1666 0012 4B01     		lsls	r3, r1, #5
 1667 0014 DBB2     		uxtb	r3, r3
 1668 0016 0344     		add	r3, r3, r0
 1669 0018 DBB2     		uxtb	r3, r3
 1670 001a 0733     		adds	r3, r3, #7
 1671 001c 8DF80530 		strb	r3, [sp, #5]
 438:Drivers/LTC681x/LTC681x.c **** 	cmd_68(cmd);
 1672              		.loc 1 438 0
 1673 0020 01A8     		add	r0, sp, #4
 1674              	.LVL199:
 1675 0022 FFF7FEFF 		bl	cmd_68
 1676              	.LVL200:
 439:Drivers/LTC681x/LTC681x.c **** }
 1677              		.loc 1 439 0
 1678 0026 03B0     		add	sp, sp, #12
ARM GAS  /tmp/ccMCacDa.s 			page 39


 1679              	.LCFI50:
 1680              		.cfi_def_cfa_offset 4
 1681              		@ sp needed
 1682 0028 5DF804FB 		ldr	pc, [sp], #4
 1683              		.cfi_endproc
 1684              	.LFE24:
 1686              		.section	.text.LTC681x_axst,"ax",%progbits
 1687              		.align	1
 1688              		.global	LTC681x_axst
 1689              		.syntax unified
 1690              		.thumb
 1691              		.thumb_func
 1692              		.fpu softvfp
 1694              	LTC681x_axst:
 1695              	.LFB25:
 440:Drivers/LTC681x/LTC681x.c **** 
 441:Drivers/LTC681x/LTC681x.c **** //Start an Auxiliary Register Self Test Conversion
 442:Drivers/LTC681x/LTC681x.c **** void LTC681x_axst(uint8_t MD, //ADC Mode
 443:Drivers/LTC681x/LTC681x.c **** 				  uint8_t ST //Self Test
 444:Drivers/LTC681x/LTC681x.c **** 				  )
 445:Drivers/LTC681x/LTC681x.c **** {
 1696              		.loc 1 445 0
 1697              		.cfi_startproc
 1698              		@ args = 0, pretend = 0, frame = 8
 1699              		@ frame_needed = 0, uses_anonymous_args = 0
 1700              	.LVL201:
 1701 0000 00B5     		push	{lr}
 1702              	.LCFI51:
 1703              		.cfi_def_cfa_offset 4
 1704              		.cfi_offset 14, -4
 1705 0002 83B0     		sub	sp, sp, #12
 1706              	.LCFI52:
 1707              		.cfi_def_cfa_offset 16
 446:Drivers/LTC681x/LTC681x.c ****   uint8_t cmd[2];
 447:Drivers/LTC681x/LTC681x.c ****   uint8_t md_bits;
 448:Drivers/LTC681x/LTC681x.c **** 
 449:Drivers/LTC681x/LTC681x.c ****   md_bits = (MD & 0x02) >> 1;
 1708              		.loc 1 449 0
 1709 0004 C0F34003 		ubfx	r3, r0, #1, #1
 1710              	.LVL202:
 450:Drivers/LTC681x/LTC681x.c ****   cmd[0] = md_bits + 0x04;
 1711              		.loc 1 450 0
 1712 0008 0433     		adds	r3, r3, #4
 1713              	.LVL203:
 1714 000a 8DF80430 		strb	r3, [sp, #4]
 451:Drivers/LTC681x/LTC681x.c ****   md_bits = (MD & 0x01) << 7;
 1715              		.loc 1 451 0
 1716 000e C001     		lsls	r0, r0, #7
 1717              	.LVL204:
 1718 0010 C0B2     		uxtb	r0, r0
 1719              	.LVL205:
 452:Drivers/LTC681x/LTC681x.c ****   cmd[1] =  md_bits + ((ST&0x03)<<5) +0x07;
 1720              		.loc 1 452 0
 1721 0012 4B01     		lsls	r3, r1, #5
 1722 0014 03F06003 		and	r3, r3, #96
 1723 0018 0344     		add	r3, r3, r0
 1724 001a DBB2     		uxtb	r3, r3
ARM GAS  /tmp/ccMCacDa.s 			page 40


 1725 001c 0733     		adds	r3, r3, #7
 1726 001e 8DF80530 		strb	r3, [sp, #5]
 453:Drivers/LTC681x/LTC681x.c ****   cmd_68(cmd);
 1727              		.loc 1 453 0
 1728 0022 01A8     		add	r0, sp, #4
 1729              	.LVL206:
 1730 0024 FFF7FEFF 		bl	cmd_68
 1731              	.LVL207:
 454:Drivers/LTC681x/LTC681x.c **** 
 455:Drivers/LTC681x/LTC681x.c **** }
 1732              		.loc 1 455 0
 1733 0028 03B0     		add	sp, sp, #12
 1734              	.LCFI53:
 1735              		.cfi_def_cfa_offset 4
 1736              		@ sp needed
 1737 002a 5DF804FB 		ldr	pc, [sp], #4
 1738              		.cfi_endproc
 1739              	.LFE25:
 1741              		.section	.text.LTC681x_statst,"ax",%progbits
 1742              		.align	1
 1743              		.global	LTC681x_statst
 1744              		.syntax unified
 1745              		.thumb
 1746              		.thumb_func
 1747              		.fpu softvfp
 1749              	LTC681x_statst:
 1750              	.LFB26:
 456:Drivers/LTC681x/LTC681x.c **** 
 457:Drivers/LTC681x/LTC681x.c **** //Start a Status Register Self Test Conversion
 458:Drivers/LTC681x/LTC681x.c **** void LTC681x_statst(uint8_t MD, //ADC Mode
 459:Drivers/LTC681x/LTC681x.c **** 				    uint8_t ST //Self Test
 460:Drivers/LTC681x/LTC681x.c **** 					)
 461:Drivers/LTC681x/LTC681x.c **** {
 1751              		.loc 1 461 0
 1752              		.cfi_startproc
 1753              		@ args = 0, pretend = 0, frame = 8
 1754              		@ frame_needed = 0, uses_anonymous_args = 0
 1755              	.LVL208:
 1756 0000 00B5     		push	{lr}
 1757              	.LCFI54:
 1758              		.cfi_def_cfa_offset 4
 1759              		.cfi_offset 14, -4
 1760 0002 83B0     		sub	sp, sp, #12
 1761              	.LCFI55:
 1762              		.cfi_def_cfa_offset 16
 462:Drivers/LTC681x/LTC681x.c ****   uint8_t cmd[2];
 463:Drivers/LTC681x/LTC681x.c ****   uint8_t md_bits;
 464:Drivers/LTC681x/LTC681x.c **** 
 465:Drivers/LTC681x/LTC681x.c ****   md_bits = (MD & 0x02) >> 1;
 1763              		.loc 1 465 0
 1764 0004 C0F34003 		ubfx	r3, r0, #1, #1
 1765              	.LVL209:
 466:Drivers/LTC681x/LTC681x.c ****   cmd[0] = md_bits + 0x04;
 1766              		.loc 1 466 0
 1767 0008 0433     		adds	r3, r3, #4
 1768              	.LVL210:
 1769 000a 8DF80430 		strb	r3, [sp, #4]
ARM GAS  /tmp/ccMCacDa.s 			page 41


 467:Drivers/LTC681x/LTC681x.c ****   md_bits = (MD & 0x01) << 7;
 1770              		.loc 1 467 0
 1771 000e C001     		lsls	r0, r0, #7
 1772              	.LVL211:
 1773 0010 C0B2     		uxtb	r0, r0
 1774              	.LVL212:
 468:Drivers/LTC681x/LTC681x.c ****   cmd[1] =  md_bits + ((ST&0x03)<<5) +0x0F;
 1775              		.loc 1 468 0
 1776 0012 4B01     		lsls	r3, r1, #5
 1777 0014 03F06003 		and	r3, r3, #96
 1778 0018 0344     		add	r3, r3, r0
 1779 001a DBB2     		uxtb	r3, r3
 1780 001c 0F33     		adds	r3, r3, #15
 1781 001e 8DF80530 		strb	r3, [sp, #5]
 469:Drivers/LTC681x/LTC681x.c ****   cmd_68(cmd);
 1782              		.loc 1 469 0
 1783 0022 01A8     		add	r0, sp, #4
 1784              	.LVL213:
 1785 0024 FFF7FEFF 		bl	cmd_68
 1786              	.LVL214:
 470:Drivers/LTC681x/LTC681x.c **** 
 471:Drivers/LTC681x/LTC681x.c **** }
 1787              		.loc 1 471 0
 1788 0028 03B0     		add	sp, sp, #12
 1789              	.LCFI56:
 1790              		.cfi_def_cfa_offset 4
 1791              		@ sp needed
 1792 002a 5DF804FB 		ldr	pc, [sp], #4
 1793              		.cfi_endproc
 1794              	.LFE26:
 1796              		.section	.text.LTC681x_pladc,"ax",%progbits
 1797              		.align	1
 1798              		.global	LTC681x_pladc
 1799              		.syntax unified
 1800              		.thumb
 1801              		.thumb_func
 1802              		.fpu softvfp
 1804              	LTC681x_pladc:
 1805              	.LFB27:
 472:Drivers/LTC681x/LTC681x.c **** 
 473:Drivers/LTC681x/LTC681x.c **** //Sends the poll adc command
 474:Drivers/LTC681x/LTC681x.c **** uint8_t LTC681x_pladc()
 475:Drivers/LTC681x/LTC681x.c **** {
 1806              		.loc 1 475 0
 1807              		.cfi_startproc
 1808              		@ args = 0, pretend = 0, frame = 8
 1809              		@ frame_needed = 0, uses_anonymous_args = 0
 1810 0000 10B5     		push	{r4, lr}
 1811              	.LCFI57:
 1812              		.cfi_def_cfa_offset 8
 1813              		.cfi_offset 4, -8
 1814              		.cfi_offset 14, -4
 1815 0002 82B0     		sub	sp, sp, #8
 1816              	.LCFI58:
 1817              		.cfi_def_cfa_offset 16
 1818              	.LVL215:
 476:Drivers/LTC681x/LTC681x.c ****   uint8_t cmd[4];
ARM GAS  /tmp/ccMCacDa.s 			page 42


 477:Drivers/LTC681x/LTC681x.c ****   uint8_t adc_state = 0xFF;
 478:Drivers/LTC681x/LTC681x.c ****   uint16_t cmd_pec;
 479:Drivers/LTC681x/LTC681x.c **** 
 480:Drivers/LTC681x/LTC681x.c ****   cmd[0] = 0x07;
 1819              		.loc 1 480 0
 1820 0004 0723     		movs	r3, #7
 1821 0006 8DF80430 		strb	r3, [sp, #4]
 481:Drivers/LTC681x/LTC681x.c ****   cmd[1] = 0x14;
 1822              		.loc 1 481 0
 1823 000a 1423     		movs	r3, #20
 1824 000c 8DF80530 		strb	r3, [sp, #5]
 482:Drivers/LTC681x/LTC681x.c ****   cmd_pec = pec15_calc(2, cmd);
 1825              		.loc 1 482 0
 1826 0010 01A9     		add	r1, sp, #4
 1827 0012 0220     		movs	r0, #2
 1828 0014 FFF7FEFF 		bl	pec15_calc
 1829              	.LVL216:
 483:Drivers/LTC681x/LTC681x.c ****   cmd[2] = (uint8_t)(cmd_pec >> 8);
 1830              		.loc 1 483 0
 1831 0018 C0F30723 		ubfx	r3, r0, #8, #8
 1832 001c 8DF80630 		strb	r3, [sp, #6]
 484:Drivers/LTC681x/LTC681x.c ****   cmd[3] = (uint8_t)(cmd_pec);
 1833              		.loc 1 484 0
 1834 0020 8DF80700 		strb	r0, [sp, #7]
 485:Drivers/LTC681x/LTC681x.c **** 
 486:Drivers/LTC681x/LTC681x.c **** 
 487:Drivers/LTC681x/LTC681x.c ****   cs_low(CS_PIN);
 1835              		.loc 1 487 0
 1836 0024 0A20     		movs	r0, #10
 1837              	.LVL217:
 1838 0026 FFF7FEFF 		bl	cs_low
 1839              	.LVL218:
 488:Drivers/LTC681x/LTC681x.c ****   spi_write_array(4,cmd);
 1840              		.loc 1 488 0
 1841 002a 01A9     		add	r1, sp, #4
 1842 002c 0420     		movs	r0, #4
 1843 002e FFF7FEFF 		bl	spi_write_array
 1844              	.LVL219:
 489:Drivers/LTC681x/LTC681x.c ****   adc_state = spi_read_byte(0xFF);
 1845              		.loc 1 489 0
 1846 0032 FF20     		movs	r0, #255
 1847 0034 FFF7FEFF 		bl	spi_read_byte
 1848              	.LVL220:
 1849 0038 0446     		mov	r4, r0
 1850              	.LVL221:
 490:Drivers/LTC681x/LTC681x.c **** 
 491:Drivers/LTC681x/LTC681x.c ****   cs_high(CS_PIN);
 1851              		.loc 1 491 0
 1852 003a 0A20     		movs	r0, #10
 1853 003c FFF7FEFF 		bl	cs_high
 1854              	.LVL222:
 492:Drivers/LTC681x/LTC681x.c ****   return(adc_state);
 493:Drivers/LTC681x/LTC681x.c **** }
 1855              		.loc 1 493 0
 1856 0040 2046     		mov	r0, r4
 1857 0042 02B0     		add	sp, sp, #8
 1858              	.LCFI59:
ARM GAS  /tmp/ccMCacDa.s 			page 43


 1859              		.cfi_def_cfa_offset 8
 1860              		@ sp needed
 1861 0044 10BD     		pop	{r4, pc}
 1862              		.cfi_endproc
 1863              	.LFE27:
 1865              		.section	.text.LTC681x_pollAdc,"ax",%progbits
 1866              		.align	1
 1867              		.global	LTC681x_pollAdc
 1868              		.syntax unified
 1869              		.thumb
 1870              		.thumb_func
 1871              		.fpu softvfp
 1873              	LTC681x_pollAdc:
 1874              	.LFB28:
 494:Drivers/LTC681x/LTC681x.c **** 
 495:Drivers/LTC681x/LTC681x.c **** //This function will block operation until the ADC has finished it's conversion
 496:Drivers/LTC681x/LTC681x.c **** uint32_t LTC681x_pollAdc()
 497:Drivers/LTC681x/LTC681x.c **** {
 1875              		.loc 1 497 0
 1876              		.cfi_startproc
 1877              		@ args = 0, pretend = 0, frame = 8
 1878              		@ frame_needed = 0, uses_anonymous_args = 0
 1879 0000 30B5     		push	{r4, r5, lr}
 1880              	.LCFI60:
 1881              		.cfi_def_cfa_offset 12
 1882              		.cfi_offset 4, -12
 1883              		.cfi_offset 5, -8
 1884              		.cfi_offset 14, -4
 1885 0002 83B0     		sub	sp, sp, #12
 1886              	.LCFI61:
 1887              		.cfi_def_cfa_offset 24
 1888              	.LVL223:
 498:Drivers/LTC681x/LTC681x.c ****   uint32_t counter = 0;
 499:Drivers/LTC681x/LTC681x.c ****   uint8_t finished = 0;
 500:Drivers/LTC681x/LTC681x.c ****   uint8_t current_time = 0;
 501:Drivers/LTC681x/LTC681x.c ****   uint8_t cmd[4];
 502:Drivers/LTC681x/LTC681x.c ****   uint16_t cmd_pec;
 503:Drivers/LTC681x/LTC681x.c **** 
 504:Drivers/LTC681x/LTC681x.c **** 
 505:Drivers/LTC681x/LTC681x.c ****   cmd[0] = 0x07;
 1889              		.loc 1 505 0
 1890 0004 0723     		movs	r3, #7
 1891 0006 8DF80430 		strb	r3, [sp, #4]
 506:Drivers/LTC681x/LTC681x.c ****   cmd[1] = 0x14;
 1892              		.loc 1 506 0
 1893 000a 1423     		movs	r3, #20
 1894 000c 8DF80530 		strb	r3, [sp, #5]
 507:Drivers/LTC681x/LTC681x.c ****   cmd_pec = pec15_calc(2, cmd);
 1895              		.loc 1 507 0
 1896 0010 01A9     		add	r1, sp, #4
 1897 0012 0220     		movs	r0, #2
 1898 0014 FFF7FEFF 		bl	pec15_calc
 1899              	.LVL224:
 508:Drivers/LTC681x/LTC681x.c ****   cmd[2] = (uint8_t)(cmd_pec >> 8);
 1900              		.loc 1 508 0
 1901 0018 C0F30723 		ubfx	r3, r0, #8, #8
 1902 001c 8DF80630 		strb	r3, [sp, #6]
ARM GAS  /tmp/ccMCacDa.s 			page 44


 509:Drivers/LTC681x/LTC681x.c ****   cmd[3] = (uint8_t)(cmd_pec);
 1903              		.loc 1 509 0
 1904 0020 8DF80700 		strb	r0, [sp, #7]
 510:Drivers/LTC681x/LTC681x.c **** 
 511:Drivers/LTC681x/LTC681x.c ****   cs_low(CS_PIN);
 1905              		.loc 1 511 0
 1906 0024 0A20     		movs	r0, #10
 1907              	.LVL225:
 1908 0026 FFF7FEFF 		bl	cs_low
 1909              	.LVL226:
 512:Drivers/LTC681x/LTC681x.c ****   spi_write_array(4,cmd);
 1910              		.loc 1 512 0
 1911 002a 01A9     		add	r1, sp, #4
 1912 002c 0420     		movs	r0, #4
 1913 002e FFF7FEFF 		bl	spi_write_array
 1914              	.LVL227:
 499:Drivers/LTC681x/LTC681x.c ****   uint8_t current_time = 0;
 1915              		.loc 1 499 0
 1916 0032 0025     		movs	r5, #0
 498:Drivers/LTC681x/LTC681x.c ****   uint8_t finished = 0;
 1917              		.loc 1 498 0
 1918 0034 2C46     		mov	r4, r5
 513:Drivers/LTC681x/LTC681x.c **** 
 514:Drivers/LTC681x/LTC681x.c ****   while ((counter<200000)&&(finished == 0))
 1919              		.loc 1 514 0
 1920 0036 00E0     		b	.L112
 1921              	.LVL228:
 1922              	.L116:
 515:Drivers/LTC681x/LTC681x.c ****   {
 516:Drivers/LTC681x/LTC681x.c ****     current_time = spi_read_byte(0xff);
 517:Drivers/LTC681x/LTC681x.c ****     if (current_time>0)
 518:Drivers/LTC681x/LTC681x.c ****     {
 519:Drivers/LTC681x/LTC681x.c ****       finished = 1;
 1923              		.loc 1 519 0
 1924 0038 0125     		movs	r5, #1
 1925              	.LVL229:
 1926              	.L112:
 514:Drivers/LTC681x/LTC681x.c ****   {
 1927              		.loc 1 514 0
 1928 003a 084B     		ldr	r3, .L118
 1929 003c 9C42     		cmp	r4, r3
 1930 003e 07D8     		bhi	.L114
 514:Drivers/LTC681x/LTC681x.c ****   {
 1931              		.loc 1 514 0 is_stmt 0 discriminator 1
 1932 0040 35B9     		cbnz	r5, .L114
 516:Drivers/LTC681x/LTC681x.c ****     if (current_time>0)
 1933              		.loc 1 516 0 is_stmt 1
 1934 0042 FF20     		movs	r0, #255
 1935 0044 FFF7FEFF 		bl	spi_read_byte
 1936              	.LVL230:
 517:Drivers/LTC681x/LTC681x.c ****     {
 1937              		.loc 1 517 0
 1938 0048 0028     		cmp	r0, #0
 1939 004a F5D1     		bne	.L116
 520:Drivers/LTC681x/LTC681x.c ****     }
 521:Drivers/LTC681x/LTC681x.c ****     else
 522:Drivers/LTC681x/LTC681x.c ****     {
ARM GAS  /tmp/ccMCacDa.s 			page 45


 523:Drivers/LTC681x/LTC681x.c ****       counter = counter + 10;
 1940              		.loc 1 523 0
 1941 004c 0A34     		adds	r4, r4, #10
 1942              	.LVL231:
 1943 004e F4E7     		b	.L112
 1944              	.LVL232:
 1945              	.L114:
 524:Drivers/LTC681x/LTC681x.c ****     }
 525:Drivers/LTC681x/LTC681x.c ****   }
 526:Drivers/LTC681x/LTC681x.c **** 
 527:Drivers/LTC681x/LTC681x.c ****   cs_high(CS_PIN);
 1946              		.loc 1 527 0
 1947 0050 0A20     		movs	r0, #10
 1948 0052 FFF7FEFF 		bl	cs_high
 1949              	.LVL233:
 528:Drivers/LTC681x/LTC681x.c **** 
 529:Drivers/LTC681x/LTC681x.c **** 
 530:Drivers/LTC681x/LTC681x.c ****   return(counter);
 531:Drivers/LTC681x/LTC681x.c **** }
 1950              		.loc 1 531 0
 1951 0056 2046     		mov	r0, r4
 1952 0058 03B0     		add	sp, sp, #12
 1953              	.LCFI62:
 1954              		.cfi_def_cfa_offset 12
 1955              		@ sp needed
 1956 005a 30BD     		pop	{r4, r5, pc}
 1957              	.LVL234:
 1958              	.L119:
 1959              		.align	2
 1960              	.L118:
 1961 005c 3F0D0300 		.word	199999
 1962              		.cfi_endproc
 1963              	.LFE28:
 1965              		.section	.text.LTC681x_diagn,"ax",%progbits
 1966              		.align	1
 1967              		.global	LTC681x_diagn
 1968              		.syntax unified
 1969              		.thumb
 1970              		.thumb_func
 1971              		.fpu softvfp
 1973              	LTC681x_diagn:
 1974              	.LFB29:
 532:Drivers/LTC681x/LTC681x.c **** 
 533:Drivers/LTC681x/LTC681x.c **** //Starts the Mux Decoder diagnostic self test
 534:Drivers/LTC681x/LTC681x.c **** void LTC681x_diagn()
 535:Drivers/LTC681x/LTC681x.c **** {
 1975              		.loc 1 535 0
 1976              		.cfi_startproc
 1977              		@ args = 0, pretend = 0, frame = 8
 1978              		@ frame_needed = 0, uses_anonymous_args = 0
 1979 0000 00B5     		push	{lr}
 1980              	.LCFI63:
 1981              		.cfi_def_cfa_offset 4
 1982              		.cfi_offset 14, -4
 1983 0002 83B0     		sub	sp, sp, #12
 1984              	.LCFI64:
 1985              		.cfi_def_cfa_offset 16
ARM GAS  /tmp/ccMCacDa.s 			page 46


 536:Drivers/LTC681x/LTC681x.c ****   uint8_t cmd[2] = {0x07 , 0x15};
 1986              		.loc 1 536 0
 1987 0004 044B     		ldr	r3, .L122
 1988 0006 1B88     		ldrh	r3, [r3]
 1989 0008 02A8     		add	r0, sp, #8
 1990 000a 20F8043D 		strh	r3, [r0, #-4]!	@ movhi
 537:Drivers/LTC681x/LTC681x.c ****   cmd_68(cmd);
 1991              		.loc 1 537 0
 1992 000e FFF7FEFF 		bl	cmd_68
 1993              	.LVL235:
 538:Drivers/LTC681x/LTC681x.c **** }
 1994              		.loc 1 538 0
 1995 0012 03B0     		add	sp, sp, #12
 1996              	.LCFI65:
 1997              		.cfi_def_cfa_offset 4
 1998              		@ sp needed
 1999 0014 5DF804FB 		ldr	pc, [sp], #4
 2000              	.L123:
 2001              		.align	2
 2002              	.L122:
 2003 0018 00000000 		.word	.LANCHOR1
 2004              		.cfi_endproc
 2005              	.LFE29:
 2007              		.section	.text.parse_cells,"ax",%progbits
 2008              		.align	1
 2009              		.global	parse_cells
 2010              		.syntax unified
 2011              		.thumb
 2012              		.thumb_func
 2013              		.fpu softvfp
 2015              	parse_cells:
 2016              	.LFB30:
 539:Drivers/LTC681x/LTC681x.c **** 
 540:Drivers/LTC681x/LTC681x.c **** //Helper function that parses voltage measurement registers
 541:Drivers/LTC681x/LTC681x.c **** int8_t parse_cells(uint8_t current_ic, 
 542:Drivers/LTC681x/LTC681x.c **** 					uint8_t cell_reg, 
 543:Drivers/LTC681x/LTC681x.c **** 					uint8_t cell_data[], 
 544:Drivers/LTC681x/LTC681x.c **** 					uint16_t *cell_codes, 
 545:Drivers/LTC681x/LTC681x.c **** 					uint8_t *ic_pec
 546:Drivers/LTC681x/LTC681x.c **** 					)
 547:Drivers/LTC681x/LTC681x.c **** {
 2017              		.loc 1 547 0
 2018              		.cfi_startproc
 2019              		@ args = 4, pretend = 0, frame = 0
 2020              		@ frame_needed = 0, uses_anonymous_args = 0
 2021              	.LVL236:
 2022 0000 F8B5     		push	{r3, r4, r5, r6, r7, lr}
 2023              	.LCFI66:
 2024              		.cfi_def_cfa_offset 24
 2025              		.cfi_offset 3, -24
 2026              		.cfi_offset 4, -20
 2027              		.cfi_offset 5, -16
 2028              		.cfi_offset 6, -12
 2029              		.cfi_offset 7, -8
 2030              		.cfi_offset 14, -4
 2031 0002 0F46     		mov	r7, r1
 2032              	.LVL237:
ARM GAS  /tmp/ccMCacDa.s 			page 47


 548:Drivers/LTC681x/LTC681x.c **** 
 549:Drivers/LTC681x/LTC681x.c ****   const uint8_t BYT_IN_REG = 6;
 550:Drivers/LTC681x/LTC681x.c ****   const uint8_t CELL_IN_REG = 3;
 551:Drivers/LTC681x/LTC681x.c ****   int8_t pec_error = 0;
 552:Drivers/LTC681x/LTC681x.c ****   uint16_t parsed_cell;
 553:Drivers/LTC681x/LTC681x.c ****   uint16_t received_pec;
 554:Drivers/LTC681x/LTC681x.c ****   uint16_t data_pec;
 555:Drivers/LTC681x/LTC681x.c ****   uint8_t data_counter = current_ic*NUM_RX_BYT; //data counter
 2033              		.loc 1 555 0
 2034 0004 C400     		lsls	r4, r0, #3
 2035 0006 E4B2     		uxtb	r4, r4
 2036              	.LVL238:
 2037              	.LBB23:
 556:Drivers/LTC681x/LTC681x.c **** 
 557:Drivers/LTC681x/LTC681x.c **** 
 558:Drivers/LTC681x/LTC681x.c ****   for (uint8_t current_cell = 0; current_cell<CELL_IN_REG; current_cell++)  // This loop parses the
 2038              		.loc 1 558 0
 2039 0008 0026     		movs	r6, #0
 2040 000a 0FE0     		b	.L125
 2041              	.LVL239:
 2042              	.L126:
 559:Drivers/LTC681x/LTC681x.c ****   {																			// loops once for each of the 3 cell voltage codes in the register
 560:Drivers/LTC681x/LTC681x.c **** 																			
 561:Drivers/LTC681x/LTC681x.c **** 
 562:Drivers/LTC681x/LTC681x.c ****     parsed_cell = cell_data[data_counter] + (cell_data[data_counter + 1] << 8);//Each cell code is 
 2043              		.loc 1 562 0 discriminator 3
 2044 000c 12F804C0 		ldrb	ip, [r2, r4]	@ zero_extendqisi2
 2045 0010 1119     		adds	r1, r2, r4
 2046 0012 4978     		ldrb	r1, [r1, #1]	@ zero_extendqisi2
 2047 0014 0CEB012C 		add	ip, ip, r1, lsl #8
 2048              	.LVL240:
 563:Drivers/LTC681x/LTC681x.c **** 	
 564:Drivers/LTC681x/LTC681x.c **** 																		  // create the parsed cell voltage code
 565:Drivers/LTC681x/LTC681x.c **** 	
 566:Drivers/LTC681x/LTC681x.c ****     cell_codes[current_cell  + ((cell_reg - 1) * CELL_IN_REG)] = parsed_cell;
 2049              		.loc 1 566 0 discriminator 3
 2050 0018 7D1E     		subs	r5, r7, #1
 2051 001a 05EB4505 		add	r5, r5, r5, lsl #1
 2052 001e 3544     		add	r5, r5, r6
 2053 0020 23F815C0 		strh	ip, [r3, r5, lsl #1]	@ movhi
 567:Drivers/LTC681x/LTC681x.c **** 	
 568:Drivers/LTC681x/LTC681x.c ****     data_counter = data_counter + 2;                       //Because cell voltage codes are two byt
 2054              		.loc 1 568 0 discriminator 3
 2055 0024 0234     		adds	r4, r4, #2
 2056              	.LVL241:
 2057 0026 E4B2     		uxtb	r4, r4
 558:Drivers/LTC681x/LTC681x.c ****   {																			// loops once for each of the 3 cell voltage codes in the register
 2058              		.loc 1 558 0 discriminator 3
 2059 0028 0136     		adds	r6, r6, #1
 2060              	.LVL242:
 2061 002a F6B2     		uxtb	r6, r6
 2062              	.LVL243:
 2063              	.L125:
 558:Drivers/LTC681x/LTC681x.c ****   {																			// loops once for each of the 3 cell voltage codes in the register
 2064              		.loc 1 558 0 is_stmt 0 discriminator 1
 2065 002c 022E     		cmp	r6, #2
 2066 002e EDD9     		bls	.L126
ARM GAS  /tmp/ccMCacDa.s 			page 48


 2067              	.LBE23:
 569:Drivers/LTC681x/LTC681x.c **** 														  //must increment by two for each parsed cell code
 570:Drivers/LTC681x/LTC681x.c ****   }
 571:Drivers/LTC681x/LTC681x.c **** 
 572:Drivers/LTC681x/LTC681x.c ****   received_pec = (cell_data[data_counter] << 8) | cell_data[data_counter+1]; //The received PEC for
 2068              		.loc 1 572 0 is_stmt 1
 2069 0030 135D     		ldrb	r3, [r2, r4]	@ zero_extendqisi2
 2070              	.LVL244:
 2071 0032 1444     		add	r4, r4, r2
 2072              	.LVL245:
 2073 0034 6478     		ldrb	r4, [r4, #1]	@ zero_extendqisi2
 2074 0036 44EA0324 		orr	r4, r4, r3, lsl #8
 2075              	.LVL246:
 573:Drivers/LTC681x/LTC681x.c **** 																			//after the 6 cell voltage data bytes
 574:Drivers/LTC681x/LTC681x.c ****   data_pec = pec15_calc(BYT_IN_REG, &cell_data[(current_ic) * NUM_RX_BYT]);
 2076              		.loc 1 574 0
 2077 003a 02EBC001 		add	r1, r2, r0, lsl #3
 2078 003e 0620     		movs	r0, #6
 2079              	.LVL247:
 2080 0040 FFF7FEFF 		bl	pec15_calc
 2081              	.LVL248:
 575:Drivers/LTC681x/LTC681x.c **** 
 576:Drivers/LTC681x/LTC681x.c ****   if (received_pec != data_pec)
 2082              		.loc 1 576 0
 2083 0044 8442     		cmp	r4, r0
 2084 0046 04D0     		beq	.L127
 2085              	.LVL249:
 577:Drivers/LTC681x/LTC681x.c ****   {
 578:Drivers/LTC681x/LTC681x.c ****     pec_error = 1;                             //The pec_error variable is simply set negative if a
 579:Drivers/LTC681x/LTC681x.c ****     ic_pec[cell_reg-1]=1;
 2086              		.loc 1 579 0
 2087 0048 013F     		subs	r7, r7, #1
 2088 004a 0120     		movs	r0, #1
 2089              	.LVL250:
 2090 004c 069B     		ldr	r3, [sp, #24]
 2091 004e D855     		strb	r0, [r3, r7]
 2092              	.LVL251:
 2093              	.L128:
 580:Drivers/LTC681x/LTC681x.c ****   }
 581:Drivers/LTC681x/LTC681x.c ****   else
 582:Drivers/LTC681x/LTC681x.c ****   {
 583:Drivers/LTC681x/LTC681x.c ****     ic_pec[cell_reg-1]=0;
 584:Drivers/LTC681x/LTC681x.c ****   }
 585:Drivers/LTC681x/LTC681x.c ****   data_counter=data_counter+2;
 586:Drivers/LTC681x/LTC681x.c ****   return(pec_error);
 587:Drivers/LTC681x/LTC681x.c **** }
 2094              		.loc 1 587 0
 2095 0050 F8BD     		pop	{r3, r4, r5, r6, r7, pc}
 2096              	.LVL252:
 2097              	.L127:
 583:Drivers/LTC681x/LTC681x.c ****   }
 2098              		.loc 1 583 0
 2099 0052 013F     		subs	r7, r7, #1
 2100 0054 0020     		movs	r0, #0
 2101              	.LVL253:
 2102 0056 069B     		ldr	r3, [sp, #24]
 2103 0058 D855     		strb	r0, [r3, r7]
ARM GAS  /tmp/ccMCacDa.s 			page 49


 2104 005a F9E7     		b	.L128
 2105              		.cfi_endproc
 2106              	.LFE30:
 2108              		.section	.text.LTC681x_rdcv_reg,"ax",%progbits
 2109              		.align	1
 2110              		.global	LTC681x_rdcv_reg
 2111              		.syntax unified
 2112              		.thumb
 2113              		.thumb_func
 2114              		.fpu softvfp
 2116              	LTC681x_rdcv_reg:
 2117              	.LFB31:
 588:Drivers/LTC681x/LTC681x.c **** 
 589:Drivers/LTC681x/LTC681x.c **** 
 590:Drivers/LTC681x/LTC681x.c **** // Reads the raw cell voltage register data
 591:Drivers/LTC681x/LTC681x.c **** void LTC681x_rdcv_reg(uint8_t reg, //Determines which cell voltage register is read back
 592:Drivers/LTC681x/LTC681x.c ****                       uint8_t total_ic, //the number of ICs in the
 593:Drivers/LTC681x/LTC681x.c ****                       uint8_t *data //An array of the unparsed cell codes
 594:Drivers/LTC681x/LTC681x.c ****                      )
 595:Drivers/LTC681x/LTC681x.c **** {
 2118              		.loc 1 595 0
 2119              		.cfi_startproc
 2120              		@ args = 0, pretend = 0, frame = 8
 2121              		@ frame_needed = 0, uses_anonymous_args = 0
 2122              	.LVL254:
 2123 0000 30B5     		push	{r4, r5, lr}
 2124              	.LCFI67:
 2125              		.cfi_def_cfa_offset 12
 2126              		.cfi_offset 4, -12
 2127              		.cfi_offset 5, -8
 2128              		.cfi_offset 14, -4
 2129 0002 83B0     		sub	sp, sp, #12
 2130              	.LCFI68:
 2131              		.cfi_def_cfa_offset 24
 2132 0004 0C46     		mov	r4, r1
 2133 0006 1546     		mov	r5, r2
 2134              	.LVL255:
 596:Drivers/LTC681x/LTC681x.c ****   const uint8_t REG_LEN = 8; //number of bytes in each ICs register + 2 bytes for the PEC
 597:Drivers/LTC681x/LTC681x.c ****   uint8_t cmd[4];
 598:Drivers/LTC681x/LTC681x.c ****   uint16_t cmd_pec;
 599:Drivers/LTC681x/LTC681x.c **** 
 600:Drivers/LTC681x/LTC681x.c ****   if (reg == 1)     //1: RDCVA
 2135              		.loc 1 600 0
 2136 0008 0128     		cmp	r0, #1
 2137 000a 10D0     		beq	.L138
 601:Drivers/LTC681x/LTC681x.c ****   {
 602:Drivers/LTC681x/LTC681x.c ****     cmd[1] = 0x04;
 603:Drivers/LTC681x/LTC681x.c ****     cmd[0] = 0x00;
 604:Drivers/LTC681x/LTC681x.c ****   }
 605:Drivers/LTC681x/LTC681x.c ****   else if (reg == 2) //2: RDCVB
 2138              		.loc 1 605 0
 2139 000c 0228     		cmp	r0, #2
 2140 000e 2FD0     		beq	.L139
 606:Drivers/LTC681x/LTC681x.c ****   {
 607:Drivers/LTC681x/LTC681x.c ****     cmd[1] = 0x06;
 608:Drivers/LTC681x/LTC681x.c ****     cmd[0] = 0x00;
 609:Drivers/LTC681x/LTC681x.c ****   }
ARM GAS  /tmp/ccMCacDa.s 			page 50


 610:Drivers/LTC681x/LTC681x.c ****   else if (reg == 3) //3: RDCVC
 2141              		.loc 1 610 0
 2142 0010 0328     		cmp	r0, #3
 2143 0012 34D0     		beq	.L140
 611:Drivers/LTC681x/LTC681x.c ****   {
 612:Drivers/LTC681x/LTC681x.c ****     cmd[1] = 0x08;
 613:Drivers/LTC681x/LTC681x.c ****     cmd[0] = 0x00;
 614:Drivers/LTC681x/LTC681x.c ****   }
 615:Drivers/LTC681x/LTC681x.c ****   else if (reg == 4) //4: RDCVD
 2144              		.loc 1 615 0
 2145 0014 0428     		cmp	r0, #4
 2146 0016 39D0     		beq	.L141
 616:Drivers/LTC681x/LTC681x.c ****   {
 617:Drivers/LTC681x/LTC681x.c ****     cmd[1] = 0x0A;
 618:Drivers/LTC681x/LTC681x.c ****     cmd[0] = 0x00;
 619:Drivers/LTC681x/LTC681x.c ****   }
 620:Drivers/LTC681x/LTC681x.c ****   else if (reg == 5) //4: RDCVE
 2147              		.loc 1 620 0
 2148 0018 0528     		cmp	r0, #5
 2149 001a 3ED0     		beq	.L142
 621:Drivers/LTC681x/LTC681x.c ****   {
 622:Drivers/LTC681x/LTC681x.c ****     cmd[1] = 0x09;
 623:Drivers/LTC681x/LTC681x.c ****     cmd[0] = 0x00;
 624:Drivers/LTC681x/LTC681x.c ****   }
 625:Drivers/LTC681x/LTC681x.c ****   else if (reg == 6) //4: RDCVF
 2150              		.loc 1 625 0
 2151 001c 0628     		cmp	r0, #6
 2152 001e 0CD1     		bne	.L132
 626:Drivers/LTC681x/LTC681x.c ****   {
 627:Drivers/LTC681x/LTC681x.c ****     cmd[1] = 0x0B;
 2153              		.loc 1 627 0
 2154 0020 0B23     		movs	r3, #11
 2155 0022 8DF80530 		strb	r3, [sp, #5]
 628:Drivers/LTC681x/LTC681x.c ****     cmd[0] = 0x00;
 2156              		.loc 1 628 0
 2157 0026 0023     		movs	r3, #0
 2158 0028 8DF80430 		strb	r3, [sp, #4]
 2159 002c 05E0     		b	.L132
 2160              	.L138:
 602:Drivers/LTC681x/LTC681x.c ****     cmd[0] = 0x00;
 2161              		.loc 1 602 0
 2162 002e 0423     		movs	r3, #4
 2163 0030 8DF80530 		strb	r3, [sp, #5]
 603:Drivers/LTC681x/LTC681x.c ****   }
 2164              		.loc 1 603 0
 2165 0034 0023     		movs	r3, #0
 2166 0036 8DF80430 		strb	r3, [sp, #4]
 2167              	.L132:
 629:Drivers/LTC681x/LTC681x.c ****   }
 630:Drivers/LTC681x/LTC681x.c **** 
 631:Drivers/LTC681x/LTC681x.c **** 
 632:Drivers/LTC681x/LTC681x.c ****   cmd_pec = pec15_calc(2, cmd);
 2168              		.loc 1 632 0
 2169 003a 01A9     		add	r1, sp, #4
 2170              	.LVL256:
 2171 003c 0220     		movs	r0, #2
 2172              	.LVL257:
ARM GAS  /tmp/ccMCacDa.s 			page 51


 2173 003e FFF7FEFF 		bl	pec15_calc
 2174              	.LVL258:
 633:Drivers/LTC681x/LTC681x.c ****   cmd[2] = (uint8_t)(cmd_pec >> 8);
 2175              		.loc 1 633 0
 2176 0042 C0F30723 		ubfx	r3, r0, #8, #8
 2177 0046 8DF80630 		strb	r3, [sp, #6]
 634:Drivers/LTC681x/LTC681x.c ****   cmd[3] = (uint8_t)(cmd_pec);
 2178              		.loc 1 634 0
 2179 004a 8DF80700 		strb	r0, [sp, #7]
 635:Drivers/LTC681x/LTC681x.c **** 
 636:Drivers/LTC681x/LTC681x.c ****   cs_low(CS_PIN);
 2180              		.loc 1 636 0
 2181 004e 0A20     		movs	r0, #10
 2182              	.LVL259:
 2183 0050 FFF7FEFF 		bl	cs_low
 2184              	.LVL260:
 637:Drivers/LTC681x/LTC681x.c ****   spi_write_read(cmd,4,data,(REG_LEN*total_ic));
 2185              		.loc 1 637 0
 2186 0054 E300     		lsls	r3, r4, #3
 2187 0056 03F0F803 		and	r3, r3, #248
 2188 005a 2A46     		mov	r2, r5
 2189 005c 0421     		movs	r1, #4
 2190 005e 0DEB0100 		add	r0, sp, r1
 2191 0062 FFF7FEFF 		bl	spi_write_read
 2192              	.LVL261:
 638:Drivers/LTC681x/LTC681x.c ****   cs_high(CS_PIN);
 2193              		.loc 1 638 0
 2194 0066 0A20     		movs	r0, #10
 2195 0068 FFF7FEFF 		bl	cs_high
 2196              	.LVL262:
 639:Drivers/LTC681x/LTC681x.c **** 
 640:Drivers/LTC681x/LTC681x.c **** }
 2197              		.loc 1 640 0
 2198 006c 03B0     		add	sp, sp, #12
 2199              	.LCFI69:
 2200              		.cfi_remember_state
 2201              		.cfi_def_cfa_offset 12
 2202              		@ sp needed
 2203 006e 30BD     		pop	{r4, r5, pc}
 2204              	.LVL263:
 2205              	.L139:
 2206              	.LCFI70:
 2207              		.cfi_restore_state
 607:Drivers/LTC681x/LTC681x.c ****     cmd[0] = 0x00;
 2208              		.loc 1 607 0
 2209 0070 0623     		movs	r3, #6
 2210 0072 8DF80530 		strb	r3, [sp, #5]
 608:Drivers/LTC681x/LTC681x.c ****   }
 2211              		.loc 1 608 0
 2212 0076 0023     		movs	r3, #0
 2213 0078 8DF80430 		strb	r3, [sp, #4]
 2214 007c DDE7     		b	.L132
 2215              	.L140:
 612:Drivers/LTC681x/LTC681x.c ****     cmd[0] = 0x00;
 2216              		.loc 1 612 0
 2217 007e 0823     		movs	r3, #8
 2218 0080 8DF80530 		strb	r3, [sp, #5]
ARM GAS  /tmp/ccMCacDa.s 			page 52


 613:Drivers/LTC681x/LTC681x.c ****   }
 2219              		.loc 1 613 0
 2220 0084 0023     		movs	r3, #0
 2221 0086 8DF80430 		strb	r3, [sp, #4]
 2222 008a D6E7     		b	.L132
 2223              	.L141:
 617:Drivers/LTC681x/LTC681x.c ****     cmd[0] = 0x00;
 2224              		.loc 1 617 0
 2225 008c 0A23     		movs	r3, #10
 2226 008e 8DF80530 		strb	r3, [sp, #5]
 618:Drivers/LTC681x/LTC681x.c ****   }
 2227              		.loc 1 618 0
 2228 0092 0023     		movs	r3, #0
 2229 0094 8DF80430 		strb	r3, [sp, #4]
 2230 0098 CFE7     		b	.L132
 2231              	.L142:
 622:Drivers/LTC681x/LTC681x.c ****     cmd[0] = 0x00;
 2232              		.loc 1 622 0
 2233 009a 0923     		movs	r3, #9
 2234 009c 8DF80530 		strb	r3, [sp, #5]
 623:Drivers/LTC681x/LTC681x.c ****   }
 2235              		.loc 1 623 0
 2236 00a0 0023     		movs	r3, #0
 2237 00a2 8DF80430 		strb	r3, [sp, #4]
 2238 00a6 C8E7     		b	.L132
 2239              		.cfi_endproc
 2240              	.LFE31:
 2242              		.section	.text.LTC681x_rdaux_reg,"ax",%progbits
 2243              		.align	1
 2244              		.global	LTC681x_rdaux_reg
 2245              		.syntax unified
 2246              		.thumb
 2247              		.thumb_func
 2248              		.fpu softvfp
 2250              	LTC681x_rdaux_reg:
 2251              	.LFB32:
 641:Drivers/LTC681x/LTC681x.c **** 
 642:Drivers/LTC681x/LTC681x.c **** 
 643:Drivers/LTC681x/LTC681x.c **** /*
 644:Drivers/LTC681x/LTC681x.c **** The function reads a single GPIO voltage register and stores the read data
 645:Drivers/LTC681x/LTC681x.c **** in the *data point as a byte array. This function is rarely used outside of
 646:Drivers/LTC681x/LTC681x.c **** the LTC6811_rdaux() command.
 647:Drivers/LTC681x/LTC681x.c **** */
 648:Drivers/LTC681x/LTC681x.c **** void LTC681x_rdaux_reg(uint8_t reg, //Determines which GPIO voltage register is read back
 649:Drivers/LTC681x/LTC681x.c ****                        uint8_t total_ic, //The number of ICs in the system
 650:Drivers/LTC681x/LTC681x.c ****                        uint8_t *data //Array of the unparsed auxiliary codes
 651:Drivers/LTC681x/LTC681x.c ****                       )
 652:Drivers/LTC681x/LTC681x.c **** {
 2252              		.loc 1 652 0
 2253              		.cfi_startproc
 2254              		@ args = 0, pretend = 0, frame = 8
 2255              		@ frame_needed = 0, uses_anonymous_args = 0
 2256              	.LVL264:
 2257 0000 30B5     		push	{r4, r5, lr}
 2258              	.LCFI71:
 2259              		.cfi_def_cfa_offset 12
 2260              		.cfi_offset 4, -12
ARM GAS  /tmp/ccMCacDa.s 			page 53


 2261              		.cfi_offset 5, -8
 2262              		.cfi_offset 14, -4
 2263 0002 83B0     		sub	sp, sp, #12
 2264              	.LCFI72:
 2265              		.cfi_def_cfa_offset 24
 2266 0004 0C46     		mov	r4, r1
 2267 0006 1546     		mov	r5, r2
 2268              	.LVL265:
 653:Drivers/LTC681x/LTC681x.c ****   const uint8_t REG_LEN = 8; // number of bytes in the register + 2 bytes for the PEC
 654:Drivers/LTC681x/LTC681x.c ****   uint8_t cmd[4];
 655:Drivers/LTC681x/LTC681x.c ****   uint16_t cmd_pec;
 656:Drivers/LTC681x/LTC681x.c **** 
 657:Drivers/LTC681x/LTC681x.c **** 
 658:Drivers/LTC681x/LTC681x.c ****   if (reg == 1)     //Read back auxiliary group A
 2269              		.loc 1 658 0
 2270 0008 0128     		cmp	r0, #1
 2271 000a 0CD0     		beq	.L150
 659:Drivers/LTC681x/LTC681x.c ****   {
 660:Drivers/LTC681x/LTC681x.c ****     cmd[1] = 0x0C;
 661:Drivers/LTC681x/LTC681x.c ****     cmd[0] = 0x00;
 662:Drivers/LTC681x/LTC681x.c ****   }
 663:Drivers/LTC681x/LTC681x.c ****   else if (reg == 2)  //Read back auxiliary group B
 2272              		.loc 1 663 0
 2273 000c 0228     		cmp	r0, #2
 2274 000e 2BD0     		beq	.L151
 664:Drivers/LTC681x/LTC681x.c ****   {
 665:Drivers/LTC681x/LTC681x.c ****     cmd[1] = 0x0E;
 666:Drivers/LTC681x/LTC681x.c ****     cmd[0] = 0x00;
 667:Drivers/LTC681x/LTC681x.c ****   }
 668:Drivers/LTC681x/LTC681x.c ****   else if (reg == 3)  //Read back auxiliary group C
 2275              		.loc 1 668 0
 2276 0010 0328     		cmp	r0, #3
 2277 0012 30D0     		beq	.L152
 669:Drivers/LTC681x/LTC681x.c ****   {
 670:Drivers/LTC681x/LTC681x.c ****     cmd[1] = 0x0D;
 671:Drivers/LTC681x/LTC681x.c ****     cmd[0] = 0x00;
 672:Drivers/LTC681x/LTC681x.c ****   }
 673:Drivers/LTC681x/LTC681x.c ****   else if (reg == 4)  //Read back auxiliary group D
 2278              		.loc 1 673 0
 2279 0014 0428     		cmp	r0, #4
 2280 0016 35D0     		beq	.L153
 674:Drivers/LTC681x/LTC681x.c ****   {
 675:Drivers/LTC681x/LTC681x.c ****     cmd[1] = 0x0F;
 676:Drivers/LTC681x/LTC681x.c ****     cmd[0] = 0x00;
 677:Drivers/LTC681x/LTC681x.c ****   }
 678:Drivers/LTC681x/LTC681x.c ****   else          //Read back auxiliary group A
 679:Drivers/LTC681x/LTC681x.c ****   {
 680:Drivers/LTC681x/LTC681x.c ****     cmd[1] = 0x0C;
 2281              		.loc 1 680 0
 2282 0018 0C23     		movs	r3, #12
 2283 001a 8DF80530 		strb	r3, [sp, #5]
 681:Drivers/LTC681x/LTC681x.c ****     cmd[0] = 0x00;
 2284              		.loc 1 681 0
 2285 001e 0023     		movs	r3, #0
 2286 0020 8DF80430 		strb	r3, [sp, #4]
 2287 0024 05E0     		b	.L145
 2288              	.L150:
ARM GAS  /tmp/ccMCacDa.s 			page 54


 660:Drivers/LTC681x/LTC681x.c ****     cmd[0] = 0x00;
 2289              		.loc 1 660 0
 2290 0026 0C23     		movs	r3, #12
 2291 0028 8DF80530 		strb	r3, [sp, #5]
 661:Drivers/LTC681x/LTC681x.c ****   }
 2292              		.loc 1 661 0
 2293 002c 0023     		movs	r3, #0
 2294 002e 8DF80430 		strb	r3, [sp, #4]
 2295              	.L145:
 682:Drivers/LTC681x/LTC681x.c ****   }
 683:Drivers/LTC681x/LTC681x.c **** 
 684:Drivers/LTC681x/LTC681x.c ****   cmd_pec = pec15_calc(2, cmd);
 2296              		.loc 1 684 0
 2297 0032 01A9     		add	r1, sp, #4
 2298              	.LVL266:
 2299 0034 0220     		movs	r0, #2
 2300              	.LVL267:
 2301 0036 FFF7FEFF 		bl	pec15_calc
 2302              	.LVL268:
 685:Drivers/LTC681x/LTC681x.c ****   cmd[2] = (uint8_t)(cmd_pec >> 8);
 2303              		.loc 1 685 0
 2304 003a C0F30723 		ubfx	r3, r0, #8, #8
 2305 003e 8DF80630 		strb	r3, [sp, #6]
 686:Drivers/LTC681x/LTC681x.c ****   cmd[3] = (uint8_t)(cmd_pec);
 2306              		.loc 1 686 0
 2307 0042 8DF80700 		strb	r0, [sp, #7]
 687:Drivers/LTC681x/LTC681x.c **** 
 688:Drivers/LTC681x/LTC681x.c ****   cs_low(CS_PIN);
 2308              		.loc 1 688 0
 2309 0046 0A20     		movs	r0, #10
 2310              	.LVL269:
 2311 0048 FFF7FEFF 		bl	cs_low
 2312              	.LVL270:
 689:Drivers/LTC681x/LTC681x.c ****   spi_write_read(cmd,4,data,(REG_LEN*total_ic));
 2313              		.loc 1 689 0
 2314 004c E300     		lsls	r3, r4, #3
 2315 004e 03F0F803 		and	r3, r3, #248
 2316 0052 2A46     		mov	r2, r5
 2317 0054 0421     		movs	r1, #4
 2318 0056 0DEB0100 		add	r0, sp, r1
 2319 005a FFF7FEFF 		bl	spi_write_read
 2320              	.LVL271:
 690:Drivers/LTC681x/LTC681x.c ****   cs_high(CS_PIN);
 2321              		.loc 1 690 0
 2322 005e 0A20     		movs	r0, #10
 2323 0060 FFF7FEFF 		bl	cs_high
 2324              	.LVL272:
 691:Drivers/LTC681x/LTC681x.c **** 
 692:Drivers/LTC681x/LTC681x.c **** }
 2325              		.loc 1 692 0
 2326 0064 03B0     		add	sp, sp, #12
 2327              	.LCFI73:
 2328              		.cfi_remember_state
 2329              		.cfi_def_cfa_offset 12
 2330              		@ sp needed
 2331 0066 30BD     		pop	{r4, r5, pc}
 2332              	.LVL273:
ARM GAS  /tmp/ccMCacDa.s 			page 55


 2333              	.L151:
 2334              	.LCFI74:
 2335              		.cfi_restore_state
 665:Drivers/LTC681x/LTC681x.c ****     cmd[0] = 0x00;
 2336              		.loc 1 665 0
 2337 0068 0E23     		movs	r3, #14
 2338 006a 8DF80530 		strb	r3, [sp, #5]
 666:Drivers/LTC681x/LTC681x.c ****   }
 2339              		.loc 1 666 0
 2340 006e 0023     		movs	r3, #0
 2341 0070 8DF80430 		strb	r3, [sp, #4]
 2342 0074 DDE7     		b	.L145
 2343              	.L152:
 670:Drivers/LTC681x/LTC681x.c ****     cmd[0] = 0x00;
 2344              		.loc 1 670 0
 2345 0076 0D23     		movs	r3, #13
 2346 0078 8DF80530 		strb	r3, [sp, #5]
 671:Drivers/LTC681x/LTC681x.c ****   }
 2347              		.loc 1 671 0
 2348 007c 0023     		movs	r3, #0
 2349 007e 8DF80430 		strb	r3, [sp, #4]
 2350 0082 D6E7     		b	.L145
 2351              	.L153:
 675:Drivers/LTC681x/LTC681x.c ****     cmd[0] = 0x00;
 2352              		.loc 1 675 0
 2353 0084 0F23     		movs	r3, #15
 2354 0086 8DF80530 		strb	r3, [sp, #5]
 676:Drivers/LTC681x/LTC681x.c ****   }
 2355              		.loc 1 676 0
 2356 008a 0023     		movs	r3, #0
 2357 008c 8DF80430 		strb	r3, [sp, #4]
 2358 0090 CFE7     		b	.L145
 2359              		.cfi_endproc
 2360              	.LFE32:
 2362              		.section	.text.LTC681x_rdstat_reg,"ax",%progbits
 2363              		.align	1
 2364              		.global	LTC681x_rdstat_reg
 2365              		.syntax unified
 2366              		.thumb
 2367              		.thumb_func
 2368              		.fpu softvfp
 2370              	LTC681x_rdstat_reg:
 2371              	.LFB33:
 693:Drivers/LTC681x/LTC681x.c **** 
 694:Drivers/LTC681x/LTC681x.c **** /*
 695:Drivers/LTC681x/LTC681x.c **** The function reads a single stat  register and stores the read data
 696:Drivers/LTC681x/LTC681x.c **** in the *data point as a byte array. This function is rarely used outside of
 697:Drivers/LTC681x/LTC681x.c **** the LTC6811_rdstat() command.
 698:Drivers/LTC681x/LTC681x.c **** */
 699:Drivers/LTC681x/LTC681x.c **** void LTC681x_rdstat_reg(uint8_t reg, //Determines which stat register is read back
 700:Drivers/LTC681x/LTC681x.c ****                         uint8_t total_ic, //The number of ICs in the system
 701:Drivers/LTC681x/LTC681x.c ****                         uint8_t *data //Array of the unparsed stat codes
 702:Drivers/LTC681x/LTC681x.c ****                        )
 703:Drivers/LTC681x/LTC681x.c **** {
 2372              		.loc 1 703 0
 2373              		.cfi_startproc
 2374              		@ args = 0, pretend = 0, frame = 8
ARM GAS  /tmp/ccMCacDa.s 			page 56


 2375              		@ frame_needed = 0, uses_anonymous_args = 0
 2376              	.LVL274:
 2377 0000 30B5     		push	{r4, r5, lr}
 2378              	.LCFI75:
 2379              		.cfi_def_cfa_offset 12
 2380              		.cfi_offset 4, -12
 2381              		.cfi_offset 5, -8
 2382              		.cfi_offset 14, -4
 2383 0002 83B0     		sub	sp, sp, #12
 2384              	.LCFI76:
 2385              		.cfi_def_cfa_offset 24
 2386 0004 0C46     		mov	r4, r1
 2387 0006 1546     		mov	r5, r2
 2388              	.LVL275:
 704:Drivers/LTC681x/LTC681x.c ****   const uint8_t REG_LEN = 8; // number of bytes in the register + 2 bytes for the PEC
 705:Drivers/LTC681x/LTC681x.c ****   uint8_t cmd[4];
 706:Drivers/LTC681x/LTC681x.c ****   uint16_t cmd_pec;
 707:Drivers/LTC681x/LTC681x.c **** 
 708:Drivers/LTC681x/LTC681x.c **** 
 709:Drivers/LTC681x/LTC681x.c ****   if (reg == 1)     //Read back status group A
 2389              		.loc 1 709 0
 2390 0008 0128     		cmp	r0, #1
 2391 000a 22D0     		beq	.L159
 710:Drivers/LTC681x/LTC681x.c ****   {
 711:Drivers/LTC681x/LTC681x.c ****     cmd[1] = 0x10;
 712:Drivers/LTC681x/LTC681x.c ****     cmd[0] = 0x00;
 713:Drivers/LTC681x/LTC681x.c ****   }
 714:Drivers/LTC681x/LTC681x.c ****   else if (reg == 2)  //Read back status group B
 2392              		.loc 1 714 0
 2393 000c 0228     		cmp	r0, #2
 2394 000e 27D0     		beq	.L160
 715:Drivers/LTC681x/LTC681x.c ****   {
 716:Drivers/LTC681x/LTC681x.c ****     cmd[1] = 0x12;
 717:Drivers/LTC681x/LTC681x.c ****     cmd[0] = 0x00;
 718:Drivers/LTC681x/LTC681x.c ****   }
 719:Drivers/LTC681x/LTC681x.c **** 
 720:Drivers/LTC681x/LTC681x.c ****   else          //Read back status group A
 721:Drivers/LTC681x/LTC681x.c ****   {
 722:Drivers/LTC681x/LTC681x.c ****     cmd[1] = 0x10;
 2395              		.loc 1 722 0
 2396 0010 1023     		movs	r3, #16
 2397 0012 8DF80530 		strb	r3, [sp, #5]
 723:Drivers/LTC681x/LTC681x.c ****     cmd[0] = 0x00;
 2398              		.loc 1 723 0
 2399 0016 0023     		movs	r3, #0
 2400 0018 8DF80430 		strb	r3, [sp, #4]
 2401              	.L156:
 724:Drivers/LTC681x/LTC681x.c ****   }
 725:Drivers/LTC681x/LTC681x.c **** 
 726:Drivers/LTC681x/LTC681x.c ****   cmd_pec = pec15_calc(2, cmd);
 2402              		.loc 1 726 0
 2403 001c 01A9     		add	r1, sp, #4
 2404              	.LVL276:
 2405 001e 0220     		movs	r0, #2
 2406              	.LVL277:
 2407 0020 FFF7FEFF 		bl	pec15_calc
 2408              	.LVL278:
ARM GAS  /tmp/ccMCacDa.s 			page 57


 727:Drivers/LTC681x/LTC681x.c ****   cmd[2] = (uint8_t)(cmd_pec >> 8);
 2409              		.loc 1 727 0
 2410 0024 C0F30723 		ubfx	r3, r0, #8, #8
 2411 0028 8DF80630 		strb	r3, [sp, #6]
 728:Drivers/LTC681x/LTC681x.c ****   cmd[3] = (uint8_t)(cmd_pec);
 2412              		.loc 1 728 0
 2413 002c 8DF80700 		strb	r0, [sp, #7]
 729:Drivers/LTC681x/LTC681x.c **** 
 730:Drivers/LTC681x/LTC681x.c ****   cs_low(CS_PIN);
 2414              		.loc 1 730 0
 2415 0030 0A20     		movs	r0, #10
 2416              	.LVL279:
 2417 0032 FFF7FEFF 		bl	cs_low
 2418              	.LVL280:
 731:Drivers/LTC681x/LTC681x.c ****   spi_write_read(cmd,4,data,(REG_LEN*total_ic));
 2419              		.loc 1 731 0
 2420 0036 E300     		lsls	r3, r4, #3
 2421 0038 03F0F803 		and	r3, r3, #248
 2422 003c 2A46     		mov	r2, r5
 2423 003e 0421     		movs	r1, #4
 2424 0040 0DEB0100 		add	r0, sp, r1
 2425 0044 FFF7FEFF 		bl	spi_write_read
 2426              	.LVL281:
 732:Drivers/LTC681x/LTC681x.c ****   cs_high(CS_PIN);
 2427              		.loc 1 732 0
 2428 0048 0A20     		movs	r0, #10
 2429 004a FFF7FEFF 		bl	cs_high
 2430              	.LVL282:
 733:Drivers/LTC681x/LTC681x.c **** 
 734:Drivers/LTC681x/LTC681x.c **** }
 2431              		.loc 1 734 0
 2432 004e 03B0     		add	sp, sp, #12
 2433              	.LCFI77:
 2434              		.cfi_remember_state
 2435              		.cfi_def_cfa_offset 12
 2436              		@ sp needed
 2437 0050 30BD     		pop	{r4, r5, pc}
 2438              	.LVL283:
 2439              	.L159:
 2440              	.LCFI78:
 2441              		.cfi_restore_state
 711:Drivers/LTC681x/LTC681x.c ****     cmd[0] = 0x00;
 2442              		.loc 1 711 0
 2443 0052 1023     		movs	r3, #16
 2444 0054 8DF80530 		strb	r3, [sp, #5]
 712:Drivers/LTC681x/LTC681x.c ****   }
 2445              		.loc 1 712 0
 2446 0058 0023     		movs	r3, #0
 2447 005a 8DF80430 		strb	r3, [sp, #4]
 2448 005e DDE7     		b	.L156
 2449              	.L160:
 716:Drivers/LTC681x/LTC681x.c ****     cmd[0] = 0x00;
 2450              		.loc 1 716 0
 2451 0060 1223     		movs	r3, #18
 2452 0062 8DF80530 		strb	r3, [sp, #5]
 717:Drivers/LTC681x/LTC681x.c ****   }
 2453              		.loc 1 717 0
ARM GAS  /tmp/ccMCacDa.s 			page 58


 2454 0066 0023     		movs	r3, #0
 2455 0068 8DF80430 		strb	r3, [sp, #4]
 2456 006c D6E7     		b	.L156
 2457              		.cfi_endproc
 2458              	.LFE33:
 2460              		.section	.text.LTC681x_clrcell,"ax",%progbits
 2461              		.align	1
 2462              		.global	LTC681x_clrcell
 2463              		.syntax unified
 2464              		.thumb
 2465              		.thumb_func
 2466              		.fpu softvfp
 2468              	LTC681x_clrcell:
 2469              	.LFB34:
 735:Drivers/LTC681x/LTC681x.c **** 
 736:Drivers/LTC681x/LTC681x.c **** /*
 737:Drivers/LTC681x/LTC681x.c **** The command clears the cell voltage registers and initializes
 738:Drivers/LTC681x/LTC681x.c **** all values to 1. The register will read back hexadecimal 0xFF
 739:Drivers/LTC681x/LTC681x.c **** after the command is sent.
 740:Drivers/LTC681x/LTC681x.c **** */
 741:Drivers/LTC681x/LTC681x.c **** void LTC681x_clrcell()
 742:Drivers/LTC681x/LTC681x.c **** {
 2470              		.loc 1 742 0
 2471              		.cfi_startproc
 2472              		@ args = 0, pretend = 0, frame = 8
 2473              		@ frame_needed = 0, uses_anonymous_args = 0
 2474 0000 00B5     		push	{lr}
 2475              	.LCFI79:
 2476              		.cfi_def_cfa_offset 4
 2477              		.cfi_offset 14, -4
 2478 0002 83B0     		sub	sp, sp, #12
 2479              	.LCFI80:
 2480              		.cfi_def_cfa_offset 16
 743:Drivers/LTC681x/LTC681x.c ****   uint8_t cmd[2]= {0x07 , 0x11};
 2481              		.loc 1 743 0
 2482 0004 044B     		ldr	r3, .L163
 2483 0006 9B88     		ldrh	r3, [r3, #4]
 2484 0008 02A8     		add	r0, sp, #8
 2485 000a 20F8043D 		strh	r3, [r0, #-4]!	@ movhi
 744:Drivers/LTC681x/LTC681x.c ****   cmd_68(cmd);
 2486              		.loc 1 744 0
 2487 000e FFF7FEFF 		bl	cmd_68
 2488              	.LVL284:
 745:Drivers/LTC681x/LTC681x.c **** }
 2489              		.loc 1 745 0
 2490 0012 03B0     		add	sp, sp, #12
 2491              	.LCFI81:
 2492              		.cfi_def_cfa_offset 4
 2493              		@ sp needed
 2494 0014 5DF804FB 		ldr	pc, [sp], #4
 2495              	.L164:
 2496              		.align	2
 2497              	.L163:
 2498 0018 00000000 		.word	.LANCHOR1
 2499              		.cfi_endproc
 2500              	.LFE34:
 2502              		.section	.text.LTC681x_clraux,"ax",%progbits
ARM GAS  /tmp/ccMCacDa.s 			page 59


 2503              		.align	1
 2504              		.global	LTC681x_clraux
 2505              		.syntax unified
 2506              		.thumb
 2507              		.thumb_func
 2508              		.fpu softvfp
 2510              	LTC681x_clraux:
 2511              	.LFB35:
 746:Drivers/LTC681x/LTC681x.c **** 
 747:Drivers/LTC681x/LTC681x.c **** /*
 748:Drivers/LTC681x/LTC681x.c **** The command clears the Auxiliary registers and initializes
 749:Drivers/LTC681x/LTC681x.c **** all values to 1. The register will read back hexadecimal 0xFF
 750:Drivers/LTC681x/LTC681x.c **** after the command is sent.
 751:Drivers/LTC681x/LTC681x.c **** */
 752:Drivers/LTC681x/LTC681x.c **** void LTC681x_clraux()
 753:Drivers/LTC681x/LTC681x.c **** {
 2512              		.loc 1 753 0
 2513              		.cfi_startproc
 2514              		@ args = 0, pretend = 0, frame = 8
 2515              		@ frame_needed = 0, uses_anonymous_args = 0
 2516 0000 00B5     		push	{lr}
 2517              	.LCFI82:
 2518              		.cfi_def_cfa_offset 4
 2519              		.cfi_offset 14, -4
 2520 0002 83B0     		sub	sp, sp, #12
 2521              	.LCFI83:
 2522              		.cfi_def_cfa_offset 16
 754:Drivers/LTC681x/LTC681x.c ****   uint8_t cmd[2]= {0x07 , 0x12};
 2523              		.loc 1 754 0
 2524 0004 044B     		ldr	r3, .L167
 2525 0006 1B89     		ldrh	r3, [r3, #8]
 2526 0008 02A8     		add	r0, sp, #8
 2527 000a 20F8043D 		strh	r3, [r0, #-4]!	@ movhi
 755:Drivers/LTC681x/LTC681x.c ****   cmd_68(cmd);
 2528              		.loc 1 755 0
 2529 000e FFF7FEFF 		bl	cmd_68
 2530              	.LVL285:
 756:Drivers/LTC681x/LTC681x.c **** }
 2531              		.loc 1 756 0
 2532 0012 03B0     		add	sp, sp, #12
 2533              	.LCFI84:
 2534              		.cfi_def_cfa_offset 4
 2535              		@ sp needed
 2536 0014 5DF804FB 		ldr	pc, [sp], #4
 2537              	.L168:
 2538              		.align	2
 2539              	.L167:
 2540 0018 00000000 		.word	.LANCHOR1
 2541              		.cfi_endproc
 2542              	.LFE35:
 2544              		.section	.text.LTC681x_clrstat,"ax",%progbits
 2545              		.align	1
 2546              		.global	LTC681x_clrstat
 2547              		.syntax unified
 2548              		.thumb
 2549              		.thumb_func
 2550              		.fpu softvfp
ARM GAS  /tmp/ccMCacDa.s 			page 60


 2552              	LTC681x_clrstat:
 2553              	.LFB36:
 757:Drivers/LTC681x/LTC681x.c **** 
 758:Drivers/LTC681x/LTC681x.c **** 
 759:Drivers/LTC681x/LTC681x.c **** /*
 760:Drivers/LTC681x/LTC681x.c **** The command clears the Stat registers and initializes
 761:Drivers/LTC681x/LTC681x.c **** all values to 1. The register will read back hexadecimal 0xFF
 762:Drivers/LTC681x/LTC681x.c **** after the command is sent.
 763:Drivers/LTC681x/LTC681x.c **** 
 764:Drivers/LTC681x/LTC681x.c **** */
 765:Drivers/LTC681x/LTC681x.c **** void LTC681x_clrstat()
 766:Drivers/LTC681x/LTC681x.c **** {
 2554              		.loc 1 766 0
 2555              		.cfi_startproc
 2556              		@ args = 0, pretend = 0, frame = 8
 2557              		@ frame_needed = 0, uses_anonymous_args = 0
 2558 0000 00B5     		push	{lr}
 2559              	.LCFI85:
 2560              		.cfi_def_cfa_offset 4
 2561              		.cfi_offset 14, -4
 2562 0002 83B0     		sub	sp, sp, #12
 2563              	.LCFI86:
 2564              		.cfi_def_cfa_offset 16
 767:Drivers/LTC681x/LTC681x.c ****   uint8_t cmd[2]= {0x07 , 0x13};
 2565              		.loc 1 767 0
 2566 0004 044B     		ldr	r3, .L171
 2567 0006 9B89     		ldrh	r3, [r3, #12]
 2568 0008 02A8     		add	r0, sp, #8
 2569 000a 20F8043D 		strh	r3, [r0, #-4]!	@ movhi
 768:Drivers/LTC681x/LTC681x.c ****   cmd_68(cmd);
 2570              		.loc 1 768 0
 2571 000e FFF7FEFF 		bl	cmd_68
 2572              	.LVL286:
 769:Drivers/LTC681x/LTC681x.c **** }
 2573              		.loc 1 769 0
 2574 0012 03B0     		add	sp, sp, #12
 2575              	.LCFI87:
 2576              		.cfi_def_cfa_offset 4
 2577              		@ sp needed
 2578 0014 5DF804FB 		ldr	pc, [sp], #4
 2579              	.L172:
 2580              		.align	2
 2581              	.L171:
 2582 0018 00000000 		.word	.LANCHOR1
 2583              		.cfi_endproc
 2584              	.LFE36:
 2586              		.section	.text.LTC681x_clrsctrl,"ax",%progbits
 2587              		.align	1
 2588              		.global	LTC681x_clrsctrl
 2589              		.syntax unified
 2590              		.thumb
 2591              		.thumb_func
 2592              		.fpu softvfp
 2594              	LTC681x_clrsctrl:
 2595              	.LFB37:
 770:Drivers/LTC681x/LTC681x.c **** 
 771:Drivers/LTC681x/LTC681x.c **** /*
ARM GAS  /tmp/ccMCacDa.s 			page 61


 772:Drivers/LTC681x/LTC681x.c **** The command clears the Sctrl registers and initializes
 773:Drivers/LTC681x/LTC681x.c **** all values to 0. The register will read back hexadecimal 0x00
 774:Drivers/LTC681x/LTC681x.c **** after the command is sent.
 775:Drivers/LTC681x/LTC681x.c **** */
 776:Drivers/LTC681x/LTC681x.c **** void LTC681x_clrsctrl()
 777:Drivers/LTC681x/LTC681x.c **** {
 2596              		.loc 1 777 0
 2597              		.cfi_startproc
 2598              		@ args = 0, pretend = 0, frame = 8
 2599              		@ frame_needed = 0, uses_anonymous_args = 0
 2600 0000 00B5     		push	{lr}
 2601              	.LCFI88:
 2602              		.cfi_def_cfa_offset 4
 2603              		.cfi_offset 14, -4
 2604 0002 83B0     		sub	sp, sp, #12
 2605              	.LCFI89:
 2606              		.cfi_def_cfa_offset 16
 778:Drivers/LTC681x/LTC681x.c ****   uint8_t cmd[2]= {0x00 , 0x18};
 2607              		.loc 1 778 0
 2608 0004 0023     		movs	r3, #0
 2609 0006 8DF80430 		strb	r3, [sp, #4]
 2610 000a 1823     		movs	r3, #24
 2611 000c 8DF80530 		strb	r3, [sp, #5]
 779:Drivers/LTC681x/LTC681x.c ****   cmd_68(cmd);
 2612              		.loc 1 779 0
 2613 0010 01A8     		add	r0, sp, #4
 2614 0012 FFF7FEFF 		bl	cmd_68
 2615              	.LVL287:
 780:Drivers/LTC681x/LTC681x.c **** }
 2616              		.loc 1 780 0
 2617 0016 03B0     		add	sp, sp, #12
 2618              	.LCFI90:
 2619              		.cfi_def_cfa_offset 4
 2620              		@ sp needed
 2621 0018 5DF804FB 		ldr	pc, [sp], #4
 2622              		.cfi_endproc
 2623              	.LFE37:
 2625              		.section	.text.LTC681x_wrcfg,"ax",%progbits
 2626              		.align	1
 2627              		.global	LTC681x_wrcfg
 2628              		.syntax unified
 2629              		.thumb
 2630              		.thumb_func
 2631              		.fpu softvfp
 2633              	LTC681x_wrcfg:
 2634              	.LFB41:
 781:Drivers/LTC681x/LTC681x.c **** 
 782:Drivers/LTC681x/LTC681x.c **** //Reads and parses the LTC681x cell voltage registers.
 783:Drivers/LTC681x/LTC681x.c **** uint8_t LTC681x_rdcv(uint8_t reg, // Controls which cell voltage register is read back.
 784:Drivers/LTC681x/LTC681x.c ****                      uint8_t total_ic, // the number of ICs in the system
 785:Drivers/LTC681x/LTC681x.c ****                      cell_asic *ic // Array of the parsed cell codes
 786:Drivers/LTC681x/LTC681x.c ****                     )
 787:Drivers/LTC681x/LTC681x.c **** {
 788:Drivers/LTC681x/LTC681x.c ****   int8_t pec_error = 0;
 789:Drivers/LTC681x/LTC681x.c ****   uint8_t *cell_data;
 790:Drivers/LTC681x/LTC681x.c ****   uint8_t c_ic = 0;
 791:Drivers/LTC681x/LTC681x.c ****   cell_data = (uint8_t *) malloc((NUM_RX_BYT*total_ic)*sizeof(uint8_t));
ARM GAS  /tmp/ccMCacDa.s 			page 62


 792:Drivers/LTC681x/LTC681x.c **** 
 793:Drivers/LTC681x/LTC681x.c ****   if (reg == 0)
 794:Drivers/LTC681x/LTC681x.c ****   {
 795:Drivers/LTC681x/LTC681x.c ****     for (uint8_t cell_reg = 1; cell_reg<ic[0].ic_reg.num_cv_reg+1; cell_reg++) //executes once for 
 796:Drivers/LTC681x/LTC681x.c ****     {
 797:Drivers/LTC681x/LTC681x.c ****       LTC681x_rdcv_reg(cell_reg, total_ic,cell_data );
 798:Drivers/LTC681x/LTC681x.c ****       for (int current_ic = 0; current_ic<total_ic; current_ic++)
 799:Drivers/LTC681x/LTC681x.c ****       {
 800:Drivers/LTC681x/LTC681x.c ****         if (ic->isospi_reverse == false)
 801:Drivers/LTC681x/LTC681x.c ****         {
 802:Drivers/LTC681x/LTC681x.c ****           c_ic = current_ic;
 803:Drivers/LTC681x/LTC681x.c ****         }
 804:Drivers/LTC681x/LTC681x.c ****         else
 805:Drivers/LTC681x/LTC681x.c ****         {
 806:Drivers/LTC681x/LTC681x.c ****           c_ic = total_ic - current_ic - 1;
 807:Drivers/LTC681x/LTC681x.c ****         }
 808:Drivers/LTC681x/LTC681x.c ****         pec_error = pec_error + parse_cells(current_ic,cell_reg, cell_data,
 809:Drivers/LTC681x/LTC681x.c ****                                             &ic[c_ic].cells.c_codes[0],
 810:Drivers/LTC681x/LTC681x.c ****                                             &ic[c_ic].cells.pec_match[0]);
 811:Drivers/LTC681x/LTC681x.c ****       }
 812:Drivers/LTC681x/LTC681x.c ****     }
 813:Drivers/LTC681x/LTC681x.c ****    }
 814:Drivers/LTC681x/LTC681x.c **** 
 815:Drivers/LTC681x/LTC681x.c ****   else
 816:Drivers/LTC681x/LTC681x.c ****   {
 817:Drivers/LTC681x/LTC681x.c ****     LTC681x_rdcv_reg(reg, total_ic,cell_data);
 818:Drivers/LTC681x/LTC681x.c **** 
 819:Drivers/LTC681x/LTC681x.c ****     for (int current_ic = 0; current_ic<total_ic; current_ic++)
 820:Drivers/LTC681x/LTC681x.c ****     {
 821:Drivers/LTC681x/LTC681x.c ****       if (ic->isospi_reverse == false)
 822:Drivers/LTC681x/LTC681x.c ****       {
 823:Drivers/LTC681x/LTC681x.c ****         c_ic = current_ic;
 824:Drivers/LTC681x/LTC681x.c ****       }
 825:Drivers/LTC681x/LTC681x.c ****       else
 826:Drivers/LTC681x/LTC681x.c ****       {
 827:Drivers/LTC681x/LTC681x.c ****         c_ic = total_ic - current_ic - 1;
 828:Drivers/LTC681x/LTC681x.c ****       }
 829:Drivers/LTC681x/LTC681x.c ****       pec_error = pec_error + parse_cells(current_ic,reg, &cell_data[8*c_ic],
 830:Drivers/LTC681x/LTC681x.c ****                                           &ic[c_ic].cells.c_codes[0],
 831:Drivers/LTC681x/LTC681x.c ****                                           &ic[c_ic].cells.pec_match[0]);
 832:Drivers/LTC681x/LTC681x.c ****     }
 833:Drivers/LTC681x/LTC681x.c ****   }
 834:Drivers/LTC681x/LTC681x.c ****   LTC681x_check_pec(total_ic,CELL,ic);
 835:Drivers/LTC681x/LTC681x.c ****   free(cell_data);
 836:Drivers/LTC681x/LTC681x.c ****   return(pec_error);
 837:Drivers/LTC681x/LTC681x.c **** }
 838:Drivers/LTC681x/LTC681x.c **** 
 839:Drivers/LTC681x/LTC681x.c **** /*
 840:Drivers/LTC681x/LTC681x.c **** The function is used
 841:Drivers/LTC681x/LTC681x.c **** to read the  parsed GPIO codes of the LTC6811. This function will send the requested
 842:Drivers/LTC681x/LTC681x.c **** read commands parse the data and store the gpio voltages in aux_codes variable
 843:Drivers/LTC681x/LTC681x.c **** */
 844:Drivers/LTC681x/LTC681x.c **** int8_t LTC681x_rdaux(uint8_t reg, //Determines which GPIO voltage register is read back.
 845:Drivers/LTC681x/LTC681x.c ****                      uint8_t total_ic,//the number of ICs in the system
 846:Drivers/LTC681x/LTC681x.c ****                      cell_asic *ic//A two dimensional array of the gpio voltage codes.
 847:Drivers/LTC681x/LTC681x.c ****                     )
 848:Drivers/LTC681x/LTC681x.c **** {
ARM GAS  /tmp/ccMCacDa.s 			page 63


 849:Drivers/LTC681x/LTC681x.c ****   uint8_t *data;
 850:Drivers/LTC681x/LTC681x.c ****   int8_t pec_error = 0;
 851:Drivers/LTC681x/LTC681x.c ****   uint8_t c_ic =0;
 852:Drivers/LTC681x/LTC681x.c ****   data = (uint8_t *) malloc((NUM_RX_BYT*total_ic)*sizeof(uint8_t));
 853:Drivers/LTC681x/LTC681x.c **** 
 854:Drivers/LTC681x/LTC681x.c ****   if (reg == 0)
 855:Drivers/LTC681x/LTC681x.c ****   {
 856:Drivers/LTC681x/LTC681x.c ****     for (uint8_t gpio_reg = 1; gpio_reg<ic[0].ic_reg.num_gpio_reg+1; gpio_reg++) //executes once fo
 857:Drivers/LTC681x/LTC681x.c ****     {
 858:Drivers/LTC681x/LTC681x.c ****       LTC681x_rdaux_reg(gpio_reg, total_ic,data);                 //Reads the raw auxiliary registe
 859:Drivers/LTC681x/LTC681x.c ****       for (int current_ic = 0; current_ic<total_ic; current_ic++)
 860:Drivers/LTC681x/LTC681x.c ****       {
 861:Drivers/LTC681x/LTC681x.c ****         if (ic->isospi_reverse == false)
 862:Drivers/LTC681x/LTC681x.c ****         {
 863:Drivers/LTC681x/LTC681x.c ****           c_ic = current_ic;
 864:Drivers/LTC681x/LTC681x.c ****         }
 865:Drivers/LTC681x/LTC681x.c ****         else
 866:Drivers/LTC681x/LTC681x.c ****         {
 867:Drivers/LTC681x/LTC681x.c ****           c_ic = total_ic - current_ic - 1;
 868:Drivers/LTC681x/LTC681x.c ****         }
 869:Drivers/LTC681x/LTC681x.c ****         pec_error = parse_cells(current_ic,gpio_reg, data,
 870:Drivers/LTC681x/LTC681x.c ****                                 &ic[c_ic].aux.a_codes[0],
 871:Drivers/LTC681x/LTC681x.c ****                                 &ic[c_ic].aux.pec_match[0]);
 872:Drivers/LTC681x/LTC681x.c **** 
 873:Drivers/LTC681x/LTC681x.c ****       }
 874:Drivers/LTC681x/LTC681x.c ****     }
 875:Drivers/LTC681x/LTC681x.c ****   }
 876:Drivers/LTC681x/LTC681x.c ****   else
 877:Drivers/LTC681x/LTC681x.c ****   {
 878:Drivers/LTC681x/LTC681x.c ****     LTC681x_rdaux_reg(reg, total_ic, data);
 879:Drivers/LTC681x/LTC681x.c **** 
 880:Drivers/LTC681x/LTC681x.c ****     for (int current_ic = 0; current_ic<total_ic; current_ic++)
 881:Drivers/LTC681x/LTC681x.c ****     {
 882:Drivers/LTC681x/LTC681x.c ****       if (ic->isospi_reverse == false)
 883:Drivers/LTC681x/LTC681x.c ****       {
 884:Drivers/LTC681x/LTC681x.c ****         c_ic = current_ic;
 885:Drivers/LTC681x/LTC681x.c ****       }
 886:Drivers/LTC681x/LTC681x.c ****       else
 887:Drivers/LTC681x/LTC681x.c ****       {
 888:Drivers/LTC681x/LTC681x.c ****         c_ic = total_ic - current_ic - 1;
 889:Drivers/LTC681x/LTC681x.c ****       }
 890:Drivers/LTC681x/LTC681x.c ****       pec_error = parse_cells(current_ic,reg, data,
 891:Drivers/LTC681x/LTC681x.c ****                               &ic[c_ic].aux.a_codes[0],
 892:Drivers/LTC681x/LTC681x.c ****                               &ic[c_ic].aux.pec_match[0]);
 893:Drivers/LTC681x/LTC681x.c ****     }
 894:Drivers/LTC681x/LTC681x.c **** 
 895:Drivers/LTC681x/LTC681x.c ****   }
 896:Drivers/LTC681x/LTC681x.c ****   LTC681x_check_pec(total_ic,AUX,ic);
 897:Drivers/LTC681x/LTC681x.c ****   free(data);
 898:Drivers/LTC681x/LTC681x.c ****   return (pec_error);
 899:Drivers/LTC681x/LTC681x.c **** }
 900:Drivers/LTC681x/LTC681x.c **** 
 901:Drivers/LTC681x/LTC681x.c **** // Reads and parses the LTC681x stat registers.
 902:Drivers/LTC681x/LTC681x.c **** int8_t LTC681x_rdstat(uint8_t reg, //Determines which Stat  register is read back.
 903:Drivers/LTC681x/LTC681x.c ****                       uint8_t total_ic,//the number of ICs in the system
 904:Drivers/LTC681x/LTC681x.c ****                       cell_asic *ic
 905:Drivers/LTC681x/LTC681x.c ****                      )
ARM GAS  /tmp/ccMCacDa.s 			page 64


 906:Drivers/LTC681x/LTC681x.c **** 
 907:Drivers/LTC681x/LTC681x.c **** {
 908:Drivers/LTC681x/LTC681x.c ****   const uint8_t BYT_IN_REG = 6;
 909:Drivers/LTC681x/LTC681x.c ****   const uint8_t GPIO_IN_REG = 3;
 910:Drivers/LTC681x/LTC681x.c **** 
 911:Drivers/LTC681x/LTC681x.c ****   uint8_t *data;
 912:Drivers/LTC681x/LTC681x.c ****   uint8_t data_counter = 0;
 913:Drivers/LTC681x/LTC681x.c ****   int8_t pec_error = 0;
 914:Drivers/LTC681x/LTC681x.c ****   uint16_t parsed_stat;
 915:Drivers/LTC681x/LTC681x.c ****   uint16_t received_pec;
 916:Drivers/LTC681x/LTC681x.c ****   uint16_t data_pec;
 917:Drivers/LTC681x/LTC681x.c ****   uint8_t c_ic = 0;
 918:Drivers/LTC681x/LTC681x.c ****   data = (uint8_t *) malloc((12*total_ic)*sizeof(uint8_t));
 919:Drivers/LTC681x/LTC681x.c **** 
 920:Drivers/LTC681x/LTC681x.c ****   if (reg == 0)
 921:Drivers/LTC681x/LTC681x.c ****   {
 922:Drivers/LTC681x/LTC681x.c **** 
 923:Drivers/LTC681x/LTC681x.c ****     for (uint8_t stat_reg = 1; stat_reg< 3; stat_reg++)                      //executes once for ea
 924:Drivers/LTC681x/LTC681x.c ****     {
 925:Drivers/LTC681x/LTC681x.c ****       data_counter = 0;
 926:Drivers/LTC681x/LTC681x.c ****       LTC681x_rdstat_reg(stat_reg, total_ic,data);                            //Reads the raw statu
 927:Drivers/LTC681x/LTC681x.c **** 
 928:Drivers/LTC681x/LTC681x.c ****       for (uint8_t current_ic = 0 ; current_ic < total_ic; current_ic++)      // executes for every
 929:Drivers/LTC681x/LTC681x.c ****       {
 930:Drivers/LTC681x/LTC681x.c ****         if (ic->isospi_reverse == false)
 931:Drivers/LTC681x/LTC681x.c ****         {
 932:Drivers/LTC681x/LTC681x.c ****           c_ic = current_ic;
 933:Drivers/LTC681x/LTC681x.c ****         }
 934:Drivers/LTC681x/LTC681x.c ****         else
 935:Drivers/LTC681x/LTC681x.c ****         {
 936:Drivers/LTC681x/LTC681x.c ****           c_ic = total_ic - current_ic - 1;
 937:Drivers/LTC681x/LTC681x.c ****         }
 938:Drivers/LTC681x/LTC681x.c ****         // current_ic is used as the IC counter
 939:Drivers/LTC681x/LTC681x.c ****         if (stat_reg ==1)
 940:Drivers/LTC681x/LTC681x.c ****         {
 941:Drivers/LTC681x/LTC681x.c ****           for (uint8_t current_gpio = 0; current_gpio< GPIO_IN_REG; current_gpio++) // This loop pa
 942:Drivers/LTC681x/LTC681x.c ****           {
 943:Drivers/LTC681x/LTC681x.c ****             // loops once for each of the 3 gpio voltage codes in the register
 944:Drivers/LTC681x/LTC681x.c **** 
 945:Drivers/LTC681x/LTC681x.c ****             parsed_stat = data[data_counter] + (data[data_counter+1]<<8);              //Each gpio 
 946:Drivers/LTC681x/LTC681x.c ****             ic[c_ic].stat.stat_codes[current_gpio] = parsed_stat;
 947:Drivers/LTC681x/LTC681x.c ****             data_counter=data_counter+2;                                               //Because gp
 948:Drivers/LTC681x/LTC681x.c **** 
 949:Drivers/LTC681x/LTC681x.c ****           }
 950:Drivers/LTC681x/LTC681x.c ****         }
 951:Drivers/LTC681x/LTC681x.c ****         else if (stat_reg == 2)
 952:Drivers/LTC681x/LTC681x.c ****         {
 953:Drivers/LTC681x/LTC681x.c ****           parsed_stat = data[data_counter] + (data[data_counter+1]<<8);              //Each gpio co
 954:Drivers/LTC681x/LTC681x.c ****           data_counter = data_counter +2;
 955:Drivers/LTC681x/LTC681x.c ****           ic[c_ic].stat.stat_codes[3] = parsed_stat;
 956:Drivers/LTC681x/LTC681x.c ****           ic[c_ic].stat.flags[0] = data[data_counter++];
 957:Drivers/LTC681x/LTC681x.c ****           ic[c_ic].stat.flags[1] = data[data_counter++];
 958:Drivers/LTC681x/LTC681x.c ****           ic[c_ic].stat.flags[2] = data[data_counter++];
 959:Drivers/LTC681x/LTC681x.c ****           ic[c_ic].stat.mux_fail[0] = (data[data_counter] & 0x02)>>1;
 960:Drivers/LTC681x/LTC681x.c ****           ic[c_ic].stat.thsd[0] = data[data_counter++] & 0x01;
 961:Drivers/LTC681x/LTC681x.c ****         }
 962:Drivers/LTC681x/LTC681x.c **** 
ARM GAS  /tmp/ccMCacDa.s 			page 65


 963:Drivers/LTC681x/LTC681x.c ****         received_pec = (data[data_counter]<<8)+ data[data_counter+1];          //The received PEC f
 964:Drivers/LTC681x/LTC681x.c **** 																			  //after the 6 gpio voltage data bytes
 965:Drivers/LTC681x/LTC681x.c ****         data_pec = pec15_calc(BYT_IN_REG, &data[current_ic*NUM_RX_BYT]);
 966:Drivers/LTC681x/LTC681x.c **** 
 967:Drivers/LTC681x/LTC681x.c ****         if (received_pec != data_pec)
 968:Drivers/LTC681x/LTC681x.c ****         {
 969:Drivers/LTC681x/LTC681x.c ****           pec_error = -1; //The pec_error variable is simply set negative if any PEC errors
 970:Drivers/LTC681x/LTC681x.c ****           ic[c_ic].stat.pec_match[stat_reg-1]=1;  //are detected in the received serial data
 971:Drivers/LTC681x/LTC681x.c ****           
 972:Drivers/LTC681x/LTC681x.c ****         }
 973:Drivers/LTC681x/LTC681x.c ****         else
 974:Drivers/LTC681x/LTC681x.c ****         {
 975:Drivers/LTC681x/LTC681x.c ****           ic[c_ic].stat.pec_match[stat_reg-1]=0;
 976:Drivers/LTC681x/LTC681x.c ****         }
 977:Drivers/LTC681x/LTC681x.c **** 
 978:Drivers/LTC681x/LTC681x.c ****         data_counter=data_counter+2;                        //Because the transmitted PEC code is 2
 979:Drivers/LTC681x/LTC681x.c **** 															//must be incremented by 2 bytes to point to the next ICs gpio voltage data
 980:Drivers/LTC681x/LTC681x.c ****       }
 981:Drivers/LTC681x/LTC681x.c **** 
 982:Drivers/LTC681x/LTC681x.c **** 
 983:Drivers/LTC681x/LTC681x.c ****     }
 984:Drivers/LTC681x/LTC681x.c **** 
 985:Drivers/LTC681x/LTC681x.c ****   }
 986:Drivers/LTC681x/LTC681x.c ****   else
 987:Drivers/LTC681x/LTC681x.c ****   {
 988:Drivers/LTC681x/LTC681x.c **** 
 989:Drivers/LTC681x/LTC681x.c ****     LTC681x_rdstat_reg(reg, total_ic, data);
 990:Drivers/LTC681x/LTC681x.c ****     for (int current_ic = 0 ; current_ic < total_ic; current_ic++)            // executes for every
 991:Drivers/LTC681x/LTC681x.c ****     {																		  // current_ic is used as an IC counter
 992:Drivers/LTC681x/LTC681x.c **** 																				
 993:Drivers/LTC681x/LTC681x.c ****       if (ic->isospi_reverse == false)
 994:Drivers/LTC681x/LTC681x.c ****       {
 995:Drivers/LTC681x/LTC681x.c ****         c_ic = current_ic;
 996:Drivers/LTC681x/LTC681x.c ****       }
 997:Drivers/LTC681x/LTC681x.c ****       else
 998:Drivers/LTC681x/LTC681x.c ****       {
 999:Drivers/LTC681x/LTC681x.c ****         c_ic = total_ic - current_ic - 1;
1000:Drivers/LTC681x/LTC681x.c ****       }
1001:Drivers/LTC681x/LTC681x.c ****       if (reg ==1)
1002:Drivers/LTC681x/LTC681x.c ****       {
1003:Drivers/LTC681x/LTC681x.c ****         for (uint8_t current_gpio = 0; current_gpio< GPIO_IN_REG; current_gpio++) // This loop pars
1004:Drivers/LTC681x/LTC681x.c ****         {																		  // loops once for each of the 3 gpio voltage codes in the register
1005:Drivers/LTC681x/LTC681x.c ****           
1006:Drivers/LTC681x/LTC681x.c ****           parsed_stat = data[data_counter] + (data[data_counter+1]<<8);              //Each gpio co
1007:Drivers/LTC681x/LTC681x.c **** 																					 // create the parsed gpio voltage code
1008:Drivers/LTC681x/LTC681x.c **** 
1009:Drivers/LTC681x/LTC681x.c ****           ic[c_ic].stat.stat_codes[current_gpio] = parsed_stat;
1010:Drivers/LTC681x/LTC681x.c ****           data_counter=data_counter+2;                        //Because gpio voltage codes are two 
1011:Drivers/LTC681x/LTC681x.c **** 															 //must increment by two for each parsed gpio voltage code
1012:Drivers/LTC681x/LTC681x.c **** 
1013:Drivers/LTC681x/LTC681x.c ****         }
1014:Drivers/LTC681x/LTC681x.c ****       }
1015:Drivers/LTC681x/LTC681x.c ****       else if (reg == 2)
1016:Drivers/LTC681x/LTC681x.c ****       {
1017:Drivers/LTC681x/LTC681x.c ****         parsed_stat = data[data_counter++] + (data[data_counter++]<<8);              //Each gpio co
1018:Drivers/LTC681x/LTC681x.c ****         ic[c_ic].stat.stat_codes[3] = parsed_stat;
1019:Drivers/LTC681x/LTC681x.c ****         ic[c_ic].stat.flags[0] = data[data_counter++];
ARM GAS  /tmp/ccMCacDa.s 			page 66


1020:Drivers/LTC681x/LTC681x.c ****         ic[c_ic].stat.flags[1] = data[data_counter++];
1021:Drivers/LTC681x/LTC681x.c ****         ic[c_ic].stat.flags[2] = data[data_counter++];
1022:Drivers/LTC681x/LTC681x.c ****         ic[c_ic].stat.mux_fail[0] = (data[data_counter] & 0x02)>>1;
1023:Drivers/LTC681x/LTC681x.c ****         ic[c_ic].stat.thsd[0] = data[data_counter++] & 0x01;
1024:Drivers/LTC681x/LTC681x.c ****       }
1025:Drivers/LTC681x/LTC681x.c **** 
1026:Drivers/LTC681x/LTC681x.c **** 
1027:Drivers/LTC681x/LTC681x.c ****       received_pec = (data[data_counter]<<8)+ data[data_counter+1];          //The received PEC for
1028:Drivers/LTC681x/LTC681x.c **** 																			//after the 6 gpio voltage data bytes
1029:Drivers/LTC681x/LTC681x.c ****       data_pec = pec15_calc(BYT_IN_REG, &data[current_ic*NUM_RX_BYT]);
1030:Drivers/LTC681x/LTC681x.c ****       if (received_pec != data_pec)
1031:Drivers/LTC681x/LTC681x.c ****       {
1032:Drivers/LTC681x/LTC681x.c ****         pec_error = -1;                             //The pec_error variable is simply set negative
1033:Drivers/LTC681x/LTC681x.c ****         ic[c_ic].stat.pec_match[reg-1]=1;
1034:Drivers/LTC681x/LTC681x.c **** 
1035:Drivers/LTC681x/LTC681x.c ****       }
1036:Drivers/LTC681x/LTC681x.c **** 
1037:Drivers/LTC681x/LTC681x.c ****       data_counter=data_counter+2;
1038:Drivers/LTC681x/LTC681x.c ****     }
1039:Drivers/LTC681x/LTC681x.c ****   }
1040:Drivers/LTC681x/LTC681x.c ****   LTC681x_check_pec(total_ic,STAT,ic);
1041:Drivers/LTC681x/LTC681x.c ****   free(data);
1042:Drivers/LTC681x/LTC681x.c ****   return (pec_error);
1043:Drivers/LTC681x/LTC681x.c **** }
1044:Drivers/LTC681x/LTC681x.c **** 
1045:Drivers/LTC681x/LTC681x.c **** //Write the LTC681x CFGRA
1046:Drivers/LTC681x/LTC681x.c **** void LTC681x_wrcfg(uint8_t total_ic, //The number of ICs being written to
1047:Drivers/LTC681x/LTC681x.c ****                    cell_asic ic[]
1048:Drivers/LTC681x/LTC681x.c ****                   )
1049:Drivers/LTC681x/LTC681x.c **** {
 2635              		.loc 1 1049 0
 2636              		.cfi_startproc
 2637              		@ args = 0, pretend = 0, frame = 264
 2638              		@ frame_needed = 0, uses_anonymous_args = 0
 2639              	.LVL288:
 2640 0000 F0B5     		push	{r4, r5, r6, r7, lr}
 2641              	.LCFI91:
 2642              		.cfi_def_cfa_offset 20
 2643              		.cfi_offset 4, -20
 2644              		.cfi_offset 5, -16
 2645              		.cfi_offset 6, -12
 2646              		.cfi_offset 7, -8
 2647              		.cfi_offset 14, -4
 2648 0002 C3B0     		sub	sp, sp, #268
 2649              	.LCFI92:
 2650              		.cfi_def_cfa_offset 288
1050:Drivers/LTC681x/LTC681x.c ****   uint8_t cmd[2] = {0x00 , 0x01} ;
 2651              		.loc 1 1050 0
 2652 0004 0022     		movs	r2, #0
 2653 0006 8DF80421 		strb	r2, [sp, #260]
 2654 000a 0123     		movs	r3, #1
 2655 000c 8DF80531 		strb	r3, [sp, #261]
 2656              	.LVL289:
 2657              	.LBB24:
1051:Drivers/LTC681x/LTC681x.c ****   uint8_t write_buffer[256];
1052:Drivers/LTC681x/LTC681x.c ****   uint8_t write_count = 0;
1053:Drivers/LTC681x/LTC681x.c ****   uint8_t c_ic = 0;
ARM GAS  /tmp/ccMCacDa.s 			page 67


1054:Drivers/LTC681x/LTC681x.c ****   for (uint8_t current_ic = 0; current_ic<total_ic; current_ic++)
 2658              		.loc 1 1054 0
 2659 0010 1746     		mov	r7, r2
 2660 0012 10E0     		b	.L176
 2661              	.LVL290:
 2662              	.L181:
1055:Drivers/LTC681x/LTC681x.c ****   {
1056:Drivers/LTC681x/LTC681x.c ****     if (ic->isospi_reverse == true)
1057:Drivers/LTC681x/LTC681x.c ****     {
1058:Drivers/LTC681x/LTC681x.c ****       c_ic = current_ic;
 2663              		.loc 1 1058 0
 2664 0014 3E46     		mov	r6, r7
 2665 0016 18E0     		b	.L177
 2666              	.LVL291:
 2667              	.L179:
 2668              	.LBB25:
1059:Drivers/LTC681x/LTC681x.c ****     }
1060:Drivers/LTC681x/LTC681x.c ****     else
1061:Drivers/LTC681x/LTC681x.c ****     {
1062:Drivers/LTC681x/LTC681x.c ****       c_ic = total_ic - current_ic - 1;
1063:Drivers/LTC681x/LTC681x.c ****     }
1064:Drivers/LTC681x/LTC681x.c **** 
1065:Drivers/LTC681x/LTC681x.c ****     for (uint8_t data = 0; data<6; data++)
1066:Drivers/LTC681x/LTC681x.c ****     {
1067:Drivers/LTC681x/LTC681x.c ****       write_buffer[write_count] = ic[c_ic].config.tx_data[data];
 2669              		.loc 1 1067 0 discriminator 3
 2670 0018 C6EBC605 		rsb	r5, r6, r6, lsl #3
 2671 001c 6C01     		lsls	r4, r5, #5
 2672 001e 0C44     		add	r4, r4, r1
 2673 0020 E55C     		ldrb	r5, [r4, r3]	@ zero_extendqisi2
 2674 0022 01AC     		add	r4, sp, #4
 2675 0024 A554     		strb	r5, [r4, r2]
1068:Drivers/LTC681x/LTC681x.c ****       write_count++;
 2676              		.loc 1 1068 0 discriminator 3
 2677 0026 0132     		adds	r2, r2, #1
 2678              	.LVL292:
 2679 0028 D2B2     		uxtb	r2, r2
 2680              	.LVL293:
1065:Drivers/LTC681x/LTC681x.c ****     {
 2681              		.loc 1 1065 0 discriminator 3
 2682 002a 0133     		adds	r3, r3, #1
 2683              	.LVL294:
 2684 002c DBB2     		uxtb	r3, r3
 2685              	.LVL295:
 2686              	.L178:
1065:Drivers/LTC681x/LTC681x.c ****     {
 2687              		.loc 1 1065 0 is_stmt 0 discriminator 1
 2688 002e 052B     		cmp	r3, #5
 2689 0030 F2D9     		bls	.L179
 2690              	.LBE25:
1054:Drivers/LTC681x/LTC681x.c ****   {
 2691              		.loc 1 1054 0 is_stmt 1 discriminator 2
 2692 0032 0137     		adds	r7, r7, #1
 2693              	.LVL296:
 2694 0034 FFB2     		uxtb	r7, r7
 2695              	.LVL297:
 2696              	.L176:
ARM GAS  /tmp/ccMCacDa.s 			page 68


1054:Drivers/LTC681x/LTC681x.c ****   {
 2697              		.loc 1 1054 0 is_stmt 0 discriminator 1
 2698 0036 8742     		cmp	r7, r0
 2699 0038 09D2     		bcs	.L183
1056:Drivers/LTC681x/LTC681x.c ****     {
 2700              		.loc 1 1056 0 is_stmt 1
 2701 003a 91F8B930 		ldrb	r3, [r1, #185]	@ zero_extendqisi2
 2702 003e 002B     		cmp	r3, #0
 2703 0040 E8D1     		bne	.L181
1062:Drivers/LTC681x/LTC681x.c ****     }
 2704              		.loc 1 1062 0
 2705 0042 C61B     		subs	r6, r0, r7
 2706 0044 F6B2     		uxtb	r6, r6
 2707 0046 013E     		subs	r6, r6, #1
 2708 0048 F6B2     		uxtb	r6, r6
 2709              	.LVL298:
 2710              	.L177:
 2711              	.LBB26:
1065:Drivers/LTC681x/LTC681x.c ****     {
 2712              		.loc 1 1065 0
 2713 004a 0023     		movs	r3, #0
 2714 004c EFE7     		b	.L178
 2715              	.LVL299:
 2716              	.L183:
 2717              	.LBE26:
 2718              	.LBE24:
1069:Drivers/LTC681x/LTC681x.c ****     }
1070:Drivers/LTC681x/LTC681x.c ****   }
1071:Drivers/LTC681x/LTC681x.c ****   write_68(total_ic, cmd, write_buffer);
 2719              		.loc 1 1071 0
 2720 004e 01AA     		add	r2, sp, #4
 2721              	.LVL300:
 2722 0050 41A9     		add	r1, sp, #260
 2723              	.LVL301:
 2724 0052 FFF7FEFF 		bl	write_68
 2725              	.LVL302:
1072:Drivers/LTC681x/LTC681x.c **** }
 2726              		.loc 1 1072 0
 2727 0056 43B0     		add	sp, sp, #268
 2728              	.LCFI93:
 2729              		.cfi_def_cfa_offset 20
 2730              		@ sp needed
 2731 0058 F0BD     		pop	{r4, r5, r6, r7, pc}
 2732              		.cfi_endproc
 2733              	.LFE41:
 2735              		.section	.text.LTC681x_wrcfgb,"ax",%progbits
 2736              		.align	1
 2737              		.global	LTC681x_wrcfgb
 2738              		.syntax unified
 2739              		.thumb
 2740              		.thumb_func
 2741              		.fpu softvfp
 2743              	LTC681x_wrcfgb:
 2744              	.LFB42:
1073:Drivers/LTC681x/LTC681x.c **** 
1074:Drivers/LTC681x/LTC681x.c **** //Write the LTC681x CFGRB
1075:Drivers/LTC681x/LTC681x.c **** void LTC681x_wrcfgb(uint8_t total_ic, //The number of ICs being written to
ARM GAS  /tmp/ccMCacDa.s 			page 69


1076:Drivers/LTC681x/LTC681x.c ****                     cell_asic ic[]
1077:Drivers/LTC681x/LTC681x.c ****                    )
1078:Drivers/LTC681x/LTC681x.c **** {
 2745              		.loc 1 1078 0
 2746              		.cfi_startproc
 2747              		@ args = 0, pretend = 0, frame = 264
 2748              		@ frame_needed = 0, uses_anonymous_args = 0
 2749              	.LVL303:
 2750 0000 F0B5     		push	{r4, r5, r6, r7, lr}
 2751              	.LCFI94:
 2752              		.cfi_def_cfa_offset 20
 2753              		.cfi_offset 4, -20
 2754              		.cfi_offset 5, -16
 2755              		.cfi_offset 6, -12
 2756              		.cfi_offset 7, -8
 2757              		.cfi_offset 14, -4
 2758 0002 C3B0     		sub	sp, sp, #268
 2759              	.LCFI95:
 2760              		.cfi_def_cfa_offset 288
1079:Drivers/LTC681x/LTC681x.c ****   uint8_t cmd[2] = {0x00 , 0x24} ;
 2761              		.loc 1 1079 0
 2762 0004 0024     		movs	r4, #0
 2763 0006 8DF80441 		strb	r4, [sp, #260]
 2764 000a 2423     		movs	r3, #36
 2765 000c 8DF80531 		strb	r3, [sp, #261]
 2766              	.LVL304:
 2767              	.LBB27:
1080:Drivers/LTC681x/LTC681x.c ****   uint8_t write_buffer[256];
1081:Drivers/LTC681x/LTC681x.c ****   uint8_t write_count = 0;
1082:Drivers/LTC681x/LTC681x.c ****   uint8_t c_ic = 0;
1083:Drivers/LTC681x/LTC681x.c ****   for (uint8_t current_ic = 0; current_ic<total_ic; current_ic++)
 2768              		.loc 1 1083 0
 2769 0010 2746     		mov	r7, r4
 2770 0012 11E0     		b	.L185
 2771              	.LVL305:
 2772              	.L190:
1084:Drivers/LTC681x/LTC681x.c ****   {
1085:Drivers/LTC681x/LTC681x.c ****     if (ic->isospi_reverse == true)
1086:Drivers/LTC681x/LTC681x.c ****     {
1087:Drivers/LTC681x/LTC681x.c ****       c_ic = current_ic;
 2773              		.loc 1 1087 0
 2774 0014 3E46     		mov	r6, r7
 2775 0016 19E0     		b	.L186
 2776              	.LVL306:
 2777              	.L188:
 2778              	.LBB28:
1088:Drivers/LTC681x/LTC681x.c ****     }
1089:Drivers/LTC681x/LTC681x.c ****     else
1090:Drivers/LTC681x/LTC681x.c ****     {
1091:Drivers/LTC681x/LTC681x.c ****       c_ic = total_ic - current_ic - 1;
1092:Drivers/LTC681x/LTC681x.c ****     }
1093:Drivers/LTC681x/LTC681x.c **** 
1094:Drivers/LTC681x/LTC681x.c ****     for (uint8_t data = 0; data<6; data++)
1095:Drivers/LTC681x/LTC681x.c ****     {
1096:Drivers/LTC681x/LTC681x.c ****       write_buffer[write_count] = ic[c_ic].configb.tx_data[data];
 2779              		.loc 1 1096 0 discriminator 3
 2780 0018 C6EBC605 		rsb	r5, r6, r6, lsl #3
ARM GAS  /tmp/ccMCacDa.s 			page 70


 2781 001c 6B01     		lsls	r3, r5, #5
 2782 001e 0B44     		add	r3, r3, r1
 2783 0020 1344     		add	r3, r3, r2
 2784 0022 DD7B     		ldrb	r5, [r3, #15]	@ zero_extendqisi2
 2785 0024 01AB     		add	r3, sp, #4
 2786 0026 1D55     		strb	r5, [r3, r4]
1097:Drivers/LTC681x/LTC681x.c ****       write_count++;
 2787              		.loc 1 1097 0 discriminator 3
 2788 0028 0134     		adds	r4, r4, #1
 2789              	.LVL307:
 2790 002a E4B2     		uxtb	r4, r4
 2791              	.LVL308:
1094:Drivers/LTC681x/LTC681x.c ****     {
 2792              		.loc 1 1094 0 discriminator 3
 2793 002c 0132     		adds	r2, r2, #1
 2794              	.LVL309:
 2795 002e D2B2     		uxtb	r2, r2
 2796              	.LVL310:
 2797              	.L187:
1094:Drivers/LTC681x/LTC681x.c ****     {
 2798              		.loc 1 1094 0 is_stmt 0 discriminator 1
 2799 0030 052A     		cmp	r2, #5
 2800 0032 F1D9     		bls	.L188
 2801              	.LBE28:
1083:Drivers/LTC681x/LTC681x.c ****   {
 2802              		.loc 1 1083 0 is_stmt 1 discriminator 2
 2803 0034 0137     		adds	r7, r7, #1
 2804              	.LVL311:
 2805 0036 FFB2     		uxtb	r7, r7
 2806              	.LVL312:
 2807              	.L185:
1083:Drivers/LTC681x/LTC681x.c ****   {
 2808              		.loc 1 1083 0 is_stmt 0 discriminator 1
 2809 0038 8742     		cmp	r7, r0
 2810 003a 09D2     		bcs	.L192
1085:Drivers/LTC681x/LTC681x.c ****     {
 2811              		.loc 1 1085 0 is_stmt 1
 2812 003c 91F8B930 		ldrb	r3, [r1, #185]	@ zero_extendqisi2
 2813 0040 002B     		cmp	r3, #0
 2814 0042 E7D1     		bne	.L190
1091:Drivers/LTC681x/LTC681x.c ****     }
 2815              		.loc 1 1091 0
 2816 0044 C61B     		subs	r6, r0, r7
 2817 0046 F6B2     		uxtb	r6, r6
 2818 0048 013E     		subs	r6, r6, #1
 2819 004a F6B2     		uxtb	r6, r6
 2820              	.LVL313:
 2821              	.L186:
 2822              	.LBB29:
1094:Drivers/LTC681x/LTC681x.c ****     {
 2823              		.loc 1 1094 0
 2824 004c 0022     		movs	r2, #0
 2825 004e EFE7     		b	.L187
 2826              	.LVL314:
 2827              	.L192:
 2828              	.LBE29:
 2829              	.LBE27:
ARM GAS  /tmp/ccMCacDa.s 			page 71


1098:Drivers/LTC681x/LTC681x.c ****     }
1099:Drivers/LTC681x/LTC681x.c ****   }
1100:Drivers/LTC681x/LTC681x.c ****   write_68(total_ic, cmd, write_buffer);
 2830              		.loc 1 1100 0
 2831 0050 01AA     		add	r2, sp, #4
 2832 0052 41A9     		add	r1, sp, #260
 2833              	.LVL315:
 2834 0054 FFF7FEFF 		bl	write_68
 2835              	.LVL316:
1101:Drivers/LTC681x/LTC681x.c **** }
 2836              		.loc 1 1101 0
 2837 0058 43B0     		add	sp, sp, #268
 2838              	.LCFI96:
 2839              		.cfi_def_cfa_offset 20
 2840              		@ sp needed
 2841 005a F0BD     		pop	{r4, r5, r6, r7, pc}
 2842              		.cfi_endproc
 2843              	.LFE42:
 2845              		.section	.text.LTC681x_wrpwm,"ax",%progbits
 2846              		.align	1
 2847              		.global	LTC681x_wrpwm
 2848              		.syntax unified
 2849              		.thumb
 2850              		.thumb_func
 2851              		.fpu softvfp
 2853              	LTC681x_wrpwm:
 2854              	.LFB45:
1102:Drivers/LTC681x/LTC681x.c **** 
1103:Drivers/LTC681x/LTC681x.c **** //Read CFGA
1104:Drivers/LTC681x/LTC681x.c **** int8_t LTC681x_rdcfg(uint8_t total_ic, //Number of ICs in the system
1105:Drivers/LTC681x/LTC681x.c ****                      cell_asic ic[]
1106:Drivers/LTC681x/LTC681x.c ****                     )
1107:Drivers/LTC681x/LTC681x.c **** {
1108:Drivers/LTC681x/LTC681x.c ****   uint8_t cmd[2]= {0x00 , 0x02};
1109:Drivers/LTC681x/LTC681x.c ****   uint8_t read_buffer[256];
1110:Drivers/LTC681x/LTC681x.c ****   int8_t pec_error = 0;
1111:Drivers/LTC681x/LTC681x.c ****   uint16_t data_pec;
1112:Drivers/LTC681x/LTC681x.c ****   uint16_t calc_pec;
1113:Drivers/LTC681x/LTC681x.c ****   uint8_t c_ic = 0;
1114:Drivers/LTC681x/LTC681x.c ****   pec_error = read_68(total_ic, cmd, read_buffer);
1115:Drivers/LTC681x/LTC681x.c ****   for (uint8_t current_ic = 0; current_ic<total_ic; current_ic++)
1116:Drivers/LTC681x/LTC681x.c ****   {
1117:Drivers/LTC681x/LTC681x.c ****     if (ic->isospi_reverse == false)
1118:Drivers/LTC681x/LTC681x.c ****     {
1119:Drivers/LTC681x/LTC681x.c ****       c_ic = current_ic;
1120:Drivers/LTC681x/LTC681x.c ****     }
1121:Drivers/LTC681x/LTC681x.c ****     else
1122:Drivers/LTC681x/LTC681x.c ****     {
1123:Drivers/LTC681x/LTC681x.c ****       c_ic = total_ic - current_ic - 1;
1124:Drivers/LTC681x/LTC681x.c ****     }
1125:Drivers/LTC681x/LTC681x.c **** 
1126:Drivers/LTC681x/LTC681x.c ****     for (int byte=0; byte<8; byte++)
1127:Drivers/LTC681x/LTC681x.c ****     {
1128:Drivers/LTC681x/LTC681x.c ****       ic[c_ic].config.rx_data[byte] = read_buffer[byte+(8*current_ic)];
1129:Drivers/LTC681x/LTC681x.c ****     }
1130:Drivers/LTC681x/LTC681x.c ****     calc_pec = pec15_calc(6,&read_buffer[8*current_ic]);
1131:Drivers/LTC681x/LTC681x.c ****     data_pec = read_buffer[7+(8*current_ic)] | (read_buffer[6+(8*current_ic)]<<8);
ARM GAS  /tmp/ccMCacDa.s 			page 72


1132:Drivers/LTC681x/LTC681x.c ****     if (calc_pec != data_pec )
1133:Drivers/LTC681x/LTC681x.c ****     {
1134:Drivers/LTC681x/LTC681x.c ****       ic[c_ic].config.rx_pec_match = 1;
1135:Drivers/LTC681x/LTC681x.c ****     }
1136:Drivers/LTC681x/LTC681x.c ****     else ic[c_ic].config.rx_pec_match = 0;
1137:Drivers/LTC681x/LTC681x.c ****   }
1138:Drivers/LTC681x/LTC681x.c ****   LTC681x_check_pec(total_ic,CFGR,ic);
1139:Drivers/LTC681x/LTC681x.c ****   return(pec_error);
1140:Drivers/LTC681x/LTC681x.c **** }
1141:Drivers/LTC681x/LTC681x.c **** 
1142:Drivers/LTC681x/LTC681x.c **** //Reads CFGB
1143:Drivers/LTC681x/LTC681x.c **** int8_t LTC681x_rdcfgb(uint8_t total_ic, //Number of ICs in the system
1144:Drivers/LTC681x/LTC681x.c ****                       cell_asic ic[]
1145:Drivers/LTC681x/LTC681x.c ****                      )
1146:Drivers/LTC681x/LTC681x.c **** {
1147:Drivers/LTC681x/LTC681x.c ****   uint8_t cmd[2]= {0x00 , 0x26};
1148:Drivers/LTC681x/LTC681x.c ****   uint8_t read_buffer[256];
1149:Drivers/LTC681x/LTC681x.c ****   int8_t pec_error = 0;
1150:Drivers/LTC681x/LTC681x.c ****   uint16_t data_pec;
1151:Drivers/LTC681x/LTC681x.c ****   uint16_t calc_pec;
1152:Drivers/LTC681x/LTC681x.c ****   uint8_t c_ic = 0;
1153:Drivers/LTC681x/LTC681x.c ****   pec_error = read_68(total_ic, cmd, read_buffer);
1154:Drivers/LTC681x/LTC681x.c ****   for (uint8_t current_ic = 0; current_ic<total_ic; current_ic++)
1155:Drivers/LTC681x/LTC681x.c ****   {
1156:Drivers/LTC681x/LTC681x.c ****     if (ic->isospi_reverse == false)
1157:Drivers/LTC681x/LTC681x.c ****     {
1158:Drivers/LTC681x/LTC681x.c ****       c_ic = current_ic;
1159:Drivers/LTC681x/LTC681x.c ****     }
1160:Drivers/LTC681x/LTC681x.c ****     else
1161:Drivers/LTC681x/LTC681x.c ****     {
1162:Drivers/LTC681x/LTC681x.c ****       c_ic = total_ic - current_ic - 1;
1163:Drivers/LTC681x/LTC681x.c ****     }
1164:Drivers/LTC681x/LTC681x.c **** 
1165:Drivers/LTC681x/LTC681x.c ****     for (int byte=0; byte<8; byte++)
1166:Drivers/LTC681x/LTC681x.c ****     {
1167:Drivers/LTC681x/LTC681x.c ****       ic[c_ic].configb.rx_data[byte] = read_buffer[byte+(8*current_ic)];
1168:Drivers/LTC681x/LTC681x.c ****     }
1169:Drivers/LTC681x/LTC681x.c ****     calc_pec = pec15_calc(6,&read_buffer[8*current_ic]);
1170:Drivers/LTC681x/LTC681x.c ****     data_pec = read_buffer[7+(8*current_ic)] | (read_buffer[6+(8*current_ic)]<<8);
1171:Drivers/LTC681x/LTC681x.c ****     if (calc_pec != data_pec )
1172:Drivers/LTC681x/LTC681x.c ****     {
1173:Drivers/LTC681x/LTC681x.c ****       ic[c_ic].configb.rx_pec_match = 1;
1174:Drivers/LTC681x/LTC681x.c ****     }
1175:Drivers/LTC681x/LTC681x.c ****     else ic[c_ic].configb.rx_pec_match = 0;
1176:Drivers/LTC681x/LTC681x.c ****   }
1177:Drivers/LTC681x/LTC681x.c ****   LTC681x_check_pec(total_ic,CFGRB,ic);
1178:Drivers/LTC681x/LTC681x.c ****   return(pec_error);
1179:Drivers/LTC681x/LTC681x.c **** }
1180:Drivers/LTC681x/LTC681x.c **** 
1181:Drivers/LTC681x/LTC681x.c **** // Writes the pwm register
1182:Drivers/LTC681x/LTC681x.c **** void LTC681x_wrpwm(uint8_t total_ic,
1183:Drivers/LTC681x/LTC681x.c ****                    uint8_t pwmReg,
1184:Drivers/LTC681x/LTC681x.c ****                    cell_asic ic[]
1185:Drivers/LTC681x/LTC681x.c ****                   )
1186:Drivers/LTC681x/LTC681x.c **** {
 2855              		.loc 1 1186 0
 2856              		.cfi_startproc
ARM GAS  /tmp/ccMCacDa.s 			page 73


 2857              		@ args = 0, pretend = 0, frame = 264
 2858              		@ frame_needed = 0, uses_anonymous_args = 0
 2859              	.LVL317:
 2860 0000 F0B5     		push	{r4, r5, r6, r7, lr}
 2861              	.LCFI97:
 2862              		.cfi_def_cfa_offset 20
 2863              		.cfi_offset 4, -20
 2864              		.cfi_offset 5, -16
 2865              		.cfi_offset 6, -12
 2866              		.cfi_offset 7, -8
 2867              		.cfi_offset 14, -4
 2868 0002 C3B0     		sub	sp, sp, #268
 2869              	.LCFI98:
 2870              		.cfi_def_cfa_offset 288
 2871              	.LVL318:
1187:Drivers/LTC681x/LTC681x.c ****   uint8_t cmd[2];
1188:Drivers/LTC681x/LTC681x.c ****   uint8_t write_buffer[256];
1189:Drivers/LTC681x/LTC681x.c ****   uint8_t write_count = 0;
1190:Drivers/LTC681x/LTC681x.c ****   uint8_t c_ic = 0;
1191:Drivers/LTC681x/LTC681x.c ****   if (pwmReg == 0)
 2872              		.loc 1 1191 0
 2873 0004 41B9     		cbnz	r1, .L194
1192:Drivers/LTC681x/LTC681x.c ****   {
1193:Drivers/LTC681x/LTC681x.c ****     cmd[0] = 0x00;
 2874              		.loc 1 1193 0
 2875 0006 0023     		movs	r3, #0
 2876 0008 8DF80431 		strb	r3, [sp, #260]
1194:Drivers/LTC681x/LTC681x.c ****     cmd[1] = 0x20;
 2877              		.loc 1 1194 0
 2878 000c 2023     		movs	r3, #32
 2879 000e 8DF80531 		strb	r3, [sp, #261]
 2880              	.L196:
 2881              	.LBB30:
 2882              	.LBB31:
1195:Drivers/LTC681x/LTC681x.c ****   }
1196:Drivers/LTC681x/LTC681x.c ****   else
1197:Drivers/LTC681x/LTC681x.c ****   {
1198:Drivers/LTC681x/LTC681x.c ****     cmd[0] = 0x00;
1199:Drivers/LTC681x/LTC681x.c ****     cmd[1] = 0x1C;
1200:Drivers/LTC681x/LTC681x.c ****   }
1201:Drivers/LTC681x/LTC681x.c **** 
1202:Drivers/LTC681x/LTC681x.c ****   for (uint8_t current_ic = 0; current_ic<total_ic; current_ic++)
1203:Drivers/LTC681x/LTC681x.c ****   {
1204:Drivers/LTC681x/LTC681x.c ****     if (ic->isospi_reverse == true)
1205:Drivers/LTC681x/LTC681x.c ****     {
1206:Drivers/LTC681x/LTC681x.c ****       c_ic = current_ic;
1207:Drivers/LTC681x/LTC681x.c ****     }
1208:Drivers/LTC681x/LTC681x.c ****     else
1209:Drivers/LTC681x/LTC681x.c ****     {
1210:Drivers/LTC681x/LTC681x.c ****       c_ic = total_ic - current_ic - 1;
1211:Drivers/LTC681x/LTC681x.c ****     }
1212:Drivers/LTC681x/LTC681x.c ****     for (uint8_t data = 0; data<6; data++)
 2883              		.loc 1 1212 0 discriminator 1
 2884 0012 0027     		movs	r7, #0
 2885 0014 3C46     		mov	r4, r7
 2886 0016 19E0     		b	.L195
 2887              	.L194:
ARM GAS  /tmp/ccMCacDa.s 			page 74


 2888              	.LBE31:
 2889              	.LBE30:
1198:Drivers/LTC681x/LTC681x.c ****     cmd[1] = 0x1C;
 2890              		.loc 1 1198 0
 2891 0018 0023     		movs	r3, #0
 2892 001a 8DF80431 		strb	r3, [sp, #260]
1199:Drivers/LTC681x/LTC681x.c ****   }
 2893              		.loc 1 1199 0
 2894 001e 1C23     		movs	r3, #28
 2895 0020 8DF80531 		strb	r3, [sp, #261]
 2896 0024 F5E7     		b	.L196
 2897              	.LVL319:
 2898              	.L201:
 2899              	.LBB34:
1206:Drivers/LTC681x/LTC681x.c ****     }
 2900              		.loc 1 1206 0
 2901 0026 3E46     		mov	r6, r7
 2902 0028 1AE0     		b	.L197
 2903              	.LVL320:
 2904              	.L199:
 2905              	.LBB32:
1213:Drivers/LTC681x/LTC681x.c ****     {
1214:Drivers/LTC681x/LTC681x.c ****       write_buffer[write_count] = ic[c_ic].pwm.tx_data[data];
 2906              		.loc 1 1214 0 discriminator 3
 2907 002a C6EBC605 		rsb	r5, r6, r6, lsl #3
 2908 002e 6B01     		lsls	r3, r5, #5
 2909 0030 1344     		add	r3, r3, r2
 2910 0032 0B44     		add	r3, r3, r1
 2911 0034 93F87D50 		ldrb	r5, [r3, #125]	@ zero_extendqisi2
 2912 0038 01AB     		add	r3, sp, #4
 2913 003a 1D55     		strb	r5, [r3, r4]
1215:Drivers/LTC681x/LTC681x.c ****       write_count++;
 2914              		.loc 1 1215 0 discriminator 3
 2915 003c 0134     		adds	r4, r4, #1
 2916              	.LVL321:
 2917 003e E4B2     		uxtb	r4, r4
 2918              	.LVL322:
1212:Drivers/LTC681x/LTC681x.c ****     {
 2919              		.loc 1 1212 0 discriminator 3
 2920 0040 0131     		adds	r1, r1, #1
 2921              	.LVL323:
 2922 0042 C9B2     		uxtb	r1, r1
 2923              	.LVL324:
 2924              	.L198:
1212:Drivers/LTC681x/LTC681x.c ****     {
 2925              		.loc 1 1212 0 is_stmt 0 discriminator 1
 2926 0044 0529     		cmp	r1, #5
 2927 0046 F0D9     		bls	.L199
 2928              	.LBE32:
1202:Drivers/LTC681x/LTC681x.c ****   {
 2929              		.loc 1 1202 0 is_stmt 1 discriminator 2
 2930 0048 0137     		adds	r7, r7, #1
 2931              	.LVL325:
 2932 004a FFB2     		uxtb	r7, r7
 2933              	.LVL326:
 2934              	.L195:
1202:Drivers/LTC681x/LTC681x.c ****   {
ARM GAS  /tmp/ccMCacDa.s 			page 75


 2935              		.loc 1 1202 0 is_stmt 0 discriminator 1
 2936 004c 8742     		cmp	r7, r0
 2937 004e 09D2     		bcs	.L203
1204:Drivers/LTC681x/LTC681x.c ****     {
 2938              		.loc 1 1204 0 is_stmt 1
 2939 0050 92F8B930 		ldrb	r3, [r2, #185]	@ zero_extendqisi2
 2940 0054 002B     		cmp	r3, #0
 2941 0056 E6D1     		bne	.L201
1210:Drivers/LTC681x/LTC681x.c ****     }
 2942              		.loc 1 1210 0
 2943 0058 C61B     		subs	r6, r0, r7
 2944 005a F6B2     		uxtb	r6, r6
 2945 005c 013E     		subs	r6, r6, #1
 2946 005e F6B2     		uxtb	r6, r6
 2947              	.LVL327:
 2948              	.L197:
 2949              	.LBB33:
1212:Drivers/LTC681x/LTC681x.c ****     {
 2950              		.loc 1 1212 0
 2951 0060 0021     		movs	r1, #0
 2952 0062 EFE7     		b	.L198
 2953              	.LVL328:
 2954              	.L203:
 2955              	.LBE33:
 2956              	.LBE34:
1216:Drivers/LTC681x/LTC681x.c ****     }
1217:Drivers/LTC681x/LTC681x.c ****   }
1218:Drivers/LTC681x/LTC681x.c ****   write_68(total_ic, cmd, write_buffer);
 2957              		.loc 1 1218 0
 2958 0064 01AA     		add	r2, sp, #4
 2959              	.LVL329:
 2960 0066 41A9     		add	r1, sp, #260
 2961 0068 FFF7FEFF 		bl	write_68
 2962              	.LVL330:
1219:Drivers/LTC681x/LTC681x.c **** }
 2963              		.loc 1 1219 0
 2964 006c 43B0     		add	sp, sp, #268
 2965              	.LCFI99:
 2966              		.cfi_def_cfa_offset 20
 2967              		@ sp needed
 2968 006e F0BD     		pop	{r4, r5, r6, r7, pc}
 2969              		.cfi_endproc
 2970              	.LFE45:
 2972              		.section	.text.LTC681x_rdpwm,"ax",%progbits
 2973              		.align	1
 2974              		.global	LTC681x_rdpwm
 2975              		.syntax unified
 2976              		.thumb
 2977              		.thumb_func
 2978              		.fpu softvfp
 2980              	LTC681x_rdpwm:
 2981              	.LFB46:
1220:Drivers/LTC681x/LTC681x.c **** 
1221:Drivers/LTC681x/LTC681x.c **** 
1222:Drivers/LTC681x/LTC681x.c **** //Reads pwm registers of a LTC6811 daisy chain
1223:Drivers/LTC681x/LTC681x.c **** int8_t LTC681x_rdpwm(uint8_t total_ic, //Number of ICs in the system
1224:Drivers/LTC681x/LTC681x.c ****                      uint8_t pwmReg,
ARM GAS  /tmp/ccMCacDa.s 			page 76


1225:Drivers/LTC681x/LTC681x.c ****                      cell_asic ic[]
1226:Drivers/LTC681x/LTC681x.c ****                     )
1227:Drivers/LTC681x/LTC681x.c **** {
 2982              		.loc 1 1227 0
 2983              		.cfi_startproc
 2984              		@ args = 0, pretend = 0, frame = 264
 2985              		@ frame_needed = 0, uses_anonymous_args = 0
 2986              	.LVL331:
 2987 0000 2DE9F047 		push	{r4, r5, r6, r7, r8, r9, r10, lr}
 2988              	.LCFI100:
 2989              		.cfi_def_cfa_offset 32
 2990              		.cfi_offset 4, -32
 2991              		.cfi_offset 5, -28
 2992              		.cfi_offset 6, -24
 2993              		.cfi_offset 7, -20
 2994              		.cfi_offset 8, -16
 2995              		.cfi_offset 9, -12
 2996              		.cfi_offset 10, -8
 2997              		.cfi_offset 14, -4
 2998 0004 C2B0     		sub	sp, sp, #264
 2999              	.LCFI101:
 3000              		.cfi_def_cfa_offset 296
 3001 0006 0746     		mov	r7, r0
 3002 0008 1646     		mov	r6, r2
 3003              	.LVL332:
1228:Drivers/LTC681x/LTC681x.c ****   const uint8_t BYTES_IN_REG = 8;
1229:Drivers/LTC681x/LTC681x.c **** 
1230:Drivers/LTC681x/LTC681x.c ****   uint8_t cmd[4];
1231:Drivers/LTC681x/LTC681x.c ****   uint8_t read_buffer[256];
1232:Drivers/LTC681x/LTC681x.c ****   int8_t pec_error = 0;
1233:Drivers/LTC681x/LTC681x.c ****   uint16_t data_pec;
1234:Drivers/LTC681x/LTC681x.c ****   uint16_t calc_pec;
1235:Drivers/LTC681x/LTC681x.c ****   uint8_t c_ic = 0;
1236:Drivers/LTC681x/LTC681x.c **** 
1237:Drivers/LTC681x/LTC681x.c ****   if (pwmReg == 0)
 3004              		.loc 1 1237 0
 3005 000a 69B9     		cbnz	r1, .L205
1238:Drivers/LTC681x/LTC681x.c ****   {
1239:Drivers/LTC681x/LTC681x.c ****     cmd[0] = 0x00;
 3006              		.loc 1 1239 0
 3007 000c 0023     		movs	r3, #0
 3008 000e 8DF80431 		strb	r3, [sp, #260]
1240:Drivers/LTC681x/LTC681x.c ****     cmd[1] = 0x22;
 3009              		.loc 1 1240 0
 3010 0012 2223     		movs	r3, #34
 3011 0014 8DF80531 		strb	r3, [sp, #261]
 3012              	.L206:
1241:Drivers/LTC681x/LTC681x.c ****   }
1242:Drivers/LTC681x/LTC681x.c ****   else
1243:Drivers/LTC681x/LTC681x.c ****   {
1244:Drivers/LTC681x/LTC681x.c ****     cmd[0] = 0x00;
1245:Drivers/LTC681x/LTC681x.c ****     cmd[1] = 0x1E;
1246:Drivers/LTC681x/LTC681x.c ****   }
1247:Drivers/LTC681x/LTC681x.c **** 
1248:Drivers/LTC681x/LTC681x.c **** 
1249:Drivers/LTC681x/LTC681x.c ****   pec_error = read_68(total_ic, cmd, read_buffer);
 3013              		.loc 1 1249 0
ARM GAS  /tmp/ccMCacDa.s 			page 77


 3014 0018 01AA     		add	r2, sp, #4
 3015              	.LVL333:
 3016 001a 41A9     		add	r1, sp, #260
 3017              	.LVL334:
 3018 001c 3846     		mov	r0, r7
 3019              	.LVL335:
 3020 001e FFF7FEFF 		bl	read_68
 3021              	.LVL336:
 3022 0022 8046     		mov	r8, r0
 3023              	.LVL337:
 3024              	.LBB35:
1250:Drivers/LTC681x/LTC681x.c ****   for (uint8_t current_ic =0; current_ic<total_ic; current_ic++)
 3025              		.loc 1 1250 0
 3026 0024 0025     		movs	r5, #0
 3027 0026 34E0     		b	.L207
 3028              	.LVL338:
 3029              	.L205:
 3030              	.LBE35:
1244:Drivers/LTC681x/LTC681x.c ****     cmd[1] = 0x1E;
 3031              		.loc 1 1244 0
 3032 0028 0023     		movs	r3, #0
 3033 002a 8DF80431 		strb	r3, [sp, #260]
1245:Drivers/LTC681x/LTC681x.c ****   }
 3034              		.loc 1 1245 0
 3035 002e 1E23     		movs	r3, #30
 3036 0030 8DF80531 		strb	r3, [sp, #261]
 3037 0034 F0E7     		b	.L206
 3038              	.LVL339:
 3039              	.L214:
 3040              	.LBB38:
1251:Drivers/LTC681x/LTC681x.c ****   {
1252:Drivers/LTC681x/LTC681x.c ****     if (ic->isospi_reverse == false)
1253:Drivers/LTC681x/LTC681x.c ****     {
1254:Drivers/LTC681x/LTC681x.c ****       c_ic = current_ic;
 3041              		.loc 1 1254 0
 3042 0036 2C46     		mov	r4, r5
 3043 0038 35E0     		b	.L208
 3044              	.LVL340:
 3045              	.L210:
 3046              	.LBB36:
1255:Drivers/LTC681x/LTC681x.c ****     }
1256:Drivers/LTC681x/LTC681x.c ****     else
1257:Drivers/LTC681x/LTC681x.c ****     {
1258:Drivers/LTC681x/LTC681x.c ****       c_ic = total_ic - current_ic - 1;
1259:Drivers/LTC681x/LTC681x.c ****     }
1260:Drivers/LTC681x/LTC681x.c ****     for (int byte=0; byte<8; byte++)
1261:Drivers/LTC681x/LTC681x.c ****     {
1262:Drivers/LTC681x/LTC681x.c ****       ic[c_ic].pwm.rx_data[byte] = read_buffer[byte+(8*current_ic)];
 3047              		.loc 1 1262 0 discriminator 3
 3048 003a 02EBC500 		add	r0, r2, r5, lsl #3
 3049 003e C4EBC401 		rsb	r1, r4, r4, lsl #3
 3050 0042 4B01     		lsls	r3, r1, #5
 3051 0044 3344     		add	r3, r3, r6
 3052 0046 01A9     		add	r1, sp, #4
 3053 0048 095C     		ldrb	r1, [r1, r0]	@ zero_extendqisi2
 3054 004a 1344     		add	r3, r3, r2
 3055 004c 83F88310 		strb	r1, [r3, #131]
ARM GAS  /tmp/ccMCacDa.s 			page 78


1260:Drivers/LTC681x/LTC681x.c ****     {
 3056              		.loc 1 1260 0 discriminator 3
 3057 0050 0132     		adds	r2, r2, #1
 3058              	.LVL341:
 3059              	.L209:
1260:Drivers/LTC681x/LTC681x.c ****     {
 3060              		.loc 1 1260 0 is_stmt 0 discriminator 1
 3061 0052 072A     		cmp	r2, #7
 3062 0054 F1DD     		ble	.L210
 3063              	.LBE36:
1263:Drivers/LTC681x/LTC681x.c ****     }
1264:Drivers/LTC681x/LTC681x.c ****     calc_pec = pec15_calc(6,&read_buffer[8*current_ic]);
 3064              		.loc 1 1264 0 is_stmt 1
 3065 0056 4FEAC509 		lsl	r9, r5, #3
 3066 005a 0DF1040A 		add	r10, sp, #4
 3067 005e 0AEB0901 		add	r1, r10, r9
 3068 0062 0620     		movs	r0, #6
 3069 0064 FFF7FEFF 		bl	pec15_calc
 3070              	.LVL342:
1265:Drivers/LTC681x/LTC681x.c ****     data_pec = read_buffer[7+(8*current_ic)] | (read_buffer[6+(8*current_ic)]<<8);
 3071              		.loc 1 1265 0
 3072 0068 09F10703 		add	r3, r9, #7
 3073 006c 1AF80330 		ldrb	r3, [r10, r3]	@ zero_extendqisi2
 3074 0070 09F10609 		add	r9, r9, #6
 3075 0074 1AF80920 		ldrb	r2, [r10, r9]	@ zero_extendqisi2
 3076 0078 43EA0223 		orr	r3, r3, r2, lsl #8
 3077              	.LVL343:
1266:Drivers/LTC681x/LTC681x.c ****     if (calc_pec != data_pec )
 3078              		.loc 1 1266 0
 3079 007c 9842     		cmp	r0, r3
 3080 007e 14D0     		beq	.L211
1267:Drivers/LTC681x/LTC681x.c ****     {
1268:Drivers/LTC681x/LTC681x.c ****       ic[c_ic].pwm.rx_pec_match = 1;
 3081              		.loc 1 1268 0
 3082 0080 C4EBC404 		rsb	r4, r4, r4, lsl #3
 3083              	.LVL344:
 3084 0084 6301     		lsls	r3, r4, #5
 3085              	.LVL345:
 3086 0086 3344     		add	r3, r3, r6
 3087 0088 0122     		movs	r2, #1
 3088              	.LVL346:
 3089 008a 83F88B20 		strb	r2, [r3, #139]
 3090              	.LVL347:
 3091              	.L212:
1250:Drivers/LTC681x/LTC681x.c ****   {
 3092              		.loc 1 1250 0 discriminator 2
 3093 008e 0135     		adds	r5, r5, #1
 3094              	.LVL348:
 3095 0090 EDB2     		uxtb	r5, r5
 3096              	.LVL349:
 3097              	.L207:
1250:Drivers/LTC681x/LTC681x.c ****   {
 3098              		.loc 1 1250 0 is_stmt 0 discriminator 1
 3099 0092 BD42     		cmp	r5, r7
 3100 0094 11D2     		bcs	.L216
1252:Drivers/LTC681x/LTC681x.c ****     {
 3101              		.loc 1 1252 0 is_stmt 1
ARM GAS  /tmp/ccMCacDa.s 			page 79


 3102 0096 96F8B930 		ldrb	r3, [r6, #185]	@ zero_extendqisi2
 3103 009a 002B     		cmp	r3, #0
 3104 009c CBD0     		beq	.L214
1258:Drivers/LTC681x/LTC681x.c ****     }
 3105              		.loc 1 1258 0
 3106 009e 7C1B     		subs	r4, r7, r5
 3107 00a0 E4B2     		uxtb	r4, r4
 3108 00a2 013C     		subs	r4, r4, #1
 3109 00a4 E4B2     		uxtb	r4, r4
 3110              	.LVL350:
 3111              	.L208:
 3112              	.LBB37:
1260:Drivers/LTC681x/LTC681x.c ****     {
 3113              		.loc 1 1260 0
 3114 00a6 0022     		movs	r2, #0
 3115 00a8 D3E7     		b	.L209
 3116              	.LVL351:
 3117              	.L211:
 3118              	.LBE37:
1269:Drivers/LTC681x/LTC681x.c ****     }
1270:Drivers/LTC681x/LTC681x.c ****     else ic[c_ic].pwm.rx_pec_match = 0;
 3119              		.loc 1 1270 0
 3120 00aa C4EBC404 		rsb	r4, r4, r4, lsl #3
 3121              	.LVL352:
 3122 00ae 6301     		lsls	r3, r4, #5
 3123              	.LVL353:
 3124 00b0 3344     		add	r3, r3, r6
 3125 00b2 0022     		movs	r2, #0
 3126              	.LVL354:
 3127 00b4 83F88B20 		strb	r2, [r3, #139]
 3128              	.LVL355:
 3129 00b8 E9E7     		b	.L212
 3130              	.LVL356:
 3131              	.L216:
 3132              	.LBE38:
1271:Drivers/LTC681x/LTC681x.c ****   }
1272:Drivers/LTC681x/LTC681x.c ****   return(pec_error);
1273:Drivers/LTC681x/LTC681x.c **** }
 3133              		.loc 1 1273 0
 3134 00ba 4046     		mov	r0, r8
 3135 00bc 42B0     		add	sp, sp, #264
 3136              	.LCFI102:
 3137              		.cfi_def_cfa_offset 32
 3138              		@ sp needed
 3139 00be BDE8F087 		pop	{r4, r5, r6, r7, r8, r9, r10, pc}
 3140              		.cfi_endproc
 3141              	.LFE46:
 3143              		.section	.text.LTC681x_wrcomm,"ax",%progbits
 3144              		.align	1
 3145              		.global	LTC681x_wrcomm
 3146              		.syntax unified
 3147              		.thumb
 3148              		.thumb_func
 3149              		.fpu softvfp
 3151              	LTC681x_wrcomm:
 3152              	.LFB47:
1274:Drivers/LTC681x/LTC681x.c **** 
ARM GAS  /tmp/ccMCacDa.s 			page 80


1275:Drivers/LTC681x/LTC681x.c **** //Writes the comm register
1276:Drivers/LTC681x/LTC681x.c **** void LTC681x_wrcomm(uint8_t total_ic, //The number of ICs being written to
1277:Drivers/LTC681x/LTC681x.c ****                     cell_asic ic[]
1278:Drivers/LTC681x/LTC681x.c ****                    )
1279:Drivers/LTC681x/LTC681x.c **** {
 3153              		.loc 1 1279 0
 3154              		.cfi_startproc
 3155              		@ args = 0, pretend = 0, frame = 264
 3156              		@ frame_needed = 0, uses_anonymous_args = 0
 3157              	.LVL357:
 3158 0000 F0B5     		push	{r4, r5, r6, r7, lr}
 3159              	.LCFI103:
 3160              		.cfi_def_cfa_offset 20
 3161              		.cfi_offset 4, -20
 3162              		.cfi_offset 5, -16
 3163              		.cfi_offset 6, -12
 3164              		.cfi_offset 7, -8
 3165              		.cfi_offset 14, -4
 3166 0002 C3B0     		sub	sp, sp, #268
 3167              	.LCFI104:
 3168              		.cfi_def_cfa_offset 288
1280:Drivers/LTC681x/LTC681x.c ****   uint8_t cmd[2]= {0x07 , 0x21};
 3169              		.loc 1 1280 0
 3170 0004 154B     		ldr	r3, .L226
 3171 0006 1B8A     		ldrh	r3, [r3, #16]
 3172 0008 ADF80431 		strh	r3, [sp, #260]	@ movhi
 3173              	.LVL358:
 3174              	.LBB39:
1281:Drivers/LTC681x/LTC681x.c ****   uint8_t write_buffer[256];
1282:Drivers/LTC681x/LTC681x.c ****   uint8_t write_count = 0;
1283:Drivers/LTC681x/LTC681x.c ****   uint8_t c_ic = 0;
1284:Drivers/LTC681x/LTC681x.c ****   for (uint8_t current_ic = 0; current_ic<total_ic; current_ic++)
 3175              		.loc 1 1284 0
 3176 000c 0027     		movs	r7, #0
 3177              	.LBE39:
1282:Drivers/LTC681x/LTC681x.c ****   uint8_t c_ic = 0;
 3178              		.loc 1 1282 0
 3179 000e 3C46     		mov	r4, r7
 3180              	.LBB42:
 3181              		.loc 1 1284 0
 3182 0010 12E0     		b	.L218
 3183              	.LVL359:
 3184              	.L223:
1285:Drivers/LTC681x/LTC681x.c ****   {
1286:Drivers/LTC681x/LTC681x.c ****     if (ic->isospi_reverse == true)
1287:Drivers/LTC681x/LTC681x.c ****     {
1288:Drivers/LTC681x/LTC681x.c ****       c_ic = current_ic;
 3185              		.loc 1 1288 0
 3186 0012 3E46     		mov	r6, r7
 3187 0014 1AE0     		b	.L219
 3188              	.LVL360:
 3189              	.L221:
 3190              	.LBB40:
1289:Drivers/LTC681x/LTC681x.c ****     }
1290:Drivers/LTC681x/LTC681x.c ****     else
1291:Drivers/LTC681x/LTC681x.c ****     {
1292:Drivers/LTC681x/LTC681x.c ****       c_ic = total_ic - current_ic - 1;
ARM GAS  /tmp/ccMCacDa.s 			page 81


1293:Drivers/LTC681x/LTC681x.c ****     }
1294:Drivers/LTC681x/LTC681x.c **** 
1295:Drivers/LTC681x/LTC681x.c ****     for (uint8_t data = 0; data<6; data++)
1296:Drivers/LTC681x/LTC681x.c ****     {
1297:Drivers/LTC681x/LTC681x.c ****       write_buffer[write_count] = ic[c_ic].com.tx_data[data];
 3191              		.loc 1 1297 0 discriminator 3
 3192 0016 C6EBC605 		rsb	r5, r6, r6, lsl #3
 3193 001a 6B01     		lsls	r3, r5, #5
 3194 001c 0B44     		add	r3, r3, r1
 3195 001e 1344     		add	r3, r3, r2
 3196 0020 93F86E50 		ldrb	r5, [r3, #110]	@ zero_extendqisi2
 3197 0024 01AB     		add	r3, sp, #4
 3198 0026 1D55     		strb	r5, [r3, r4]
1298:Drivers/LTC681x/LTC681x.c ****       write_count++;
 3199              		.loc 1 1298 0 discriminator 3
 3200 0028 0134     		adds	r4, r4, #1
 3201              	.LVL361:
 3202 002a E4B2     		uxtb	r4, r4
 3203              	.LVL362:
1295:Drivers/LTC681x/LTC681x.c ****     {
 3204              		.loc 1 1295 0 discriminator 3
 3205 002c 0132     		adds	r2, r2, #1
 3206              	.LVL363:
 3207 002e D2B2     		uxtb	r2, r2
 3208              	.LVL364:
 3209              	.L220:
1295:Drivers/LTC681x/LTC681x.c ****     {
 3210              		.loc 1 1295 0 is_stmt 0 discriminator 1
 3211 0030 052A     		cmp	r2, #5
 3212 0032 F0D9     		bls	.L221
 3213              	.LBE40:
1284:Drivers/LTC681x/LTC681x.c ****   {
 3214              		.loc 1 1284 0 is_stmt 1 discriminator 2
 3215 0034 0137     		adds	r7, r7, #1
 3216              	.LVL365:
 3217 0036 FFB2     		uxtb	r7, r7
 3218              	.LVL366:
 3219              	.L218:
1284:Drivers/LTC681x/LTC681x.c ****   {
 3220              		.loc 1 1284 0 is_stmt 0 discriminator 1
 3221 0038 8742     		cmp	r7, r0
 3222 003a 09D2     		bcs	.L225
1286:Drivers/LTC681x/LTC681x.c ****     {
 3223              		.loc 1 1286 0 is_stmt 1
 3224 003c 91F8B930 		ldrb	r3, [r1, #185]	@ zero_extendqisi2
 3225 0040 002B     		cmp	r3, #0
 3226 0042 E6D1     		bne	.L223
1292:Drivers/LTC681x/LTC681x.c ****     }
 3227              		.loc 1 1292 0
 3228 0044 C61B     		subs	r6, r0, r7
 3229 0046 F6B2     		uxtb	r6, r6
 3230 0048 013E     		subs	r6, r6, #1
 3231 004a F6B2     		uxtb	r6, r6
 3232              	.LVL367:
 3233              	.L219:
 3234              	.LBB41:
1295:Drivers/LTC681x/LTC681x.c ****     {
ARM GAS  /tmp/ccMCacDa.s 			page 82


 3235              		.loc 1 1295 0
 3236 004c 0022     		movs	r2, #0
 3237 004e EFE7     		b	.L220
 3238              	.LVL368:
 3239              	.L225:
 3240              	.LBE41:
 3241              	.LBE42:
1299:Drivers/LTC681x/LTC681x.c ****     }
1300:Drivers/LTC681x/LTC681x.c ****   }
1301:Drivers/LTC681x/LTC681x.c ****   write_68(total_ic, cmd, write_buffer);
 3242              		.loc 1 1301 0
 3243 0050 01AA     		add	r2, sp, #4
 3244 0052 41A9     		add	r1, sp, #260
 3245              	.LVL369:
 3246 0054 FFF7FEFF 		bl	write_68
 3247              	.LVL370:
1302:Drivers/LTC681x/LTC681x.c **** }
 3248              		.loc 1 1302 0
 3249 0058 43B0     		add	sp, sp, #268
 3250              	.LCFI105:
 3251              		.cfi_def_cfa_offset 20
 3252              		@ sp needed
 3253 005a F0BD     		pop	{r4, r5, r6, r7, pc}
 3254              	.LVL371:
 3255              	.L227:
 3256              		.align	2
 3257              	.L226:
 3258 005c 00000000 		.word	.LANCHOR1
 3259              		.cfi_endproc
 3260              	.LFE47:
 3262              		.section	.text.LTC681x_rdcomm,"ax",%progbits
 3263              		.align	1
 3264              		.global	LTC681x_rdcomm
 3265              		.syntax unified
 3266              		.thumb
 3267              		.thumb_func
 3268              		.fpu softvfp
 3270              	LTC681x_rdcomm:
 3271              	.LFB48:
1303:Drivers/LTC681x/LTC681x.c **** 
1304:Drivers/LTC681x/LTC681x.c **** //Reads COMM registers of a LTC6811 daisy chain
1305:Drivers/LTC681x/LTC681x.c **** int8_t LTC681x_rdcomm(uint8_t total_ic, //Number of ICs in the system
1306:Drivers/LTC681x/LTC681x.c ****                       cell_asic ic[]
1307:Drivers/LTC681x/LTC681x.c ****                      )
1308:Drivers/LTC681x/LTC681x.c **** {
 3272              		.loc 1 1308 0
 3273              		.cfi_startproc
 3274              		@ args = 0, pretend = 0, frame = 264
 3275              		@ frame_needed = 0, uses_anonymous_args = 0
 3276              	.LVL372:
 3277 0000 2DE9F047 		push	{r4, r5, r6, r7, r8, r9, r10, lr}
 3278              	.LCFI106:
 3279              		.cfi_def_cfa_offset 32
 3280              		.cfi_offset 4, -32
 3281              		.cfi_offset 5, -28
 3282              		.cfi_offset 6, -24
 3283              		.cfi_offset 7, -20
ARM GAS  /tmp/ccMCacDa.s 			page 83


 3284              		.cfi_offset 8, -16
 3285              		.cfi_offset 9, -12
 3286              		.cfi_offset 10, -8
 3287              		.cfi_offset 14, -4
 3288 0004 C2B0     		sub	sp, sp, #264
 3289              	.LCFI107:
 3290              		.cfi_def_cfa_offset 296
 3291 0006 0746     		mov	r7, r0
 3292 0008 0E46     		mov	r6, r1
1309:Drivers/LTC681x/LTC681x.c ****   uint8_t cmd[2]= {0x07 , 0x22};
 3293              		.loc 1 1309 0
 3294 000a 284B     		ldr	r3, .L239
 3295 000c 9B8A     		ldrh	r3, [r3, #20]
 3296 000e ADF80431 		strh	r3, [sp, #260]	@ movhi
 3297              	.LVL373:
1310:Drivers/LTC681x/LTC681x.c ****   uint8_t read_buffer[256];
1311:Drivers/LTC681x/LTC681x.c ****   int8_t pec_error = 0;
1312:Drivers/LTC681x/LTC681x.c ****   uint16_t data_pec;
1313:Drivers/LTC681x/LTC681x.c ****   uint16_t calc_pec;
1314:Drivers/LTC681x/LTC681x.c ****   uint8_t c_ic=0;
1315:Drivers/LTC681x/LTC681x.c ****   pec_error = read_68(total_ic, cmd, read_buffer);
 3298              		.loc 1 1315 0
 3299 0012 01AA     		add	r2, sp, #4
 3300 0014 41A9     		add	r1, sp, #260
 3301              	.LVL374:
 3302 0016 FFF7FEFF 		bl	read_68
 3303              	.LVL375:
 3304 001a 8046     		mov	r8, r0
 3305              	.LVL376:
 3306              	.LBB43:
1316:Drivers/LTC681x/LTC681x.c ****   for (uint8_t current_ic = 0; current_ic<total_ic; current_ic++)
 3307              		.loc 1 1316 0
 3308 001c 0025     		movs	r5, #0
 3309 001e 2DE0     		b	.L229
 3310              	.LVL377:
 3311              	.L236:
1317:Drivers/LTC681x/LTC681x.c ****   {
1318:Drivers/LTC681x/LTC681x.c ****     if (ic->isospi_reverse == false)
1319:Drivers/LTC681x/LTC681x.c ****     {
1320:Drivers/LTC681x/LTC681x.c ****       c_ic = current_ic;
 3312              		.loc 1 1320 0
 3313 0020 2C46     		mov	r4, r5
 3314 0022 35E0     		b	.L230
 3315              	.LVL378:
 3316              	.L232:
 3317              	.LBB44:
1321:Drivers/LTC681x/LTC681x.c ****     }
1322:Drivers/LTC681x/LTC681x.c ****     else
1323:Drivers/LTC681x/LTC681x.c ****     {
1324:Drivers/LTC681x/LTC681x.c ****       c_ic = total_ic - current_ic - 1;
1325:Drivers/LTC681x/LTC681x.c ****     }
1326:Drivers/LTC681x/LTC681x.c **** 
1327:Drivers/LTC681x/LTC681x.c ****     for (int byte=0; byte<8; byte++)
1328:Drivers/LTC681x/LTC681x.c ****     {
1329:Drivers/LTC681x/LTC681x.c ****       ic[c_ic].com.rx_data[byte] = read_buffer[byte+(8*current_ic)];
 3318              		.loc 1 1329 0 discriminator 3
 3319 0024 02EBC500 		add	r0, r2, r5, lsl #3
ARM GAS  /tmp/ccMCacDa.s 			page 84


 3320 0028 C4EBC401 		rsb	r1, r4, r4, lsl #3
 3321 002c 4B01     		lsls	r3, r1, #5
 3322 002e 3344     		add	r3, r3, r6
 3323 0030 01A9     		add	r1, sp, #4
 3324 0032 095C     		ldrb	r1, [r1, r0]	@ zero_extendqisi2
 3325 0034 1344     		add	r3, r3, r2
 3326 0036 83F87410 		strb	r1, [r3, #116]
1327:Drivers/LTC681x/LTC681x.c ****     {
 3327              		.loc 1 1327 0 discriminator 3
 3328 003a 0132     		adds	r2, r2, #1
 3329              	.LVL379:
 3330              	.L231:
1327:Drivers/LTC681x/LTC681x.c ****     {
 3331              		.loc 1 1327 0 is_stmt 0 discriminator 1
 3332 003c 072A     		cmp	r2, #7
 3333 003e F1DD     		ble	.L232
 3334              	.LBE44:
1330:Drivers/LTC681x/LTC681x.c ****     }
1331:Drivers/LTC681x/LTC681x.c ****     calc_pec = pec15_calc(6,&read_buffer[8*current_ic]);
 3335              		.loc 1 1331 0 is_stmt 1
 3336 0040 4FEAC509 		lsl	r9, r5, #3
 3337 0044 0DF1040A 		add	r10, sp, #4
 3338 0048 0AEB0901 		add	r1, r10, r9
 3339 004c 0620     		movs	r0, #6
 3340 004e FFF7FEFF 		bl	pec15_calc
 3341              	.LVL380:
1332:Drivers/LTC681x/LTC681x.c ****     data_pec = read_buffer[7+(8*current_ic)] | (read_buffer[6+(8*current_ic)]<<8);
 3342              		.loc 1 1332 0
 3343 0052 09F10703 		add	r3, r9, #7
 3344 0056 1AF80330 		ldrb	r3, [r10, r3]	@ zero_extendqisi2
 3345 005a 09F10609 		add	r9, r9, #6
 3346 005e 1AF80920 		ldrb	r2, [r10, r9]	@ zero_extendqisi2
 3347 0062 43EA0223 		orr	r3, r3, r2, lsl #8
 3348              	.LVL381:
1333:Drivers/LTC681x/LTC681x.c ****     if (calc_pec != data_pec )
 3349              		.loc 1 1333 0
 3350 0066 9842     		cmp	r0, r3
 3351 0068 14D0     		beq	.L233
1334:Drivers/LTC681x/LTC681x.c ****     {
1335:Drivers/LTC681x/LTC681x.c ****       ic[c_ic].com.rx_pec_match = 1;
 3352              		.loc 1 1335 0
 3353 006a C4EBC404 		rsb	r4, r4, r4, lsl #3
 3354              	.LVL382:
 3355 006e 6301     		lsls	r3, r4, #5
 3356              	.LVL383:
 3357 0070 3344     		add	r3, r3, r6
 3358 0072 0122     		movs	r2, #1
 3359              	.LVL384:
 3360 0074 83F87C20 		strb	r2, [r3, #124]
 3361              	.LVL385:
 3362              	.L234:
1316:Drivers/LTC681x/LTC681x.c ****   {
 3363              		.loc 1 1316 0 discriminator 2
 3364 0078 0135     		adds	r5, r5, #1
 3365              	.LVL386:
 3366 007a EDB2     		uxtb	r5, r5
 3367              	.LVL387:
ARM GAS  /tmp/ccMCacDa.s 			page 85


 3368              	.L229:
1316:Drivers/LTC681x/LTC681x.c ****   {
 3369              		.loc 1 1316 0 is_stmt 0 discriminator 1
 3370 007c BD42     		cmp	r5, r7
 3371 007e 11D2     		bcs	.L238
1318:Drivers/LTC681x/LTC681x.c ****     {
 3372              		.loc 1 1318 0 is_stmt 1
 3373 0080 96F8B930 		ldrb	r3, [r6, #185]	@ zero_extendqisi2
 3374 0084 002B     		cmp	r3, #0
 3375 0086 CBD0     		beq	.L236
1324:Drivers/LTC681x/LTC681x.c ****     }
 3376              		.loc 1 1324 0
 3377 0088 7C1B     		subs	r4, r7, r5
 3378 008a E4B2     		uxtb	r4, r4
 3379 008c 013C     		subs	r4, r4, #1
 3380 008e E4B2     		uxtb	r4, r4
 3381              	.LVL388:
 3382              	.L230:
 3383              	.LBB45:
1327:Drivers/LTC681x/LTC681x.c ****     {
 3384              		.loc 1 1327 0
 3385 0090 0022     		movs	r2, #0
 3386 0092 D3E7     		b	.L231
 3387              	.LVL389:
 3388              	.L233:
 3389              	.LBE45:
1336:Drivers/LTC681x/LTC681x.c ****     }
1337:Drivers/LTC681x/LTC681x.c ****     else ic[c_ic].com.rx_pec_match = 0;
 3390              		.loc 1 1337 0
 3391 0094 C4EBC404 		rsb	r4, r4, r4, lsl #3
 3392              	.LVL390:
 3393 0098 6301     		lsls	r3, r4, #5
 3394              	.LVL391:
 3395 009a 3344     		add	r3, r3, r6
 3396 009c 0022     		movs	r2, #0
 3397              	.LVL392:
 3398 009e 83F87C20 		strb	r2, [r3, #124]
 3399              	.LVL393:
 3400 00a2 E9E7     		b	.L234
 3401              	.LVL394:
 3402              	.L238:
 3403              	.LBE43:
1338:Drivers/LTC681x/LTC681x.c ****   }
1339:Drivers/LTC681x/LTC681x.c ****   return(pec_error);
1340:Drivers/LTC681x/LTC681x.c **** }
 3404              		.loc 1 1340 0
 3405 00a4 4046     		mov	r0, r8
 3406 00a6 42B0     		add	sp, sp, #264
 3407              	.LCFI108:
 3408              		.cfi_def_cfa_offset 32
 3409              		@ sp needed
 3410 00a8 BDE8F087 		pop	{r4, r5, r6, r7, r8, r9, r10, pc}
 3411              	.LVL395:
 3412              	.L240:
 3413              		.align	2
 3414              	.L239:
 3415 00ac 00000000 		.word	.LANCHOR1
ARM GAS  /tmp/ccMCacDa.s 			page 86


 3416              		.cfi_endproc
 3417              	.LFE48:
 3419              		.section	.text.LTC681x_stcomm,"ax",%progbits
 3420              		.align	1
 3421              		.global	LTC681x_stcomm
 3422              		.syntax unified
 3423              		.thumb
 3424              		.thumb_func
 3425              		.fpu softvfp
 3427              	LTC681x_stcomm:
 3428              	.LFB49:
1341:Drivers/LTC681x/LTC681x.c **** 
1342:Drivers/LTC681x/LTC681x.c **** //Shifts data in COMM register out over LTC6811 SPI/I2C port
1343:Drivers/LTC681x/LTC681x.c **** void LTC681x_stcomm()
1344:Drivers/LTC681x/LTC681x.c **** {
 3429              		.loc 1 1344 0
 3430              		.cfi_startproc
 3431              		@ args = 0, pretend = 0, frame = 8
 3432              		@ frame_needed = 0, uses_anonymous_args = 0
 3433 0000 10B5     		push	{r4, lr}
 3434              	.LCFI109:
 3435              		.cfi_def_cfa_offset 8
 3436              		.cfi_offset 4, -8
 3437              		.cfi_offset 14, -4
 3438 0002 82B0     		sub	sp, sp, #8
 3439              	.LCFI110:
 3440              		.cfi_def_cfa_offset 16
1345:Drivers/LTC681x/LTC681x.c **** 
1346:Drivers/LTC681x/LTC681x.c ****   uint8_t cmd[4];
1347:Drivers/LTC681x/LTC681x.c ****   uint16_t cmd_pec;
1348:Drivers/LTC681x/LTC681x.c **** 
1349:Drivers/LTC681x/LTC681x.c ****   cmd[0] = 0x07;
 3441              		.loc 1 1349 0
 3442 0004 0723     		movs	r3, #7
 3443 0006 8DF80430 		strb	r3, [sp, #4]
1350:Drivers/LTC681x/LTC681x.c ****   cmd[1] = 0x23;
 3444              		.loc 1 1350 0
 3445 000a 2323     		movs	r3, #35
 3446 000c 8DF80530 		strb	r3, [sp, #5]
1351:Drivers/LTC681x/LTC681x.c ****   cmd_pec = pec15_calc(2, cmd);
 3447              		.loc 1 1351 0
 3448 0010 01A9     		add	r1, sp, #4
 3449 0012 0220     		movs	r0, #2
 3450 0014 FFF7FEFF 		bl	pec15_calc
 3451              	.LVL396:
1352:Drivers/LTC681x/LTC681x.c ****   cmd[2] = (uint8_t)(cmd_pec >> 8);
 3452              		.loc 1 1352 0
 3453 0018 C0F30723 		ubfx	r3, r0, #8, #8
 3454 001c 8DF80630 		strb	r3, [sp, #6]
1353:Drivers/LTC681x/LTC681x.c ****   cmd[3] = (uint8_t)(cmd_pec);
 3455              		.loc 1 1353 0
 3456 0020 8DF80700 		strb	r0, [sp, #7]
1354:Drivers/LTC681x/LTC681x.c **** 
1355:Drivers/LTC681x/LTC681x.c ****   cs_low(CS_PIN);
 3457              		.loc 1 1355 0
 3458 0024 0A20     		movs	r0, #10
 3459              	.LVL397:
ARM GAS  /tmp/ccMCacDa.s 			page 87


 3460 0026 FFF7FEFF 		bl	cs_low
 3461              	.LVL398:
1356:Drivers/LTC681x/LTC681x.c ****   spi_write_array(4,cmd);
 3462              		.loc 1 1356 0
 3463 002a 01A9     		add	r1, sp, #4
 3464 002c 0420     		movs	r0, #4
 3465 002e FFF7FEFF 		bl	spi_write_array
 3466              	.LVL399:
 3467              	.LBB46:
1357:Drivers/LTC681x/LTC681x.c ****   for (int i = 0; i<9; i++)
 3468              		.loc 1 1357 0
 3469 0032 0024     		movs	r4, #0
 3470 0034 03E0     		b	.L242
 3471              	.LVL400:
 3472              	.L243:
1358:Drivers/LTC681x/LTC681x.c ****   {
1359:Drivers/LTC681x/LTC681x.c ****     spi_read_byte(0xFF);
 3473              		.loc 1 1359 0 discriminator 3
 3474 0036 FF20     		movs	r0, #255
 3475 0038 FFF7FEFF 		bl	spi_read_byte
 3476              	.LVL401:
1357:Drivers/LTC681x/LTC681x.c ****   for (int i = 0; i<9; i++)
 3477              		.loc 1 1357 0 discriminator 3
 3478 003c 0134     		adds	r4, r4, #1
 3479              	.LVL402:
 3480              	.L242:
1357:Drivers/LTC681x/LTC681x.c ****   for (int i = 0; i<9; i++)
 3481              		.loc 1 1357 0 is_stmt 0 discriminator 1
 3482 003e 082C     		cmp	r4, #8
 3483 0040 F9DD     		ble	.L243
 3484              	.LBE46:
1360:Drivers/LTC681x/LTC681x.c ****   }
1361:Drivers/LTC681x/LTC681x.c ****   cs_high(CS_PIN);
 3485              		.loc 1 1361 0 is_stmt 1
 3486 0042 0A20     		movs	r0, #10
 3487 0044 FFF7FEFF 		bl	cs_high
 3488              	.LVL403:
1362:Drivers/LTC681x/LTC681x.c **** 
1363:Drivers/LTC681x/LTC681x.c **** }
 3489              		.loc 1 1363 0
 3490 0048 02B0     		add	sp, sp, #8
 3491              	.LCFI111:
 3492              		.cfi_def_cfa_offset 8
 3493              		@ sp needed
 3494 004a 10BD     		pop	{r4, pc}
 3495              		.cfi_endproc
 3496              	.LFE49:
 3498              		.section	.text.LTC681x_wrsctrl,"ax",%progbits
 3499              		.align	1
 3500              		.global	LTC681x_wrsctrl
 3501              		.syntax unified
 3502              		.thumb
 3503              		.thumb_func
 3504              		.fpu softvfp
 3506              	LTC681x_wrsctrl:
 3507              	.LFB50:
1364:Drivers/LTC681x/LTC681x.c **** 
ARM GAS  /tmp/ccMCacDa.s 			page 88


1365:Drivers/LTC681x/LTC681x.c **** // Write the ltc6811 Sctrl register 
1366:Drivers/LTC681x/LTC681x.c **** void LTC681x_wrsctrl(uint8_t total_ic, // number of ICs in the daisy chain
1367:Drivers/LTC681x/LTC681x.c ****                      uint8_t sctrl_reg,
1368:Drivers/LTC681x/LTC681x.c ****                      cell_asic *ic
1369:Drivers/LTC681x/LTC681x.c ****                     )
1370:Drivers/LTC681x/LTC681x.c **** {
 3508              		.loc 1 1370 0
 3509              		.cfi_startproc
 3510              		@ args = 0, pretend = 0, frame = 264
 3511              		@ frame_needed = 0, uses_anonymous_args = 0
 3512              	.LVL404:
 3513 0000 F0B5     		push	{r4, r5, r6, r7, lr}
 3514              	.LCFI112:
 3515              		.cfi_def_cfa_offset 20
 3516              		.cfi_offset 4, -20
 3517              		.cfi_offset 5, -16
 3518              		.cfi_offset 6, -12
 3519              		.cfi_offset 7, -8
 3520              		.cfi_offset 14, -4
 3521 0002 C3B0     		sub	sp, sp, #268
 3522              	.LCFI113:
 3523              		.cfi_def_cfa_offset 288
 3524              	.LVL405:
1371:Drivers/LTC681x/LTC681x.c **** 	uint8_t cmd[2];
1372:Drivers/LTC681x/LTC681x.c ****     uint8_t write_buffer[256];
1373:Drivers/LTC681x/LTC681x.c ****     uint8_t write_count = 0;
1374:Drivers/LTC681x/LTC681x.c ****     uint8_t c_ic = 0;
1375:Drivers/LTC681x/LTC681x.c ****     if (sctrl_reg == 0)
 3525              		.loc 1 1375 0
 3526 0004 41B9     		cbnz	r1, .L246
1376:Drivers/LTC681x/LTC681x.c ****     {
1377:Drivers/LTC681x/LTC681x.c ****       cmd[0] = 0x00;
 3527              		.loc 1 1377 0
 3528 0006 0023     		movs	r3, #0
 3529 0008 8DF80431 		strb	r3, [sp, #260]
1378:Drivers/LTC681x/LTC681x.c ****       cmd[1] = 0x14;
 3530              		.loc 1 1378 0
 3531 000c 1423     		movs	r3, #20
 3532 000e 8DF80531 		strb	r3, [sp, #261]
 3533              	.L248:
 3534              	.LBB47:
 3535              	.LBB48:
1379:Drivers/LTC681x/LTC681x.c ****     }
1380:Drivers/LTC681x/LTC681x.c ****     else
1381:Drivers/LTC681x/LTC681x.c ****     {
1382:Drivers/LTC681x/LTC681x.c ****       cmd[0] = 0x00;
1383:Drivers/LTC681x/LTC681x.c ****       cmd[1] = 0x1C;
1384:Drivers/LTC681x/LTC681x.c ****     }
1385:Drivers/LTC681x/LTC681x.c ****     
1386:Drivers/LTC681x/LTC681x.c ****     for(uint8_t current_ic = 0; current_ic<total_ic;current_ic++)
1387:Drivers/LTC681x/LTC681x.c ****     {
1388:Drivers/LTC681x/LTC681x.c ****         if(ic->isospi_reverse == true){c_ic = current_ic;}
1389:Drivers/LTC681x/LTC681x.c ****         else{c_ic = total_ic - current_ic - 1;}
1390:Drivers/LTC681x/LTC681x.c **** 		
1391:Drivers/LTC681x/LTC681x.c **** 
1392:Drivers/LTC681x/LTC681x.c ****         for(uint8_t data = 0; data<6;data++)
 3536              		.loc 1 1392 0 discriminator 1
ARM GAS  /tmp/ccMCacDa.s 			page 89


 3537 0012 0027     		movs	r7, #0
 3538 0014 3C46     		mov	r4, r7
 3539 0016 19E0     		b	.L247
 3540              	.L246:
 3541              	.LBE48:
 3542              	.LBE47:
1382:Drivers/LTC681x/LTC681x.c ****       cmd[1] = 0x1C;
 3543              		.loc 1 1382 0
 3544 0018 0023     		movs	r3, #0
 3545 001a 8DF80431 		strb	r3, [sp, #260]
1383:Drivers/LTC681x/LTC681x.c ****     }
 3546              		.loc 1 1383 0
 3547 001e 1C23     		movs	r3, #28
 3548 0020 8DF80531 		strb	r3, [sp, #261]
 3549 0024 F5E7     		b	.L248
 3550              	.LVL406:
 3551              	.L253:
 3552              	.LBB51:
1388:Drivers/LTC681x/LTC681x.c ****         else{c_ic = total_ic - current_ic - 1;}
 3553              		.loc 1 1388 0
 3554 0026 3E46     		mov	r6, r7
 3555 0028 1AE0     		b	.L249
 3556              	.LVL407:
 3557              	.L251:
 3558              	.LBB49:
1393:Drivers/LTC681x/LTC681x.c ****         {
1394:Drivers/LTC681x/LTC681x.c ****             write_buffer[write_count] = ic[c_ic].sctrl.tx_data[data];
 3559              		.loc 1 1394 0 discriminator 3
 3560 002a C6EBC605 		rsb	r5, r6, r6, lsl #3
 3561 002e 6B01     		lsls	r3, r5, #5
 3562 0030 1344     		add	r3, r3, r2
 3563 0032 0B44     		add	r3, r3, r1
 3564 0034 93F89B50 		ldrb	r5, [r3, #155]	@ zero_extendqisi2
 3565 0038 01AB     		add	r3, sp, #4
 3566 003a 1D55     		strb	r5, [r3, r4]
1395:Drivers/LTC681x/LTC681x.c **** 			
1396:Drivers/LTC681x/LTC681x.c ****             write_count++;
 3567              		.loc 1 1396 0 discriminator 3
 3568 003c 0134     		adds	r4, r4, #1
 3569              	.LVL408:
 3570 003e E4B2     		uxtb	r4, r4
 3571              	.LVL409:
1392:Drivers/LTC681x/LTC681x.c ****         {
 3572              		.loc 1 1392 0 discriminator 3
 3573 0040 0131     		adds	r1, r1, #1
 3574              	.LVL410:
 3575 0042 C9B2     		uxtb	r1, r1
 3576              	.LVL411:
 3577              	.L250:
1392:Drivers/LTC681x/LTC681x.c ****         {
 3578              		.loc 1 1392 0 is_stmt 0 discriminator 1
 3579 0044 0529     		cmp	r1, #5
 3580 0046 F0D9     		bls	.L251
 3581              	.LBE49:
1386:Drivers/LTC681x/LTC681x.c ****     {
 3582              		.loc 1 1386 0 is_stmt 1 discriminator 2
 3583 0048 0137     		adds	r7, r7, #1
ARM GAS  /tmp/ccMCacDa.s 			page 90


 3584              	.LVL412:
 3585 004a FFB2     		uxtb	r7, r7
 3586              	.LVL413:
 3587              	.L247:
1386:Drivers/LTC681x/LTC681x.c ****     {
 3588              		.loc 1 1386 0 is_stmt 0 discriminator 1
 3589 004c 8742     		cmp	r7, r0
 3590 004e 09D2     		bcs	.L255
1388:Drivers/LTC681x/LTC681x.c ****         else{c_ic = total_ic - current_ic - 1;}
 3591              		.loc 1 1388 0 is_stmt 1
 3592 0050 92F8B930 		ldrb	r3, [r2, #185]	@ zero_extendqisi2
 3593 0054 002B     		cmp	r3, #0
 3594 0056 E6D1     		bne	.L253
1389:Drivers/LTC681x/LTC681x.c **** 		
 3595              		.loc 1 1389 0
 3596 0058 C61B     		subs	r6, r0, r7
 3597 005a F6B2     		uxtb	r6, r6
 3598 005c 013E     		subs	r6, r6, #1
 3599 005e F6B2     		uxtb	r6, r6
 3600              	.LVL414:
 3601              	.L249:
 3602              	.LBB50:
1392:Drivers/LTC681x/LTC681x.c ****         {
 3603              		.loc 1 1392 0
 3604 0060 0021     		movs	r1, #0
 3605 0062 EFE7     		b	.L250
 3606              	.LVL415:
 3607              	.L255:
 3608              	.LBE50:
 3609              	.LBE51:
1397:Drivers/LTC681x/LTC681x.c ****         }
1398:Drivers/LTC681x/LTC681x.c ****     }
1399:Drivers/LTC681x/LTC681x.c ****     write_68(total_ic, cmd, write_buffer);
 3610              		.loc 1 1399 0
 3611 0064 01AA     		add	r2, sp, #4
 3612              	.LVL416:
 3613 0066 41A9     		add	r1, sp, #260
 3614 0068 FFF7FEFF 		bl	write_68
 3615              	.LVL417:
1400:Drivers/LTC681x/LTC681x.c **** }					
 3616              		.loc 1 1400 0
 3617 006c 43B0     		add	sp, sp, #268
 3618              	.LCFI114:
 3619              		.cfi_def_cfa_offset 20
 3620              		@ sp needed
 3621 006e F0BD     		pop	{r4, r5, r6, r7, pc}
 3622              		.cfi_endproc
 3623              	.LFE50:
 3625              		.section	.text.LTC681x_rdsctrl,"ax",%progbits
 3626              		.align	1
 3627              		.global	LTC681x_rdsctrl
 3628              		.syntax unified
 3629              		.thumb
 3630              		.thumb_func
 3631              		.fpu softvfp
 3633              	LTC681x_rdsctrl:
 3634              	.LFB51:
ARM GAS  /tmp/ccMCacDa.s 			page 91


1401:Drivers/LTC681x/LTC681x.c **** 					
1402:Drivers/LTC681x/LTC681x.c **** /* Reads sctrl registers of a ltc6811 daisy chain    
1403:Drivers/LTC681x/LTC681x.c **** @return int8_t, PEC Status.
1404:Drivers/LTC681x/LTC681x.c ****   0: Data read back has matching PEC
1405:Drivers/LTC681x/LTC681x.c ****   -1: Data read back has incorrect PEC
1406:Drivers/LTC681x/LTC681x.c **** */
1407:Drivers/LTC681x/LTC681x.c **** int8_t LTC681x_rdsctrl(uint8_t total_ic, // number of ICs in the daisy chain
1408:Drivers/LTC681x/LTC681x.c ****                        uint8_t sctrl_reg,
1409:Drivers/LTC681x/LTC681x.c ****                        cell_asic *ic // a two dimensional array that the function stores the read p
1410:Drivers/LTC681x/LTC681x.c ****                       )	
1411:Drivers/LTC681x/LTC681x.c **** {
 3635              		.loc 1 1411 0
 3636              		.cfi_startproc
 3637              		@ args = 0, pretend = 0, frame = 264
 3638              		@ frame_needed = 0, uses_anonymous_args = 0
 3639              	.LVL418:
 3640 0000 2DE9F047 		push	{r4, r5, r6, r7, r8, r9, r10, lr}
 3641              	.LCFI115:
 3642              		.cfi_def_cfa_offset 32
 3643              		.cfi_offset 4, -32
 3644              		.cfi_offset 5, -28
 3645              		.cfi_offset 6, -24
 3646              		.cfi_offset 7, -20
 3647              		.cfi_offset 8, -16
 3648              		.cfi_offset 9, -12
 3649              		.cfi_offset 10, -8
 3650              		.cfi_offset 14, -4
 3651 0004 C2B0     		sub	sp, sp, #264
 3652              	.LCFI116:
 3653              		.cfi_def_cfa_offset 296
 3654 0006 0746     		mov	r7, r0
 3655 0008 1646     		mov	r6, r2
 3656              	.LVL419:
1412:Drivers/LTC681x/LTC681x.c ****     uint8_t cmd[4];
1413:Drivers/LTC681x/LTC681x.c ****     uint8_t read_buffer[256];
1414:Drivers/LTC681x/LTC681x.c ****     int8_t pec_error = 0;
1415:Drivers/LTC681x/LTC681x.c ****     uint16_t data_pec;
1416:Drivers/LTC681x/LTC681x.c ****     uint16_t calc_pec;
1417:Drivers/LTC681x/LTC681x.c ****     uint8_t c_ic = 0;
1418:Drivers/LTC681x/LTC681x.c ****     
1419:Drivers/LTC681x/LTC681x.c ****     if (sctrl_reg == 0)
 3657              		.loc 1 1419 0
 3658 000a 69B9     		cbnz	r1, .L257
1420:Drivers/LTC681x/LTC681x.c ****     {
1421:Drivers/LTC681x/LTC681x.c ****       cmd[0] = 0x00;
 3659              		.loc 1 1421 0
 3660 000c 0023     		movs	r3, #0
 3661 000e 8DF80431 		strb	r3, [sp, #260]
1422:Drivers/LTC681x/LTC681x.c ****       cmd[1] = 0x16;
 3662              		.loc 1 1422 0
 3663 0012 1623     		movs	r3, #22
 3664 0014 8DF80531 		strb	r3, [sp, #261]
 3665              	.L258:
1423:Drivers/LTC681x/LTC681x.c **** 	  }
1424:Drivers/LTC681x/LTC681x.c ****     else
1425:Drivers/LTC681x/LTC681x.c ****     {
1426:Drivers/LTC681x/LTC681x.c ****       cmd[0] = 0x00;
ARM GAS  /tmp/ccMCacDa.s 			page 92


1427:Drivers/LTC681x/LTC681x.c ****       cmd[1] = 0x1E;
1428:Drivers/LTC681x/LTC681x.c **** 	  }
1429:Drivers/LTC681x/LTC681x.c ****     
1430:Drivers/LTC681x/LTC681x.c ****     pec_error = read_68(total_ic, cmd, read_buffer);
 3666              		.loc 1 1430 0
 3667 0018 01AA     		add	r2, sp, #4
 3668              	.LVL420:
 3669 001a 41A9     		add	r1, sp, #260
 3670              	.LVL421:
 3671 001c 3846     		mov	r0, r7
 3672              	.LVL422:
 3673 001e FFF7FEFF 		bl	read_68
 3674              	.LVL423:
 3675 0022 8046     		mov	r8, r0
 3676              	.LVL424:
 3677              	.LBB52:
1431:Drivers/LTC681x/LTC681x.c **** 
1432:Drivers/LTC681x/LTC681x.c ****     for(uint8_t current_ic =0; current_ic<total_ic; current_ic++)
 3678              		.loc 1 1432 0
 3679 0024 0025     		movs	r5, #0
 3680 0026 34E0     		b	.L259
 3681              	.LVL425:
 3682              	.L257:
 3683              	.LBE52:
1426:Drivers/LTC681x/LTC681x.c ****       cmd[1] = 0x1E;
 3684              		.loc 1 1426 0
 3685 0028 0023     		movs	r3, #0
 3686 002a 8DF80431 		strb	r3, [sp, #260]
1427:Drivers/LTC681x/LTC681x.c **** 	  }
 3687              		.loc 1 1427 0
 3688 002e 1E23     		movs	r3, #30
 3689 0030 8DF80531 		strb	r3, [sp, #261]
 3690 0034 F0E7     		b	.L258
 3691              	.LVL426:
 3692              	.L266:
 3693              	.LBB55:
1433:Drivers/LTC681x/LTC681x.c ****     {	
1434:Drivers/LTC681x/LTC681x.c ****         if(ic->isospi_reverse == false){c_ic = current_ic;}
 3694              		.loc 1 1434 0
 3695 0036 2C46     		mov	r4, r5
 3696 0038 35E0     		b	.L260
 3697              	.LVL427:
 3698              	.L262:
 3699              	.LBB53:
1435:Drivers/LTC681x/LTC681x.c ****         else{c_ic = total_ic - current_ic - 1;}
1436:Drivers/LTC681x/LTC681x.c **** 	
1437:Drivers/LTC681x/LTC681x.c **** 		
1438:Drivers/LTC681x/LTC681x.c ****         for(int byte=0; byte<8;byte++)
1439:Drivers/LTC681x/LTC681x.c ****         {
1440:Drivers/LTC681x/LTC681x.c ****             ic[c_ic].sctrl.rx_data[byte] = read_buffer[byte+(8*current_ic)]; 	
 3700              		.loc 1 1440 0 discriminator 3
 3701 003a 02EBC500 		add	r0, r2, r5, lsl #3
 3702 003e C4EBC401 		rsb	r1, r4, r4, lsl #3
 3703 0042 4B01     		lsls	r3, r1, #5
 3704 0044 3344     		add	r3, r3, r6
 3705 0046 01A9     		add	r1, sp, #4
 3706 0048 095C     		ldrb	r1, [r1, r0]	@ zero_extendqisi2
ARM GAS  /tmp/ccMCacDa.s 			page 93


 3707 004a 1344     		add	r3, r3, r2
 3708 004c 83F8A110 		strb	r1, [r3, #161]
1438:Drivers/LTC681x/LTC681x.c ****         {
 3709              		.loc 1 1438 0 discriminator 3
 3710 0050 0132     		adds	r2, r2, #1
 3711              	.LVL428:
 3712              	.L261:
1438:Drivers/LTC681x/LTC681x.c ****         {
 3713              		.loc 1 1438 0 is_stmt 0 discriminator 1
 3714 0052 072A     		cmp	r2, #7
 3715 0054 F1DD     		ble	.L262
 3716              	.LBE53:
1441:Drivers/LTC681x/LTC681x.c ****         }
1442:Drivers/LTC681x/LTC681x.c **** 		
1443:Drivers/LTC681x/LTC681x.c ****         calc_pec = pec15_calc(6,&read_buffer[8*current_ic]);
 3717              		.loc 1 1443 0 is_stmt 1
 3718 0056 4FEAC509 		lsl	r9, r5, #3
 3719 005a 0DF1040A 		add	r10, sp, #4
 3720 005e 0AEB0901 		add	r1, r10, r9
 3721 0062 0620     		movs	r0, #6
 3722 0064 FFF7FEFF 		bl	pec15_calc
 3723              	.LVL429:
1444:Drivers/LTC681x/LTC681x.c ****         data_pec = read_buffer[7+(8*current_ic)] | (read_buffer[6+(8*current_ic)]<<8);
 3724              		.loc 1 1444 0
 3725 0068 09F10703 		add	r3, r9, #7
 3726 006c 1AF80330 		ldrb	r3, [r10, r3]	@ zero_extendqisi2
 3727 0070 09F10609 		add	r9, r9, #6
 3728 0074 1AF80920 		ldrb	r2, [r10, r9]	@ zero_extendqisi2
 3729 0078 43EA0223 		orr	r3, r3, r2, lsl #8
 3730              	.LVL430:
1445:Drivers/LTC681x/LTC681x.c ****         if(calc_pec != data_pec )
 3731              		.loc 1 1445 0
 3732 007c 9842     		cmp	r0, r3
 3733 007e 14D0     		beq	.L263
1446:Drivers/LTC681x/LTC681x.c ****         {
1447:Drivers/LTC681x/LTC681x.c ****             ic[c_ic].sctrl.rx_pec_match = 1;
 3734              		.loc 1 1447 0
 3735 0080 C4EBC404 		rsb	r4, r4, r4, lsl #3
 3736              	.LVL431:
 3737 0084 6301     		lsls	r3, r4, #5
 3738              	.LVL432:
 3739 0086 3344     		add	r3, r3, r6
 3740 0088 0122     		movs	r2, #1
 3741              	.LVL433:
 3742 008a 83F8A920 		strb	r2, [r3, #169]
 3743              	.LVL434:
 3744              	.L264:
1432:Drivers/LTC681x/LTC681x.c ****     {	
 3745              		.loc 1 1432 0 discriminator 2
 3746 008e 0135     		adds	r5, r5, #1
 3747              	.LVL435:
 3748 0090 EDB2     		uxtb	r5, r5
 3749              	.LVL436:
 3750              	.L259:
1432:Drivers/LTC681x/LTC681x.c ****     {	
 3751              		.loc 1 1432 0 is_stmt 0 discriminator 1
 3752 0092 BD42     		cmp	r5, r7
ARM GAS  /tmp/ccMCacDa.s 			page 94


 3753 0094 11D2     		bcs	.L268
1434:Drivers/LTC681x/LTC681x.c ****         else{c_ic = total_ic - current_ic - 1;}
 3754              		.loc 1 1434 0 is_stmt 1
 3755 0096 96F8B930 		ldrb	r3, [r6, #185]	@ zero_extendqisi2
 3756 009a 002B     		cmp	r3, #0
 3757 009c CBD0     		beq	.L266
1435:Drivers/LTC681x/LTC681x.c **** 	
 3758              		.loc 1 1435 0
 3759 009e 7C1B     		subs	r4, r7, r5
 3760 00a0 E4B2     		uxtb	r4, r4
 3761 00a2 013C     		subs	r4, r4, #1
 3762 00a4 E4B2     		uxtb	r4, r4
 3763              	.LVL437:
 3764              	.L260:
 3765              	.LBB54:
1438:Drivers/LTC681x/LTC681x.c ****         {
 3766              		.loc 1 1438 0
 3767 00a6 0022     		movs	r2, #0
 3768 00a8 D3E7     		b	.L261
 3769              	.LVL438:
 3770              	.L263:
 3771              	.LBE54:
1448:Drivers/LTC681x/LTC681x.c ****         }
1449:Drivers/LTC681x/LTC681x.c ****         else ic[c_ic].sctrl.rx_pec_match = 0;
 3772              		.loc 1 1449 0
 3773 00aa C4EBC404 		rsb	r4, r4, r4, lsl #3
 3774              	.LVL439:
 3775 00ae 6301     		lsls	r3, r4, #5
 3776              	.LVL440:
 3777 00b0 3344     		add	r3, r3, r6
 3778 00b2 0022     		movs	r2, #0
 3779              	.LVL441:
 3780 00b4 83F8A920 		strb	r2, [r3, #169]
 3781              	.LVL442:
 3782 00b8 E9E7     		b	.L264
 3783              	.LVL443:
 3784              	.L268:
 3785              	.LBE55:
1450:Drivers/LTC681x/LTC681x.c **** 		
1451:Drivers/LTC681x/LTC681x.c ****     }
1452:Drivers/LTC681x/LTC681x.c ****     return(pec_error);
1453:Drivers/LTC681x/LTC681x.c **** }
 3786              		.loc 1 1453 0
 3787 00ba 4046     		mov	r0, r8
 3788 00bc 42B0     		add	sp, sp, #264
 3789              	.LCFI117:
 3790              		.cfi_def_cfa_offset 32
 3791              		@ sp needed
 3792 00be BDE8F087 		pop	{r4, r5, r6, r7, r8, r9, r10, pc}
 3793              		.cfi_endproc
 3794              	.LFE51:
 3796              		.section	.text.LTC681x_stsctrl,"ax",%progbits
 3797              		.align	1
 3798              		.global	LTC681x_stsctrl
 3799              		.syntax unified
 3800              		.thumb
 3801              		.thumb_func
ARM GAS  /tmp/ccMCacDa.s 			page 95


 3802              		.fpu softvfp
 3804              	LTC681x_stsctrl:
 3805              	.LFB52:
1454:Drivers/LTC681x/LTC681x.c **** 
1455:Drivers/LTC681x/LTC681x.c **** /* Start Sctrl data communication       
1456:Drivers/LTC681x/LTC681x.c **** This command will start the sctrl pulse communication over the spins
1457:Drivers/LTC681x/LTC681x.c **** */
1458:Drivers/LTC681x/LTC681x.c **** void LTC681x_stsctrl()
1459:Drivers/LTC681x/LTC681x.c **** {
 3806              		.loc 1 1459 0
 3807              		.cfi_startproc
 3808              		@ args = 0, pretend = 0, frame = 8
 3809              		@ frame_needed = 0, uses_anonymous_args = 0
 3810 0000 00B5     		push	{lr}
 3811              	.LCFI118:
 3812              		.cfi_def_cfa_offset 4
 3813              		.cfi_offset 14, -4
 3814 0002 83B0     		sub	sp, sp, #12
 3815              	.LCFI119:
 3816              		.cfi_def_cfa_offset 16
1460:Drivers/LTC681x/LTC681x.c **** 	 uint8_t cmd[4];
1461:Drivers/LTC681x/LTC681x.c ****     uint16_t cmd_pec;
1462:Drivers/LTC681x/LTC681x.c ****     
1463:Drivers/LTC681x/LTC681x.c ****     cmd[0] = 0x00;
 3817              		.loc 1 1463 0
 3818 0004 0023     		movs	r3, #0
 3819 0006 8DF80430 		strb	r3, [sp, #4]
1464:Drivers/LTC681x/LTC681x.c ****     cmd[1] = 0x19;
 3820              		.loc 1 1464 0
 3821 000a 1923     		movs	r3, #25
 3822 000c 8DF80530 		strb	r3, [sp, #5]
1465:Drivers/LTC681x/LTC681x.c ****     cmd_pec = pec15_calc(2, cmd);
 3823              		.loc 1 1465 0
 3824 0010 01A9     		add	r1, sp, #4
 3825 0012 0220     		movs	r0, #2
 3826 0014 FFF7FEFF 		bl	pec15_calc
 3827              	.LVL444:
1466:Drivers/LTC681x/LTC681x.c ****     cmd[2] = (uint8_t)(cmd_pec >> 8);
 3828              		.loc 1 1466 0
 3829 0018 C0F30723 		ubfx	r3, r0, #8, #8
 3830 001c 8DF80630 		strb	r3, [sp, #6]
1467:Drivers/LTC681x/LTC681x.c ****     cmd[3] = (uint8_t)(cmd_pec);
 3831              		.loc 1 1467 0
 3832 0020 8DF80700 		strb	r0, [sp, #7]
1468:Drivers/LTC681x/LTC681x.c ****     
1469:Drivers/LTC681x/LTC681x.c ****     cs_low(CS_PIN);
 3833              		.loc 1 1469 0
 3834 0024 0A20     		movs	r0, #10
 3835              	.LVL445:
 3836 0026 FFF7FEFF 		bl	cs_low
 3837              	.LVL446:
1470:Drivers/LTC681x/LTC681x.c ****     spi_write_array(4,cmd);         
 3838              		.loc 1 1470 0
 3839 002a 01A9     		add	r1, sp, #4
 3840 002c 0420     		movs	r0, #4
 3841 002e FFF7FEFF 		bl	spi_write_array
 3842              	.LVL447:
ARM GAS  /tmp/ccMCacDa.s 			page 96


1471:Drivers/LTC681x/LTC681x.c ****     
1472:Drivers/LTC681x/LTC681x.c ****     cs_high(CS_PIN);
 3843              		.loc 1 1472 0
 3844 0032 0A20     		movs	r0, #10
 3845 0034 FFF7FEFF 		bl	cs_high
 3846              	.LVL448:
1473:Drivers/LTC681x/LTC681x.c **** 
1474:Drivers/LTC681x/LTC681x.c **** }
 3847              		.loc 1 1474 0
 3848 0038 03B0     		add	sp, sp, #12
 3849              	.LCFI120:
 3850              		.cfi_def_cfa_offset 4
 3851              		@ sp needed
 3852 003a 5DF804FB 		ldr	pc, [sp], #4
 3853              		.cfi_endproc
 3854              	.LFE52:
 3856              		.section	.text.LTC681x_clear_discharge,"ax",%progbits
 3857              		.align	1
 3858              		.global	LTC681x_clear_discharge
 3859              		.syntax unified
 3860              		.thumb
 3861              		.thumb_func
 3862              		.fpu softvfp
 3864              	LTC681x_clear_discharge:
 3865              	.LFB53:
1475:Drivers/LTC681x/LTC681x.c **** 
1476:Drivers/LTC681x/LTC681x.c **** //Clears all of the DCC bits in the configuration registers
1477:Drivers/LTC681x/LTC681x.c **** void LTC681x_clear_discharge(uint8_t total_ic, 
1478:Drivers/LTC681x/LTC681x.c **** 							 cell_asic *ic
1479:Drivers/LTC681x/LTC681x.c **** 							 )
1480:Drivers/LTC681x/LTC681x.c **** {
 3866              		.loc 1 1480 0
 3867              		.cfi_startproc
 3868              		@ args = 0, pretend = 0, frame = 0
 3869              		@ frame_needed = 0, uses_anonymous_args = 0
 3870              		@ link register save eliminated.
 3871              	.LVL449:
 3872              	.LBB56:
1481:Drivers/LTC681x/LTC681x.c ****   for (int i=0; i<total_ic; i++)
 3873              		.loc 1 1481 0
 3874 0000 0022     		movs	r2, #0
 3875              	.LVL450:
 3876 0002 9042     		cmp	r0, r2
 3877 0004 17DD     		ble	.L277
 3878              	.LBE56:
1480:Drivers/LTC681x/LTC681x.c ****   for (int i=0; i<total_ic; i++)
 3879              		.loc 1 1480 0
 3880 0006 10B4     		push	{r4}
 3881              	.LCFI121:
 3882              		.cfi_def_cfa_offset 4
 3883              		.cfi_offset 4, -4
 3884              	.L273:
 3885              	.LBB57:
1482:Drivers/LTC681x/LTC681x.c ****   {
1483:Drivers/LTC681x/LTC681x.c ****     ic[i].config.tx_data[4] = 0;
 3886              		.loc 1 1483 0 discriminator 3
 3887 0008 C2EBC204 		rsb	r4, r2, r2, lsl #3
ARM GAS  /tmp/ccMCacDa.s 			page 97


 3888 000c 6301     		lsls	r3, r4, #5
 3889 000e 0B44     		add	r3, r3, r1
 3890 0010 0024     		movs	r4, #0
 3891 0012 1C71     		strb	r4, [r3, #4]
1484:Drivers/LTC681x/LTC681x.c **** 	ic[i].config.tx_data[5] =ic[i].config.tx_data[5]&(0xF0);
 3892              		.loc 1 1484 0 discriminator 3
 3893 0014 5C79     		ldrb	r4, [r3, #5]	@ zero_extendqisi2
 3894 0016 04F0F004 		and	r4, r4, #240
 3895 001a 5C71     		strb	r4, [r3, #5]
1485:Drivers/LTC681x/LTC681x.c **** 	ic[i].configb.tx_data[0]=ic[i].configb.tx_data[0]&(0x0F); 
 3896              		.loc 1 1485 0 discriminator 3
 3897 001c DC7B     		ldrb	r4, [r3, #15]	@ zero_extendqisi2
 3898 001e 04F00F04 		and	r4, r4, #15
 3899 0022 DC73     		strb	r4, [r3, #15]
1486:Drivers/LTC681x/LTC681x.c **** 	ic[i].configb.tx_data[1]=ic[i].configb.tx_data[1]&(0xF0);
 3900              		.loc 1 1486 0 discriminator 3
 3901 0024 1C7C     		ldrb	r4, [r3, #16]	@ zero_extendqisi2
 3902 0026 04F0F004 		and	r4, r4, #240
 3903 002a 1C74     		strb	r4, [r3, #16]
1481:Drivers/LTC681x/LTC681x.c ****   {
 3904              		.loc 1 1481 0 discriminator 3
 3905 002c 0132     		adds	r2, r2, #1
 3906              	.LVL451:
 3907 002e 9042     		cmp	r0, r2
 3908 0030 EADC     		bgt	.L273
 3909              	.LBE57:
1487:Drivers/LTC681x/LTC681x.c ****   }
1488:Drivers/LTC681x/LTC681x.c **** }
 3910              		.loc 1 1488 0
 3911 0032 10BC     		pop	{r4}
 3912              	.LCFI122:
 3913              		.cfi_restore 4
 3914              		.cfi_def_cfa_offset 0
 3915 0034 7047     		bx	lr
 3916              	.L277:
 3917 0036 7047     		bx	lr
 3918              		.cfi_endproc
 3919              	.LFE53:
 3921              		.section	.text.LTC681x_st_lookup,"ax",%progbits
 3922              		.align	1
 3923              		.global	LTC681x_st_lookup
 3924              		.syntax unified
 3925              		.thumb
 3926              		.thumb_func
 3927              		.fpu softvfp
 3929              	LTC681x_st_lookup:
 3930              	.LFB54:
1489:Drivers/LTC681x/LTC681x.c **** 
1490:Drivers/LTC681x/LTC681x.c **** //Looks up the result pattern for digital filter self test
1491:Drivers/LTC681x/LTC681x.c **** uint16_t LTC681x_st_lookup(uint8_t MD, //ADC Mode
1492:Drivers/LTC681x/LTC681x.c **** 						   uint8_t ST, //Self Test
1493:Drivers/LTC681x/LTC681x.c **** 						   bool adcopt
1494:Drivers/LTC681x/LTC681x.c **** 						  )
1495:Drivers/LTC681x/LTC681x.c **** {
 3931              		.loc 1 1495 0
 3932              		.cfi_startproc
 3933              		@ args = 0, pretend = 0, frame = 0
ARM GAS  /tmp/ccMCacDa.s 			page 98


 3934              		@ frame_needed = 0, uses_anonymous_args = 0
 3935              		@ link register save eliminated.
 3936              	.LVL452:
1496:Drivers/LTC681x/LTC681x.c ****  uint16_t test_pattern = 0;
1497:Drivers/LTC681x/LTC681x.c **** 
1498:Drivers/LTC681x/LTC681x.c ****     if (MD == 1)
 3937              		.loc 1 1498 0
 3938 0000 0128     		cmp	r0, #1
 3939 0002 04D0     		beq	.L285
1499:Drivers/LTC681x/LTC681x.c ****     { 
1500:Drivers/LTC681x/LTC681x.c **** 		if ( adcopt == false)
1501:Drivers/LTC681x/LTC681x.c **** 		{	 if (ST == 1)
1502:Drivers/LTC681x/LTC681x.c **** 			  {
1503:Drivers/LTC681x/LTC681x.c **** 				test_pattern = 0x9565;
1504:Drivers/LTC681x/LTC681x.c **** 			  }
1505:Drivers/LTC681x/LTC681x.c **** 			  else
1506:Drivers/LTC681x/LTC681x.c **** 			  {
1507:Drivers/LTC681x/LTC681x.c **** 				test_pattern = 0x6A9A;
1508:Drivers/LTC681x/LTC681x.c **** 			  }
1509:Drivers/LTC681x/LTC681x.c **** 		}
1510:Drivers/LTC681x/LTC681x.c **** 		else
1511:Drivers/LTC681x/LTC681x.c **** 		{	  if (ST == 1)
1512:Drivers/LTC681x/LTC681x.c **** 			  {
1513:Drivers/LTC681x/LTC681x.c **** 				test_pattern = 0x9553;
1514:Drivers/LTC681x/LTC681x.c **** 			  }
1515:Drivers/LTC681x/LTC681x.c **** 			  else
1516:Drivers/LTC681x/LTC681x.c **** 			  {
1517:Drivers/LTC681x/LTC681x.c **** 				test_pattern = 0x6AAC;
1518:Drivers/LTC681x/LTC681x.c **** 			  }
1519:Drivers/LTC681x/LTC681x.c **** 			
1520:Drivers/LTC681x/LTC681x.c **** 		}
1521:Drivers/LTC681x/LTC681x.c ****     }
1522:Drivers/LTC681x/LTC681x.c ****     else
1523:Drivers/LTC681x/LTC681x.c ****     {
1524:Drivers/LTC681x/LTC681x.c **** 		if (ST == 1)
 3940              		.loc 1 1524 0
 3941 0004 0129     		cmp	r1, #1
 3942 0006 13D0     		beq	.L286
1525:Drivers/LTC681x/LTC681x.c **** 		{
1526:Drivers/LTC681x/LTC681x.c **** 		   test_pattern = 0x9555;
1527:Drivers/LTC681x/LTC681x.c **** 		}
1528:Drivers/LTC681x/LTC681x.c **** 		else
1529:Drivers/LTC681x/LTC681x.c **** 		{
1530:Drivers/LTC681x/LTC681x.c **** 		   test_pattern = 0x6AAA;
 3943              		.loc 1 1530 0
 3944 0008 46F6AA20 		movw	r0, #27306
 3945              	.LVL453:
1531:Drivers/LTC681x/LTC681x.c **** 		}
1532:Drivers/LTC681x/LTC681x.c ****     }
1533:Drivers/LTC681x/LTC681x.c ****     return(test_pattern);
1534:Drivers/LTC681x/LTC681x.c **** }
 3946              		.loc 1 1534 0
 3947 000c 7047     		bx	lr
 3948              	.LVL454:
 3949              	.L285:
1500:Drivers/LTC681x/LTC681x.c **** 		{	 if (ST == 1)
 3950              		.loc 1 1500 0
ARM GAS  /tmp/ccMCacDa.s 			page 99


 3951 000e 3AB9     		cbnz	r2, .L280
1501:Drivers/LTC681x/LTC681x.c **** 			  {
